
ep.W.x:     file format elf64-x86-64


Disassembly of section .init:

0000000000400b80 <_init>:
  400b80:	48 83 ec 08          	sub    $0x8,%rsp
  400b84:	e8 d3 01 00 00       	callq  400d5c <call_gmon_start>
  400b89:	e8 62 02 00 00       	callq  400df0 <frame_dummy>
  400b8e:	e8 2d 22 00 00       	callq  402dc0 <__do_global_ctors_aux>
  400b93:	48 83 c4 08          	add    $0x8,%rsp
  400b97:	c3                   	retq   

Disassembly of section .plt:

0000000000400b98 <omp_get_num_threads@plt-0x10>:
  400b98:	ff 35 da 2e 20 00    	pushq  0x202eda(%rip)        # 603a78 <_GLOBAL_OFFSET_TABLE_+0x8>
  400b9e:	ff 25 dc 2e 20 00    	jmpq   *0x202edc(%rip)        # 603a80 <_GLOBAL_OFFSET_TABLE_+0x10>
  400ba4:	0f 1f 40 00          	nopl   0x0(%rax)

0000000000400ba8 <omp_get_num_threads@plt>:
  400ba8:	ff 25 da 2e 20 00    	jmpq   *0x202eda(%rip)        # 603a88 <_GLOBAL_OFFSET_TABLE_+0x18>
  400bae:	68 00 00 00 00       	pushq  $0x0
  400bb3:	e9 e0 ff ff ff       	jmpq   400b98 <_init+0x18>

0000000000400bb8 <_gfortran_st_open@plt>:
  400bb8:	ff 25 d2 2e 20 00    	jmpq   *0x202ed2(%rip)        # 603a90 <_GLOBAL_OFFSET_TABLE_+0x20>
  400bbe:	68 01 00 00 00       	pushq  $0x1
  400bc3:	e9 d0 ff ff ff       	jmpq   400b98 <_init+0x18>

0000000000400bc8 <_gfortran_st_write_done@plt>:
  400bc8:	ff 25 ca 2e 20 00    	jmpq   *0x202eca(%rip)        # 603a98 <_GLOBAL_OFFSET_TABLE_+0x28>
  400bce:	68 02 00 00 00       	pushq  $0x2
  400bd3:	e9 c0 ff ff ff       	jmpq   400b98 <_init+0x18>

0000000000400bd8 <gettimeofday@plt>:
  400bd8:	ff 25 c2 2e 20 00    	jmpq   *0x202ec2(%rip)        # 603aa0 <_GLOBAL_OFFSET_TABLE_+0x30>
  400bde:	68 03 00 00 00       	pushq  $0x3
  400be3:	e9 b0 ff ff ff       	jmpq   400b98 <_init+0x18>

0000000000400be8 <__libc_start_main@plt>:
  400be8:	ff 25 ba 2e 20 00    	jmpq   *0x202eba(%rip)        # 603aa8 <_GLOBAL_OFFSET_TABLE_+0x38>
  400bee:	68 04 00 00 00       	pushq  $0x4
  400bf3:	e9 a0 ff ff ff       	jmpq   400b98 <_init+0x18>

0000000000400bf8 <omp_get_thread_num@plt>:
  400bf8:	ff 25 b2 2e 20 00    	jmpq   *0x202eb2(%rip)        # 603ab0 <_GLOBAL_OFFSET_TABLE_+0x40>
  400bfe:	68 05 00 00 00       	pushq  $0x5
  400c03:	e9 90 ff ff ff       	jmpq   400b98 <_init+0x18>

0000000000400c08 <_gfortran_set_options@plt>:
  400c08:	ff 25 aa 2e 20 00    	jmpq   *0x202eaa(%rip)        # 603ab8 <_GLOBAL_OFFSET_TABLE_+0x48>
  400c0e:	68 06 00 00 00       	pushq  $0x6
  400c13:	e9 80 ff ff ff       	jmpq   400b98 <_init+0x18>

0000000000400c18 <_gfortran_set_args@plt>:
  400c18:	ff 25 a2 2e 20 00    	jmpq   *0x202ea2(%rip)        # 603ac0 <_GLOBAL_OFFSET_TABLE_+0x50>
  400c1e:	68 07 00 00 00       	pushq  $0x7
  400c23:	e9 70 ff ff ff       	jmpq   400b98 <_init+0x18>

0000000000400c28 <GOMP_atomic_end@plt>:
  400c28:	ff 25 9a 2e 20 00    	jmpq   *0x202e9a(%rip)        # 603ac8 <_GLOBAL_OFFSET_TABLE_+0x58>
  400c2e:	68 08 00 00 00       	pushq  $0x8
  400c33:	e9 60 ff ff ff       	jmpq   400b98 <_init+0x18>

0000000000400c38 <omp_get_num_threads_@plt>:
  400c38:	ff 25 92 2e 20 00    	jmpq   *0x202e92(%rip)        # 603ad0 <_GLOBAL_OFFSET_TABLE_+0x60>
  400c3e:	68 09 00 00 00       	pushq  $0x9
  400c43:	e9 50 ff ff ff       	jmpq   400b98 <_init+0x18>

0000000000400c48 <_gfortran_transfer_integer@plt>:
  400c48:	ff 25 8a 2e 20 00    	jmpq   *0x202e8a(%rip)        # 603ad8 <_GLOBAL_OFFSET_TABLE_+0x68>
  400c4e:	68 0a 00 00 00       	pushq  $0xa
  400c53:	e9 40 ff ff ff       	jmpq   400b98 <_init+0x18>

0000000000400c58 <_gfortran_st_close@plt>:
  400c58:	ff 25 82 2e 20 00    	jmpq   *0x202e82(%rip)        # 603ae0 <_GLOBAL_OFFSET_TABLE_+0x70>
  400c5e:	68 0b 00 00 00       	pushq  $0xb
  400c63:	e9 30 ff ff ff       	jmpq   400b98 <_init+0x18>

0000000000400c68 <GOMP_atomic_start@plt>:
  400c68:	ff 25 7a 2e 20 00    	jmpq   *0x202e7a(%rip)        # 603ae8 <_GLOBAL_OFFSET_TABLE_+0x78>
  400c6e:	68 0c 00 00 00       	pushq  $0xc
  400c73:	e9 20 ff ff ff       	jmpq   400b98 <_init+0x18>

0000000000400c78 <_gfortran_transfer_character@plt>:
  400c78:	ff 25 72 2e 20 00    	jmpq   *0x202e72(%rip)        # 603af0 <_GLOBAL_OFFSET_TABLE_+0x80>
  400c7e:	68 0d 00 00 00       	pushq  $0xd
  400c83:	e9 10 ff ff ff       	jmpq   400b98 <_init+0x18>

0000000000400c88 <__powidf2@plt>:
  400c88:	ff 25 6a 2e 20 00    	jmpq   *0x202e6a(%rip)        # 603af8 <_GLOBAL_OFFSET_TABLE_+0x88>
  400c8e:	68 0e 00 00 00       	pushq  $0xe
  400c93:	e9 00 ff ff ff       	jmpq   400b98 <_init+0x18>

0000000000400c98 <omp_get_wtime_@plt>:
  400c98:	ff 25 62 2e 20 00    	jmpq   *0x202e62(%rip)        # 603b00 <_GLOBAL_OFFSET_TABLE_+0x90>
  400c9e:	68 0f 00 00 00       	pushq  $0xf
  400ca3:	e9 f0 fe ff ff       	jmpq   400b98 <_init+0x18>

0000000000400ca8 <GOMP_parallel_end@plt>:
  400ca8:	ff 25 5a 2e 20 00    	jmpq   *0x202e5a(%rip)        # 603b08 <_GLOBAL_OFFSET_TABLE_+0x98>
  400cae:	68 10 00 00 00       	pushq  $0x10
  400cb3:	e9 e0 fe ff ff       	jmpq   400b98 <_init+0x18>

0000000000400cb8 <_gfortran_st_write@plt>:
  400cb8:	ff 25 52 2e 20 00    	jmpq   *0x202e52(%rip)        # 603b10 <_GLOBAL_OFFSET_TABLE_+0xa0>
  400cbe:	68 11 00 00 00       	pushq  $0x11
  400cc3:	e9 d0 fe ff ff       	jmpq   400b98 <_init+0x18>

0000000000400cc8 <omp_get_max_threads_@plt>:
  400cc8:	ff 25 4a 2e 20 00    	jmpq   *0x202e4a(%rip)        # 603b18 <_GLOBAL_OFFSET_TABLE_+0xa8>
  400cce:	68 12 00 00 00       	pushq  $0x12
  400cd3:	e9 c0 fe ff ff       	jmpq   400b98 <_init+0x18>

0000000000400cd8 <_gfortran_transfer_real@plt>:
  400cd8:	ff 25 42 2e 20 00    	jmpq   *0x202e42(%rip)        # 603b20 <_GLOBAL_OFFSET_TABLE_+0xb0>
  400cde:	68 13 00 00 00       	pushq  $0x13
  400ce3:	e9 b0 fe ff ff       	jmpq   400b98 <_init+0x18>

0000000000400ce8 <GOMP_parallel_start@plt>:
  400ce8:	ff 25 3a 2e 20 00    	jmpq   *0x202e3a(%rip)        # 603b28 <_GLOBAL_OFFSET_TABLE_+0xb8>
  400cee:	68 14 00 00 00       	pushq  $0x14
  400cf3:	e9 a0 fe ff ff       	jmpq   400b98 <_init+0x18>

0000000000400cf8 <_gfortran_compare_string@plt>:
  400cf8:	ff 25 32 2e 20 00    	jmpq   *0x202e32(%rip)        # 603b30 <_GLOBAL_OFFSET_TABLE_+0xc0>
  400cfe:	68 15 00 00 00       	pushq  $0x15
  400d03:	e9 90 fe ff ff       	jmpq   400b98 <_init+0x18>

0000000000400d08 <_gfortran_store_exe_path@plt>:
  400d08:	ff 25 2a 2e 20 00    	jmpq   *0x202e2a(%rip)        # 603b38 <_GLOBAL_OFFSET_TABLE_+0xc8>
  400d0e:	68 16 00 00 00       	pushq  $0x16
  400d13:	e9 80 fe ff ff       	jmpq   400b98 <_init+0x18>

0000000000400d18 <log@plt>:
  400d18:	ff 25 22 2e 20 00    	jmpq   *0x202e22(%rip)        # 603b40 <_GLOBAL_OFFSET_TABLE_+0xd0>
  400d1e:	68 17 00 00 00       	pushq  $0x17
  400d23:	e9 70 fe ff ff       	jmpq   400b98 <_init+0x18>

Disassembly of section .text:

0000000000400d30 <_start>:
  400d30:	31 ed                	xor    %ebp,%ebp
  400d32:	49 89 d1             	mov    %rdx,%r9
  400d35:	5e                   	pop    %rsi
  400d36:	48 89 e2             	mov    %rsp,%rdx
  400d39:	48 83 e4 f0          	and    $0xfffffffffffffff0,%rsp
  400d3d:	50                   	push   %rax
  400d3e:	54                   	push   %rsp
  400d3f:	49 c7 c0 20 2d 40 00 	mov    $0x402d20,%r8
  400d46:	48 c7 c1 30 2d 40 00 	mov    $0x402d30,%rcx
  400d4d:	48 c7 c7 e0 2c 40 00 	mov    $0x402ce0,%rdi
  400d54:	e8 8f fe ff ff       	callq  400be8 <__libc_start_main@plt>
  400d59:	f4                   	hlt    
  400d5a:	90                   	nop
  400d5b:	90                   	nop

0000000000400d5c <call_gmon_start>:
  400d5c:	48 83 ec 08          	sub    $0x8,%rsp
  400d60:	48 8b 05 01 2d 20 00 	mov    0x202d01(%rip),%rax        # 603a68 <_DYNAMIC+0x1e0>
  400d67:	48 85 c0             	test   %rax,%rax
  400d6a:	74 02                	je     400d6e <call_gmon_start+0x12>
  400d6c:	ff d0                	callq  *%rax
  400d6e:	48 83 c4 08          	add    $0x8,%rsp
  400d72:	c3                   	retq   
  400d73:	90                   	nop
  400d74:	90                   	nop
  400d75:	90                   	nop
  400d76:	90                   	nop
  400d77:	90                   	nop
  400d78:	90                   	nop
  400d79:	90                   	nop
  400d7a:	90                   	nop
  400d7b:	90                   	nop
  400d7c:	90                   	nop
  400d7d:	90                   	nop
  400d7e:	90                   	nop
  400d7f:	90                   	nop

0000000000400d80 <__do_global_dtors_aux>:
  400d80:	55                   	push   %rbp
  400d81:	48 89 e5             	mov    %rsp,%rbp
  400d84:	53                   	push   %rbx
  400d85:	48 83 ec 08          	sub    $0x8,%rsp
  400d89:	80 3d f0 2d 20 00 00 	cmpb   $0x0,0x202df0(%rip)        # 603b80 <completed.6312>
  400d90:	75 4b                	jne    400ddd <__do_global_dtors_aux+0x5d>
  400d92:	bb 78 38 60 00       	mov    $0x603878,%ebx
  400d97:	48 8b 05 ea 2d 20 00 	mov    0x202dea(%rip),%rax        # 603b88 <dtor_idx.6314>
  400d9e:	48 81 eb 70 38 60 00 	sub    $0x603870,%rbx
  400da5:	48 c1 fb 03          	sar    $0x3,%rbx
  400da9:	48 83 eb 01          	sub    $0x1,%rbx
  400dad:	48 39 d8             	cmp    %rbx,%rax
  400db0:	73 24                	jae    400dd6 <__do_global_dtors_aux+0x56>
  400db2:	66 0f 1f 44 00 00    	nopw   0x0(%rax,%rax,1)
  400db8:	48 83 c0 01          	add    $0x1,%rax
  400dbc:	48 89 05 c5 2d 20 00 	mov    %rax,0x202dc5(%rip)        # 603b88 <dtor_idx.6314>
  400dc3:	ff 14 c5 70 38 60 00 	callq  *0x603870(,%rax,8)
  400dca:	48 8b 05 b7 2d 20 00 	mov    0x202db7(%rip),%rax        # 603b88 <dtor_idx.6314>
  400dd1:	48 39 d8             	cmp    %rbx,%rax
  400dd4:	72 e2                	jb     400db8 <__do_global_dtors_aux+0x38>
  400dd6:	c6 05 a3 2d 20 00 01 	movb   $0x1,0x202da3(%rip)        # 603b80 <completed.6312>
  400ddd:	48 83 c4 08          	add    $0x8,%rsp
  400de1:	5b                   	pop    %rbx
  400de2:	c9                   	leaveq 
  400de3:	c3                   	retq   
  400de4:	66 66 66 2e 0f 1f 84 	data32 data32 nopw %cs:0x0(%rax,%rax,1)
  400deb:	00 00 00 00 00 

0000000000400df0 <frame_dummy>:
  400df0:	55                   	push   %rbp
  400df1:	48 83 3d 87 2a 20 00 	cmpq   $0x0,0x202a87(%rip)        # 603880 <__JCR_END__>
  400df8:	00 
  400df9:	48 89 e5             	mov    %rsp,%rbp
  400dfc:	74 12                	je     400e10 <frame_dummy+0x20>
  400dfe:	b8 00 00 00 00       	mov    $0x0,%eax
  400e03:	48 85 c0             	test   %rax,%rax
  400e06:	74 08                	je     400e10 <frame_dummy+0x20>
  400e08:	bf 80 38 60 00       	mov    $0x603880,%edi
  400e0d:	c9                   	leaveq 
  400e0e:	ff e0                	jmpq   *%rax
  400e10:	c9                   	leaveq 
  400e11:	c3                   	retq   
  400e12:	90                   	nop
  400e13:	90                   	nop
  400e14:	90                   	nop
  400e15:	90                   	nop
  400e16:	90                   	nop
  400e17:	90                   	nop
  400e18:	90                   	nop
  400e19:	90                   	nop
  400e1a:	90                   	nop
  400e1b:	90                   	nop
  400e1c:	90                   	nop
  400e1d:	90                   	nop
  400e1e:	90                   	nop
  400e1f:	90                   	nop

0000000000400e20 <MAIN__.omp_fn.0>:
  400e20:	64 48 8b 14 25 00 00 	mov    %fs:0x0,%rdx
  400e27:	00 00 
  400e29:	31 c0                	xor    %eax,%eax
  400e2b:	66 0f 28 05 9d 22 00 	movapd 0x229d(%rip),%xmm0        # 4030d0 <options.0.1576+0x30>
  400e32:	00 
  400e33:	48 81 c2 b0 fb ef ff 	add    $0xffffffffffeffbb0,%rdx
  400e3a:	66 0f 1f 44 00 00    	nopw   0x0(%rax,%rax,1)
  400e40:	66 0f 29 04 10       	movapd %xmm0,(%rax,%rdx,1)
  400e45:	48 83 c0 10          	add    $0x10,%rax
  400e49:	48 3d 00 00 10 00    	cmp    $0x100000,%rax
  400e4f:	75 ef                	jne    400e40 <MAIN__.omp_fn.0+0x20>
  400e51:	f3 c3                	repz retq 
  400e53:	66 66 66 66 2e 0f 1f 	data32 data32 data32 nopw %cs:0x0(%rax,%rax,1)
  400e5a:	84 00 00 00 00 00 

0000000000400e60 <MAIN__.omp_fn.1>:
  400e60:	53                   	push   %rbx
  400e61:	31 c0                	xor    %eax,%eax
  400e63:	48 89 fb             	mov    %rdi,%rbx
  400e66:	bf 40 2e 40 00       	mov    $0x402e40,%edi
  400e6b:	e8 70 1d 00 00       	callq  402be0 <timer_clear_>
  400e70:	8b 13                	mov    (%rbx),%edx
  400e72:	85 d2                	test   %edx,%edx
  400e74:	75 0a                	jne    400e80 <MAIN__.omp_fn.1+0x20>
  400e76:	5b                   	pop    %rbx
  400e77:	c3                   	retq   
  400e78:	0f 1f 84 00 00 00 00 	nopl   0x0(%rax,%rax,1)
  400e7f:	00 
  400e80:	31 c0                	xor    %eax,%eax
  400e82:	bf 48 2e 40 00       	mov    $0x402e48,%edi
  400e87:	e8 54 1d 00 00       	callq  402be0 <timer_clear_>
  400e8c:	8b 03                	mov    (%rbx),%eax
  400e8e:	85 c0                	test   %eax,%eax
  400e90:	74 e4                	je     400e76 <MAIN__.omp_fn.1+0x16>
  400e92:	5b                   	pop    %rbx
  400e93:	bf 44 2e 40 00       	mov    $0x402e44,%edi
  400e98:	31 c0                	xor    %eax,%eax
  400e9a:	e9 41 1d 00 00       	jmpq   402be0 <timer_clear_>
  400e9f:	90                   	nop

0000000000400ea0 <MAIN__.omp_fn.2>:
  400ea0:	41 57                	push   %r15
  400ea2:	66 0f 57 c0          	xorpd  %xmm0,%xmm0
  400ea6:	41 56                	push   %r14
  400ea8:	49 89 fe             	mov    %rdi,%r14
  400eab:	41 55                	push   %r13
  400ead:	41 54                	push   %r12
  400eaf:	55                   	push   %rbp
  400eb0:	53                   	push   %rbx
  400eb1:	64 48 8b 1c 25 00 00 	mov    %fs:0x0,%rbx
  400eb8:	00 00 
  400eba:	48 81 ec 88 00 00 00 	sub    $0x88,%rsp
  400ec1:	8b 6f 1c             	mov    0x1c(%rdi),%ebp
  400ec4:	48 81 c3 b0 fb ef ff 	add    $0xffffffffffeffbb0,%rbx
  400ecb:	64 66 0f 29 04 25 b0 	movapd %xmm0,%fs:0xfffffffffffffbb0
  400ed2:	fb ff ff 
  400ed5:	64 66 0f 29 04 25 c0 	movapd %xmm0,%fs:0xfffffffffffffbc0
  400edc:	fb ff ff 
  400edf:	64 66 0f 29 04 25 d0 	movapd %xmm0,%fs:0xfffffffffffffbd0
  400ee6:	fb ff ff 
  400ee9:	64 66 0f 29 04 25 e0 	movapd %xmm0,%fs:0xfffffffffffffbe0
  400ef0:	fb ff ff 
  400ef3:	66 0f 29 83 40 00 10 	movapd %xmm0,0x100040(%rbx)
  400efa:	00 
  400efb:	e8 a8 fc ff ff       	callq  400ba8 <omp_get_num_threads@plt>
  400f00:	41 89 c4             	mov    %eax,%r12d
  400f03:	e8 f0 fc ff ff       	callq  400bf8 <omp_get_thread_num@plt>
  400f08:	89 ea                	mov    %ebp,%edx
  400f0a:	89 c1                	mov    %eax,%ecx
  400f0c:	89 e8                	mov    %ebp,%eax
  400f0e:	c1 fa 1f             	sar    $0x1f,%edx
  400f11:	41 f7 fc             	idiv   %r12d
  400f14:	31 d2                	xor    %edx,%edx
  400f16:	44 0f af e0          	imul   %eax,%r12d
  400f1a:	44 39 e5             	cmp    %r12d,%ebp
  400f1d:	0f 95 c2             	setne  %dl
  400f20:	8d 04 02             	lea    (%rdx,%rax,1),%eax
  400f23:	0f af c8             	imul   %eax,%ecx
  400f26:	8d 04 01             	lea    (%rcx,%rax,1),%eax
  400f29:	39 e8                	cmp    %ebp,%eax
  400f2b:	0f 4e e8             	cmovle %eax,%ebp
  400f2e:	39 e9                	cmp    %ebp,%ecx
  400f30:	89 6c 24 6c          	mov    %ebp,0x6c(%rsp)
  400f34:	0f 8d 63 03 00 00    	jge    40129d <MAIN__.omp_fn.2+0x3fd>
  400f3a:	66 0f 57 c0          	xorpd  %xmm0,%xmm0
  400f3e:	44 8d 79 01          	lea    0x1(%rcx),%r15d
  400f42:	4c 8d 6c 24 78       	lea    0x78(%rsp),%r13
  400f47:	f2 0f 10 25 a1 21 00 	movsd  0x21a1(%rip),%xmm4        # 4030f0 <options.0.1576+0x50>
  400f4e:	00 
  400f4f:	4c 8d 64 24 70       	lea    0x70(%rsp),%r12
  400f54:	48 8d 6b 08          	lea    0x8(%rbx),%rbp
  400f58:	f2 0f 11 44 24 58    	movsd  %xmm0,0x58(%rsp)
  400f5e:	f2 0f 11 44 24 60    	movsd  %xmm0,0x60(%rsp)
  400f64:	41 8b 46 18          	mov    0x18(%r14),%eax
  400f68:	49 8b 16             	mov    (%r14),%rdx
  400f6b:	49 b9 00 00 00 d7 c4 	mov    $0x41b033c4d7000000,%r9
  400f72:	33 b0 41 
  400f75:	4c 89 4c 24 78       	mov    %r9,0x78(%rsp)
  400f7a:	c7 44 24 68 00 00 00 	movl   $0x0,0x68(%rsp)
  400f81:	00 
  400f82:	44 01 f8             	add    %r15d,%eax
  400f85:	48 89 54 24 70       	mov    %rdx,0x70(%rsp)
  400f8a:	eb 33                	jmp    400fbf <MAIN__.omp_fn.2+0x11f>
  400f8c:	0f 1f 40 00          	nopl   0x0(%rax)
  400f90:	31 c0                	xor    %eax,%eax
  400f92:	4c 89 e6             	mov    %r12,%rsi
  400f95:	4c 89 e7             	mov    %r12,%rdi
  400f98:	89 54 24 50          	mov    %edx,0x50(%rsp)
  400f9c:	f2 0f 11 64 24 10    	movsd  %xmm4,0x10(%rsp)
  400fa2:	e8 79 1b 00 00       	callq  402b20 <randlc_>
  400fa7:	83 44 24 68 01       	addl   $0x1,0x68(%rsp)
  400fac:	83 7c 24 68 64       	cmpl   $0x64,0x68(%rsp)
  400fb1:	8b 54 24 50          	mov    0x50(%rsp),%edx
  400fb5:	f2 0f 10 64 24 10    	movsd  0x10(%rsp),%xmm4
  400fbb:	89 d0                	mov    %edx,%eax
  400fbd:	74 35                	je     400ff4 <MAIN__.omp_fn.2+0x154>
  400fbf:	89 c2                	mov    %eax,%edx
  400fc1:	c1 ea 1f             	shr    $0x1f,%edx
  400fc4:	01 c2                	add    %eax,%edx
  400fc6:	d1 fa                	sar    %edx
  400fc8:	8d 0c 12             	lea    (%rdx,%rdx,1),%ecx
  400fcb:	39 c1                	cmp    %eax,%ecx
  400fcd:	74 21                	je     400ff0 <MAIN__.omp_fn.2+0x150>
  400fcf:	4c 89 e6             	mov    %r12,%rsi
  400fd2:	4c 89 ef             	mov    %r13,%rdi
  400fd5:	31 c0                	xor    %eax,%eax
  400fd7:	89 54 24 50          	mov    %edx,0x50(%rsp)
  400fdb:	f2 0f 11 64 24 10    	movsd  %xmm4,0x10(%rsp)
  400fe1:	e8 3a 1b 00 00       	callq  402b20 <randlc_>
  400fe6:	8b 54 24 50          	mov    0x50(%rsp),%edx
  400fea:	f2 0f 10 64 24 10    	movsd  0x10(%rsp),%xmm4
  400ff0:	85 d2                	test   %edx,%edx
  400ff2:	75 9c                	jne    400f90 <MAIN__.omp_fn.2+0xf0>
  400ff4:	45 8b 46 20          	mov    0x20(%r14),%r8d
  400ff8:	45 85 c0             	test   %r8d,%r8d
  400ffb:	0f 85 6d 02 00 00    	jne    40126e <MAIN__.omp_fn.2+0x3ce>
  401001:	bf 58 2e 40 00       	mov    $0x402e58,%edi
  401006:	31 c0                	xor    %eax,%eax
  401008:	48 89 d9             	mov    %rbx,%rcx
  40100b:	ba 50 2e 40 00       	mov    $0x402e50,%edx
  401010:	4c 89 ee             	mov    %r13,%rsi
  401013:	f2 0f 11 64 24 10    	movsd  %xmm4,0x10(%rsp)
  401019:	e8 42 1b 00 00       	callq  402b60 <vranlc_>
  40101e:	41 8b 7e 20          	mov    0x20(%r14),%edi
  401022:	f2 0f 10 64 24 10    	movsd  0x10(%rsp),%xmm4
  401028:	85 ff                	test   %edi,%edi
  40102a:	0f 85 f5 01 00 00    	jne    401225 <MAIN__.omp_fn.2+0x385>
  401030:	c7 44 24 68 00 00 00 	movl   $0x0,0x68(%rsp)
  401037:	00 
  401038:	f2 0f 10 44 24 70    	movsd  0x70(%rsp),%xmm0
  40103e:	31 c0                	xor    %eax,%eax
  401040:	f2 0f 10 14 18       	movsd  (%rax,%rbx,1),%xmm2
  401045:	f2 0f 10 0c 28       	movsd  (%rax,%rbp,1),%xmm1
  40104a:	f2 0f 58 d2          	addsd  %xmm2,%xmm2
  40104e:	f2 0f 58 c9          	addsd  %xmm1,%xmm1
  401052:	f2 0f 5c d4          	subsd  %xmm4,%xmm2
  401056:	f2 0f 5c cc          	subsd  %xmm4,%xmm1
  40105a:	66 0f 28 da          	movapd %xmm2,%xmm3
  40105e:	66 0f 28 e9          	movapd %xmm1,%xmm5
  401062:	f2 0f 59 da          	mulsd  %xmm2,%xmm3
  401066:	f2 0f 59 e9          	mulsd  %xmm1,%xmm5
  40106a:	f2 0f 58 dd          	addsd  %xmm5,%xmm3
  40106e:	66 0f 2e e3          	ucomisd %xmm3,%xmm4
  401072:	0f 82 c1 00 00 00    	jb     401139 <MAIN__.omp_fn.2+0x299>
  401078:	66 0f 28 c3          	movapd %xmm3,%xmm0
  40107c:	48 89 44 24 50       	mov    %rax,0x50(%rsp)
  401081:	f2 0f 11 4c 24 30    	movsd  %xmm1,0x30(%rsp)
  401087:	f2 0f 11 54 24 20    	movsd  %xmm2,0x20(%rsp)
  40108d:	f2 0f 11 5c 24 40    	movsd  %xmm3,0x40(%rsp)
  401093:	f2 0f 11 64 24 10    	movsd  %xmm4,0x10(%rsp)
  401099:	e8 7a fc ff ff       	callq  400d18 <log@plt>
  40109e:	f2 0f 59 05 52 20 00 	mulsd  0x2052(%rip),%xmm0        # 4030f8 <options.0.1576+0x58>
  4010a5:	00 
  4010a6:	f2 0f 10 5c 24 40    	movsd  0x40(%rsp),%xmm3
  4010ac:	48 8b 44 24 50       	mov    0x50(%rsp),%rax
  4010b1:	f2 0f 10 54 24 20    	movsd  0x20(%rsp),%xmm2
  4010b7:	f2 0f 10 4c 24 30    	movsd  0x30(%rsp),%xmm1
  4010bd:	f2 0f 10 64 24 10    	movsd  0x10(%rsp),%xmm4
  4010c3:	f2 0f 5e c3          	divsd  %xmm3,%xmm0
  4010c7:	f2 0f 51 c0          	sqrtsd %xmm0,%xmm0
  4010cb:	f2 0f 59 d0          	mulsd  %xmm0,%xmm2
  4010cf:	f2 0f 59 c8          	mulsd  %xmm0,%xmm1
  4010d3:	66 0f 28 ea          	movapd %xmm2,%xmm5
  4010d7:	66 0f 28 f1          	movapd %xmm1,%xmm6
  4010db:	66 0f 54 2d fd 1f 00 	andpd  0x1ffd(%rip),%xmm5        # 4030e0 <options.0.1576+0x40>
  4010e2:	00 
  4010e3:	66 0f 54 35 f5 1f 00 	andpd  0x1ff5(%rip),%xmm6        # 4030e0 <options.0.1576+0x40>
  4010ea:	00 
  4010eb:	66 0f 2e ed          	ucomisd %xmm5,%xmm5
  4010ef:	7a 06                	jp     4010f7 <MAIN__.omp_fn.2+0x257>
  4010f1:	66 0f 2e f5          	ucomisd %xmm5,%xmm6
  4010f5:	76 04                	jbe    4010fb <MAIN__.omp_fn.2+0x25b>
  4010f7:	66 0f 28 ee          	movapd %xmm6,%xmm5
  4010fb:	f2 0f 2c d5          	cvttsd2si %xmm5,%edx
  4010ff:	f2 0f 58 54 24 58    	addsd  0x58(%rsp),%xmm2
  401105:	f2 0f 58 4c 24 60    	addsd  0x60(%rsp),%xmm1
  40110b:	f2 0f 11 54 24 58    	movsd  %xmm2,0x58(%rsp)
  401111:	f2 0f 11 4c 24 60    	movsd  %xmm1,0x60(%rsp)
  401117:	48 63 d2             	movslq %edx,%rdx
  40111a:	48 81 c2 00 00 02 00 	add    $0x20000,%rdx
  401121:	64 f2 0f 10 2c d5 b0 	movsd  %fs:-0x100450(,%rdx,8),%xmm5
  401128:	fb ef ff 
  40112b:	f2 0f 58 ec          	addsd  %xmm4,%xmm5
  40112f:	64 f2 0f 11 2c d5 b0 	movsd  %xmm5,%fs:-0x100450(,%rdx,8)
  401136:	fb ef ff 
  401139:	48 83 c0 10          	add    $0x10,%rax
  40113d:	48 3d 00 00 10 00    	cmp    $0x100000,%rax
  401143:	0f 85 f7 fe ff ff    	jne    401040 <MAIN__.omp_fn.2+0x1a0>
  401149:	8b 74 24 68          	mov    0x68(%rsp),%esi
  40114d:	f2 0f 11 5c 24 78    	movsd  %xmm3,0x78(%rsp)
  401153:	f2 0f 11 44 24 70    	movsd  %xmm0,0x70(%rsp)
  401159:	85 f6                	test   %esi,%esi
  40115b:	0f 85 a7 00 00 00    	jne    401208 <MAIN__.omp_fn.2+0x368>
  401161:	41 83 c7 01          	add    $0x1,%r15d
  401165:	44 39 7c 24 6c       	cmp    %r15d,0x6c(%rsp)
  40116a:	0f 8d f4 fd ff ff    	jge    400f64 <MAIN__.omp_fn.2+0xc4>
  401170:	e8 f3 fa ff ff       	callq  400c68 <GOMP_atomic_start@plt>
  401175:	49 8b 46 10          	mov    0x10(%r14),%rax
  401179:	f2 0f 10 44 24 60    	movsd  0x60(%rsp),%xmm0
  40117f:	f2 0f 58 00          	addsd  (%rax),%xmm0
  401183:	f2 0f 11 00          	movsd  %xmm0,(%rax)
  401187:	49 8b 46 08          	mov    0x8(%r14),%rax
  40118b:	f2 0f 10 44 24 58    	movsd  0x58(%rsp),%xmm0
  401191:	f2 0f 58 00          	addsd  (%rax),%xmm0
  401195:	f2 0f 11 00          	movsd  %xmm0,(%rax)
  401199:	e8 8a fa ff ff       	callq  400c28 <GOMP_atomic_end@plt>
  40119e:	be 0a 00 00 00       	mov    $0xa,%esi
  4011a3:	31 ff                	xor    %edi,%edi
  4011a5:	0f 1f 00             	nopl   (%rax)
  4011a8:	48 63 c7             	movslq %edi,%rax
  4011ab:	64 f2 0f 10 04 c5 b0 	movsd  %fs:-0x450(,%rax,8),%xmm0
  4011b2:	fb ff ff 
  4011b5:	48 8d 0c c5 a0 3b 60 	lea    0x603ba0(,%rax,8),%rcx
  4011bc:	00 
  4011bd:	48 8b 14 c5 a0 3b 60 	mov    0x603ba0(,%rax,8),%rdx
  4011c4:	00 
  4011c5:	eb 0c                	jmp    4011d3 <MAIN__.omp_fn.2+0x333>
  4011c7:	66 0f 1f 84 00 00 00 	nopw   0x0(%rax,%rax,1)
  4011ce:	00 00 
  4011d0:	48 89 c2             	mov    %rax,%rdx
  4011d3:	48 89 54 24 08       	mov    %rdx,0x8(%rsp)
  4011d8:	48 89 d0             	mov    %rdx,%rax
  4011db:	f2 0f 10 4c 24 08    	movsd  0x8(%rsp),%xmm1
  4011e1:	f2 0f 58 c8          	addsd  %xmm0,%xmm1
  4011e5:	f2 0f 11 4c 24 58    	movsd  %xmm1,0x58(%rsp)
  4011eb:	48 8b 5c 24 58       	mov    0x58(%rsp),%rbx
  4011f0:	f0 48 0f b1 19       	lock cmpxchg %rbx,(%rcx)
  4011f5:	48 39 c2             	cmp    %rax,%rdx
  4011f8:	75 d6                	jne    4011d0 <MAIN__.omp_fn.2+0x330>
  4011fa:	83 ee 01             	sub    $0x1,%esi
  4011fd:	0f 84 88 00 00 00    	je     40128b <MAIN__.omp_fn.2+0x3eb>
  401203:	83 c7 01             	add    $0x1,%edi
  401206:	eb a0                	jmp    4011a8 <MAIN__.omp_fn.2+0x308>
  401208:	bf 48 2e 40 00       	mov    $0x402e48,%edi
  40120d:	31 c0                	xor    %eax,%eax
  40120f:	f2 0f 11 64 24 10    	movsd  %xmm4,0x10(%rsp)
  401215:	e8 06 1a 00 00       	callq  402c20 <timer_stop_>
  40121a:	f2 0f 10 64 24 10    	movsd  0x10(%rsp),%xmm4
  401220:	e9 3c ff ff ff       	jmpq   401161 <MAIN__.omp_fn.2+0x2c1>
  401225:	31 c0                	xor    %eax,%eax
  401227:	bf 44 2e 40 00       	mov    $0x402e44,%edi
  40122c:	f2 0f 11 64 24 10    	movsd  %xmm4,0x10(%rsp)
  401232:	e8 e9 19 00 00       	callq  402c20 <timer_stop_>
  401237:	41 8b 4e 20          	mov    0x20(%r14),%ecx
  40123b:	f2 0f 10 64 24 10    	movsd  0x10(%rsp),%xmm4
  401241:	85 c9                	test   %ecx,%ecx
  401243:	0f 84 e7 fd ff ff    	je     401030 <MAIN__.omp_fn.2+0x190>
  401249:	31 c0                	xor    %eax,%eax
  40124b:	bf 48 2e 40 00       	mov    $0x402e48,%edi
  401250:	f2 0f 11 64 24 10    	movsd  %xmm4,0x10(%rsp)
  401256:	e8 05 1a 00 00       	callq  402c60 <timer_start_>
  40125b:	41 8b 46 20          	mov    0x20(%r14),%eax
  40125f:	f2 0f 10 64 24 10    	movsd  0x10(%rsp),%xmm4
  401265:	89 44 24 68          	mov    %eax,0x68(%rsp)
  401269:	e9 ca fd ff ff       	jmpq   401038 <MAIN__.omp_fn.2+0x198>
  40126e:	bf 44 2e 40 00       	mov    $0x402e44,%edi
  401273:	31 c0                	xor    %eax,%eax
  401275:	f2 0f 11 64 24 10    	movsd  %xmm4,0x10(%rsp)
  40127b:	e8 e0 19 00 00       	callq  402c60 <timer_start_>
  401280:	f2 0f 10 64 24 10    	movsd  0x10(%rsp),%xmm4
  401286:	e9 76 fd ff ff       	jmpq   401001 <MAIN__.omp_fn.2+0x161>
  40128b:	48 81 c4 88 00 00 00 	add    $0x88,%rsp
  401292:	5b                   	pop    %rbx
  401293:	5d                   	pop    %rbp
  401294:	41 5c                	pop    %r12
  401296:	41 5d                	pop    %r13
  401298:	41 5e                	pop    %r14
  40129a:	41 5f                	pop    %r15
  40129c:	c3                   	retq   
  40129d:	66 0f 57 c0          	xorpd  %xmm0,%xmm0
  4012a1:	f2 0f 11 44 24 58    	movsd  %xmm0,0x58(%rsp)
  4012a7:	f2 0f 11 44 24 60    	movsd  %xmm0,0x60(%rsp)
  4012ad:	e9 be fe ff ff       	jmpq   401170 <MAIN__.omp_fn.2+0x2d0>
  4012b2:	66 66 66 66 66 2e 0f 	data32 data32 data32 data32 nopw %cs:0x0(%rax,%rax,1)
  4012b9:	1f 84 00 00 00 00 00 

00000000004012c0 <MAIN__>:
  4012c0:	41 56                	push   %r14
  4012c2:	be a0 30 40 00       	mov    $0x4030a0,%esi
  4012c7:	bf 08 00 00 00       	mov    $0x8,%edi
  4012cc:	41 55                	push   %r13
  4012ce:	41 54                	push   %r12
  4012d0:	55                   	push   %rbp
  4012d1:	53                   	push   %rbx
  4012d2:	31 db                	xor    %ebx,%ebx
  4012d4:	48 81 ec 90 13 00 00 	sub    $0x1390,%rsp
  4012db:	e8 28 f9 ff ff       	callq  400c08 <_gfortran_set_options@plt>
  4012e0:	48 8d 84 24 8c 13 00 	lea    0x138c(%rsp),%rax
  4012e7:	00 
  4012e8:	48 8d bc 24 c0 11 00 	lea    0x11c0(%rsp),%rdi
  4012ef:	00 
  4012f0:	48 c7 84 24 c8 11 00 	movq   $0x4030c0,0x11c8(%rsp)
  4012f7:	00 c0 30 40 00 
  4012fc:	c7 84 24 d0 11 00 00 	movl   $0x58,0x11d0(%rsp)
  401303:	58 00 00 00 
  401307:	c7 84 24 8c 13 00 00 	movl   $0x0,0x138c(%rsp)
  40130e:	00 00 00 00 
  401312:	48 89 84 24 e0 11 00 	mov    %rax,0x11e0(%rsp)
  401319:	00 
  40131a:	48 c7 84 24 f0 11 00 	movq   $0x402e5c,0x11f0(%rsp)
  401321:	00 5c 2e 40 00 
  401326:	c7 84 24 ec 11 00 00 	movl   $0xa,0x11ec(%rsp)
  40132d:	0a 00 00 00 
  401331:	48 c7 84 24 f8 11 00 	movq   $0x402e66,0x11f8(%rsp)
  401338:	00 66 2e 40 00 
  40133d:	c7 84 24 00 12 00 00 	movl   $0x3,0x1200(%rsp)
  401344:	03 00 00 00 
  401348:	c7 84 24 c0 11 00 00 	movl   $0x320,0x11c0(%rsp)
  40134f:	20 03 00 00 
  401353:	c7 84 24 c4 11 00 00 	movl   $0x2,0x11c4(%rsp)
  40135a:	02 00 00 00 
  40135e:	e8 55 f8 ff ff       	callq  400bb8 <_gfortran_st_open@plt>
  401363:	44 8b b4 24 8c 13 00 	mov    0x138c(%rsp),%r14d
  40136a:	00 
  40136b:	45 85 f6             	test   %r14d,%r14d
  40136e:	0f 84 4c 0a 00 00    	je     401dc0 <MAIN__+0xb00>
  401374:	48 8d ac 24 e0 0f 00 	lea    0xfe0(%rsp),%rbp
  40137b:	00 
  40137c:	4c 8d a4 24 00 0e 00 	lea    0xe00(%rsp),%r12
  401383:	00 
  401384:	48 c7 84 24 e8 0f 00 	movq   $0x4030c0,0xfe8(%rsp)
  40138b:	00 c0 30 40 00 
  401390:	c7 84 24 f0 0f 00 00 	movl   $0x65,0xff0(%rsp)
  401397:	65 00 00 00 
  40139b:	48 c7 84 24 28 10 00 	movq   $0x402e70,0x1028(%rsp)
  4013a2:	00 70 2e 40 00 
  4013a7:	45 31 ed             	xor    %r13d,%r13d
  4013aa:	48 89 ef             	mov    %rbp,%rdi
  4013ad:	c7 84 24 30 10 00 00 	movl   $0x5b,0x1030(%rsp)
  4013b4:	5b 00 00 00 
  4013b8:	c7 84 24 e0 0f 00 00 	movl   $0x1000,0xfe0(%rsp)
  4013bf:	00 10 00 00 
  4013c3:	c7 84 24 e4 0f 00 00 	movl   $0x6,0xfe4(%rsp)
  4013ca:	06 00 00 00 
  4013ce:	e8 e5 f8 ff ff       	callq  400cb8 <_gfortran_st_write@plt>
  4013d3:	48 89 ef             	mov    %rbp,%rdi
  4013d6:	48 8d ac 24 10 13 00 	lea    0x1310(%rsp),%rbp
  4013dd:	00 
  4013de:	e8 e5 f7 ff ff       	callq  400bc8 <_gfortran_st_write_done@plt>
  4013e3:	4c 89 e7             	mov    %r12,%rdi
  4013e6:	48 89 ac 24 60 0e 00 	mov    %rbp,0xe60(%rsp)
  4013ed:	00 
  4013ee:	48 c7 84 24 08 0e 00 	movq   $0x4030c0,0xe08(%rsp)
  4013f5:	00 c0 30 40 00 
  4013fa:	c7 84 24 10 0e 00 00 	movl   $0x66,0xe10(%rsp)
  401401:	66 00 00 00 
  401405:	c7 84 24 68 0e 00 00 	movl   $0xf,0xe68(%rsp)
  40140c:	0f 00 00 00 
  401410:	48 c7 84 24 40 0e 00 	movq   $0x0,0xe40(%rsp)
  401417:	00 00 00 00 00 
  40141c:	c7 84 24 04 0e 00 00 	movl   $0x0,0xe04(%rsp)
  401423:	00 00 00 00 
  401427:	48 c7 84 24 48 0e 00 	movq   $0x402ecb,0xe48(%rsp)
  40142e:	00 cb 2e 40 00 
  401433:	c7 84 24 50 0e 00 00 	movl   $0x7,0xe50(%rsp)
  40143a:	07 00 00 00 
  40143e:	c7 84 24 00 0e 00 00 	movl   $0x5000,0xe00(%rsp)
  401445:	00 50 00 00 
  401449:	e8 6a f8 ff ff       	callq  400cb8 <_gfortran_st_write@plt>
  40144e:	ba 08 00 00 00       	mov    $0x8,%edx
  401453:	be d8 2e 40 00       	mov    $0x402ed8,%esi
  401458:	4c 89 e7             	mov    %r12,%rdi
  40145b:	e8 78 f8 ff ff       	callq  400cd8 <_gfortran_transfer_real@plt>
  401460:	4c 89 e7             	mov    %r12,%rdi
  401463:	4c 8d a4 24 20 0c 00 	lea    0xc20(%rsp),%r12
  40146a:	00 
  40146b:	e8 58 f7 ff ff       	callq  400bc8 <_gfortran_st_write_done@plt>
  401470:	80 bc 24 1e 13 00 00 	cmpb   $0x2e,0x131e(%rsp)
  401477:	2e 
  401478:	4c 89 e7             	mov    %r12,%rdi
  40147b:	48 c7 84 24 28 0c 00 	movq   $0x4030c0,0xc28(%rsp)
  401482:	00 c0 30 40 00 
  401487:	c7 84 24 30 0c 00 00 	movl   $0x69,0xc30(%rsp)
  40148e:	69 00 00 00 
  401492:	48 c7 84 24 68 0c 00 	movq   $0x402ee0,0xc68(%rsp)
  401499:	00 e0 2e 40 00 
  40149e:	c7 84 24 70 0c 00 00 	movl   $0x2e,0xc70(%rsp)
  4014a5:	2e 00 00 00 
  4014a9:	c7 84 24 20 0c 00 00 	movl   $0x1000,0xc20(%rsp)
  4014b0:	00 10 00 00 
  4014b4:	c7 84 24 24 0c 00 00 	movl   $0x6,0xc24(%rsp)
  4014bb:	06 00 00 00 
  4014bf:	41 0f 95 c5          	setne  %r13b
  4014c3:	41 83 c5 0e          	add    $0xe,%r13d
  4014c7:	e8 ec f7 ff ff       	callq  400cb8 <_gfortran_st_write@plt>
  4014cc:	44 89 ea             	mov    %r13d,%edx
  4014cf:	48 89 ee             	mov    %rbp,%rsi
  4014d2:	4c 89 e7             	mov    %r12,%rdi
  4014d5:	48 8d ac 24 40 0a 00 	lea    0xa40(%rsp),%rbp
  4014dc:	00 
  4014dd:	49 bd 00 00 40 e5 9c 	mov    $0x41d2309ce5400000,%r13
  4014e4:	30 d2 41 
  4014e7:	e8 8c f7 ff ff       	callq  400c78 <_gfortran_transfer_character@plt>
  4014ec:	4c 89 e7             	mov    %r12,%rdi
  4014ef:	49 bc 00 00 40 e5 9c 	mov    $0x41d2309ce5400000,%r12
  4014f6:	30 d2 41 
  4014f9:	e8 ca f6 ff ff       	callq  400bc8 <_gfortran_st_write_done@plt>
  4014fe:	48 89 ef             	mov    %rbp,%rdi
  401501:	48 c7 84 24 48 0a 00 	movq   $0x4030c0,0xa48(%rsp)
  401508:	00 c0 30 40 00 
  40150d:	c7 84 24 50 0a 00 00 	movl   $0x6a,0xa50(%rsp)
  401514:	6a 00 00 00 
  401518:	48 c7 84 24 88 0a 00 	movq   $0x402f10,0xa88(%rsp)
  40151f:	00 10 2f 40 00 
  401524:	c7 84 24 90 0a 00 00 	movl   $0x31,0xa90(%rsp)
  40152b:	31 00 00 00 
  40152f:	c7 84 24 40 0a 00 00 	movl   $0x1000,0xa40(%rsp)
  401536:	00 10 00 00 
  40153a:	c7 84 24 44 0a 00 00 	movl   $0x6,0xa44(%rsp)
  401541:	06 00 00 00 
  401545:	e8 6e f7 ff ff       	callq  400cb8 <_gfortran_st_write@plt>
  40154a:	31 c0                	xor    %eax,%eax
  40154c:	e8 77 f7 ff ff       	callq  400cc8 <omp_get_max_threads_@plt>
  401551:	48 8d b4 24 7c 13 00 	lea    0x137c(%rsp),%rsi
  401558:	00 
  401559:	ba 04 00 00 00       	mov    $0x4,%edx
  40155e:	48 89 ef             	mov    %rbp,%rdi
  401561:	89 84 24 7c 13 00 00 	mov    %eax,0x137c(%rsp)
  401568:	e8 db f6 ff ff       	callq  400c48 <_gfortran_transfer_integer@plt>
  40156d:	48 89 ef             	mov    %rbp,%rdi
  401570:	48 8d ac 24 60 08 00 	lea    0x860(%rsp),%rbp
  401577:	00 
  401578:	e8 4b f6 ff ff       	callq  400bc8 <_gfortran_st_write_done@plt>
  40157d:	48 89 ef             	mov    %rbp,%rdi
  401580:	48 c7 84 24 68 08 00 	movq   $0x4030c0,0x868(%rsp)
  401587:	00 c0 30 40 00 
  40158c:	c7 84 24 70 08 00 00 	movl   $0x6b,0x870(%rsp)
  401593:	6b 00 00 00 
  401597:	c7 84 24 60 08 00 00 	movl   $0x80,0x860(%rsp)
  40159e:	80 00 00 00 
  4015a2:	c7 84 24 64 08 00 00 	movl   $0x6,0x864(%rsp)
  4015a9:	06 00 00 00 
  4015ad:	e8 06 f7 ff ff       	callq  400cb8 <_gfortran_st_write@plt>
  4015b2:	48 89 ef             	mov    %rbp,%rdi
  4015b5:	e8 0e f6 ff ff       	callq  400bc8 <_gfortran_st_write_done@plt>
  4015ba:	b9 70 3b 60 00       	mov    $0x603b70,%ecx
  4015bf:	ba 68 3b 60 00       	mov    $0x603b68,%edx
  4015c4:	be 60 3b 60 00       	mov    $0x603b60,%esi
  4015c9:	bf 44 2f 40 00       	mov    $0x402f44,%edi
  4015ce:	31 c0                	xor    %eax,%eax
  4015d0:	c7 84 24 80 13 00 00 	movl   $0x0,0x1380(%rsp)
  4015d7:	00 00 00 00 
  4015db:	e8 80 15 00 00       	callq  402b60 <vranlc_>
  4015e0:	31 c0                	xor    %eax,%eax
  4015e2:	be 70 3b 60 00       	mov    $0x603b70,%esi
  4015e7:	bf 68 3b 60 00       	mov    $0x603b68,%edi
  4015ec:	e8 2f 15 00 00       	callq  402b20 <randlc_>
  4015f1:	31 d2                	xor    %edx,%edx
  4015f3:	31 f6                	xor    %esi,%esi
  4015f5:	bf 20 0e 40 00       	mov    $0x400e20,%edi
  4015fa:	f2 0f 11 05 5e 25 20 	movsd  %xmm0,0x20255e(%rip)        # 603b60 <dum.1546>
  401601:	00 
  401602:	e8 e1 f6 ff ff       	callq  400ce8 <GOMP_parallel_start@plt>
  401607:	31 ff                	xor    %edi,%edi
  401609:	e8 12 f8 ff ff       	callq  400e20 <MAIN__.omp_fn.0>
  40160e:	e8 95 f6 ff ff       	callq  400ca8 <GOMP_parallel_end@plt>
  401613:	89 9c 24 70 13 00 00 	mov    %ebx,0x1370(%rsp)
  40161a:	48 8d 9c 24 70 13 00 	lea    0x1370(%rsp),%rbx
  401621:	00 
  401622:	31 d2                	xor    %edx,%edx
  401624:	bf 60 0e 40 00       	mov    $0x400e60,%edi
  401629:	48 c7 84 24 60 13 00 	movq   $0x0,0x1360(%rsp)
  401630:	00 00 00 00 00 
  401635:	48 89 de             	mov    %rbx,%rsi
  401638:	e8 ab f6 ff ff       	callq  400ce8 <GOMP_parallel_start@plt>
  40163d:	48 89 df             	mov    %rbx,%rdi
  401640:	48 8d 9c 24 48 13 00 	lea    0x1348(%rsp),%rbx
  401647:	00 
  401648:	e8 13 f8 ff ff       	callq  400e60 <MAIN__.omp_fn.1>
  40164d:	e8 56 f6 ff ff       	callq  400ca8 <GOMP_parallel_end@plt>
  401652:	bf 40 2e 40 00       	mov    $0x402e40,%edi
  401657:	31 c0                	xor    %eax,%eax
  401659:	8b ac 24 70 13 00 00 	mov    0x1370(%rsp),%ebp
  401660:	e8 fb 15 00 00       	callq  402c60 <timer_start_>
  401665:	64 48 8b 0c 25 00 00 	mov    %fs:0x0,%rcx
  40166c:	00 00 
  40166e:	ba 50 2e 40 00       	mov    $0x402e50,%edx
  401673:	48 89 de             	mov    %rbx,%rsi
  401676:	bf 44 2f 40 00       	mov    $0x402f44,%edi
  40167b:	31 c0                	xor    %eax,%eax
  40167d:	4c 89 ac 24 48 13 00 	mov    %r13,0x1348(%rsp)
  401684:	00 
  401685:	48 81 c1 b0 fb ef ff 	add    $0xffffffffffeffbb0,%rcx
  40168c:	e8 cf 14 00 00       	callq  402b60 <vranlc_>
  401691:	4c 89 a4 24 48 13 00 	mov    %r12,0x1348(%rsp)
  401698:	00 
  401699:	c7 84 24 88 13 00 00 	movl   $0x1,0x1388(%rsp)
  4016a0:	01 00 00 00 
  4016a4:	31 c0                	xor    %eax,%eax
  4016a6:	48 89 de             	mov    %rbx,%rsi
  4016a9:	48 89 df             	mov    %rbx,%rdi
  4016ac:	e8 6f 14 00 00       	callq  402b20 <randlc_>
  4016b1:	8b 84 24 88 13 00 00 	mov    0x1388(%rsp),%eax
  4016b8:	8d 50 01             	lea    0x1(%rax),%edx
  4016bb:	83 f8 11             	cmp    $0x11,%eax
  4016be:	89 94 24 88 13 00 00 	mov    %edx,0x1388(%rsp)
  4016c5:	75 dd                	jne    4016a4 <MAIN__+0x3e4>
  4016c7:	66 0f 57 c0          	xorpd  %xmm0,%xmm0
  4016cb:	48 8b 84 24 48 13 00 	mov    0x1348(%rsp),%rax
  4016d2:	00 
  4016d3:	48 8d 9c 24 e0 12 00 	lea    0x12e0(%rsp),%rbx
  4016da:	00 
  4016db:	4c 8d ac 24 58 13 00 	lea    0x1358(%rsp),%r13
  4016e2:	00 
  4016e3:	4c 8d a4 24 50 13 00 	lea    0x1350(%rsp),%r12
  4016ea:	00 
  4016eb:	49 bb 00 00 00 d7 c4 	mov    $0x41b033c4d7000000,%r11
  4016f2:	33 b0 41 
  4016f5:	31 d2                	xor    %edx,%edx
  4016f7:	bf a0 0e 40 00       	mov    $0x400ea0,%edi
  4016fc:	48 89 de             	mov    %rbx,%rsi
  4016ff:	4c 89 9c 24 38 13 00 	mov    %r11,0x1338(%rsp)
  401706:	00 
  401707:	48 89 84 24 e0 12 00 	mov    %rax,0x12e0(%rsp)
  40170e:	00 
  40170f:	66 0f 29 05 89 24 20 	movapd %xmm0,0x202489(%rip)        # 603ba0 <sharedq_>
  401716:	00 
  401717:	48 c7 84 24 58 13 00 	movq   $0x0,0x1358(%rsp)
  40171e:	00 00 00 00 00 
  401723:	48 c7 84 24 50 13 00 	movq   $0x0,0x1350(%rsp)
  40172a:	00 00 00 00 00 
  40172f:	66 0f 29 05 79 24 20 	movapd %xmm0,0x202479(%rip)        # 603bb0 <sharedq_+0x10>
  401736:	00 
  401737:	66 0f 29 05 81 24 20 	movapd %xmm0,0x202481(%rip)        # 603bc0 <sharedq_+0x20>
  40173e:	00 
  40173f:	66 0f 29 05 89 24 20 	movapd %xmm0,0x202489(%rip)        # 603bd0 <sharedq_+0x30>
  401746:	00 
  401747:	66 0f 29 05 91 24 20 	movapd %xmm0,0x202491(%rip)        # 603be0 <sharedq_+0x40>
  40174e:	00 
  40174f:	c7 84 24 88 13 00 00 	movl   $0xa,0x1388(%rsp)
  401756:	0a 00 00 00 
  40175a:	4c 89 ac 24 e8 12 00 	mov    %r13,0x12e8(%rsp)
  401761:	00 
  401762:	4c 89 a4 24 f0 12 00 	mov    %r12,0x12f0(%rsp)
  401769:	00 
  40176a:	c7 84 24 f8 12 00 00 	movl   $0xffffffff,0x12f8(%rsp)
  401771:	ff ff ff ff 
  401775:	c7 84 24 fc 12 00 00 	movl   $0x200,0x12fc(%rsp)
  40177c:	00 02 00 00 
  401780:	89 ac 24 00 13 00 00 	mov    %ebp,0x1300(%rsp)
  401787:	48 c7 84 24 68 13 00 	movq   $0x0,0x1368(%rsp)
  40178e:	00 00 00 00 00 
  401793:	e8 50 f5 ff ff       	callq  400ce8 <GOMP_parallel_start@plt>
  401798:	48 89 df             	mov    %rbx,%rdi
  40179b:	e8 00 f7 ff ff       	callq  400ea0 <MAIN__.omp_fn.2>
  4017a0:	e8 03 f5 ff ff       	callq  400ca8 <GOMP_parallel_end@plt>
  4017a5:	f2 0f 10 84 24 68 13 	movsd  0x1368(%rsp),%xmm0
  4017ac:	00 00 
  4017ae:	31 c0                	xor    %eax,%eax
  4017b0:	bf 40 2e 40 00       	mov    $0x402e40,%edi
  4017b5:	8b 9c 24 00 13 00 00 	mov    0x1300(%rsp),%ebx
  4017bc:	c7 84 24 88 13 00 00 	movl   $0xa,0x1388(%rsp)
  4017c3:	0a 00 00 00 
  4017c7:	f2 0f 58 05 d1 23 20 	addsd  0x2023d1(%rip),%xmm0        # 603ba0 <sharedq_>
  4017ce:	00 
  4017cf:	f2 0f 58 05 d1 23 20 	addsd  0x2023d1(%rip),%xmm0        # 603ba8 <sharedq_+0x8>
  4017d6:	00 
  4017d7:	f2 0f 58 05 d1 23 20 	addsd  0x2023d1(%rip),%xmm0        # 603bb0 <sharedq_+0x10>
  4017de:	00 
  4017df:	f2 0f 58 05 d1 23 20 	addsd  0x2023d1(%rip),%xmm0        # 603bb8 <sharedq_+0x18>
  4017e6:	00 
  4017e7:	f2 0f 58 05 d1 23 20 	addsd  0x2023d1(%rip),%xmm0        # 603bc0 <sharedq_+0x20>
  4017ee:	00 
  4017ef:	f2 0f 58 05 d1 23 20 	addsd  0x2023d1(%rip),%xmm0        # 603bc8 <sharedq_+0x28>
  4017f6:	00 
  4017f7:	f2 0f 58 05 d1 23 20 	addsd  0x2023d1(%rip),%xmm0        # 603bd0 <sharedq_+0x30>
  4017fe:	00 
  4017ff:	f2 0f 58 05 d1 23 20 	addsd  0x2023d1(%rip),%xmm0        # 603bd8 <sharedq_+0x38>
  401806:	00 
  401807:	f2 0f 58 05 d1 23 20 	addsd  0x2023d1(%rip),%xmm0        # 603be0 <sharedq_+0x40>
  40180e:	00 
  40180f:	f2 0f 58 05 d1 23 20 	addsd  0x2023d1(%rip),%xmm0        # 603be8 <sharedq_+0x48>
  401816:	00 
  401817:	f2 0f 11 84 24 68 13 	movsd  %xmm0,0x1368(%rsp)
  40181e:	00 00 
  401820:	e8 fb 13 00 00       	callq  402c20 <timer_stop_>
  401825:	31 c0                	xor    %eax,%eax
  401827:	bf 40 2e 40 00       	mov    $0x402e40,%edi
  40182c:	e8 cf 13 00 00       	callq  402c00 <timer_read_>
  401831:	f2 0f 10 0d c7 18 00 	movsd  0x18c7(%rip),%xmm1        # 403100 <options.0.1576+0x60>
  401838:	00 
  401839:	31 c0                	xor    %eax,%eax
  40183b:	f2 0f 10 15 9d 18 00 	movsd  0x189d(%rip),%xmm2        # 4030e0 <options.0.1576+0x40>
  401842:	00 
  401843:	c7 84 24 84 13 00 00 	movl   $0x0,0x1384(%rsp)
  40184a:	00 00 00 00 
  40184e:	f2 0f 58 8c 24 58 13 	addsd  0x1358(%rsp),%xmm1
  401855:	00 00 
  401857:	f2 0f 11 84 24 40 13 	movsd  %xmm0,0x1340(%rsp)
  40185e:	00 00 
  401860:	f2 0f 10 9c 24 50 13 	movsd  0x1350(%rsp),%xmm3
  401867:	00 00 
  401869:	f2 0f 5e 0d 97 18 00 	divsd  0x1897(%rip),%xmm1        # 403108 <options.0.1576+0x68>
  401870:	00 
  401871:	66 0f 54 ca          	andpd  %xmm2,%xmm1
  401875:	66 0f 2e 0d 93 18 00 	ucomisd 0x1893(%rip),%xmm1        # 403110 <options.0.1576+0x70>
  40187c:	00 
  40187d:	77 2b                	ja     4018aa <MAIN__+0x5ea>
  40187f:	7a 29                	jp     4018aa <MAIN__+0x5ea>
  401881:	f2 0f 10 0d 8f 18 00 	movsd  0x188f(%rip),%xmm1        # 403118 <options.0.1576+0x78>
  401888:	00 
  401889:	31 c0                	xor    %eax,%eax
  40188b:	f2 0f 58 cb          	addsd  %xmm3,%xmm1
  40188f:	f2 0f 5e 0d 89 18 00 	divsd  0x1889(%rip),%xmm1        # 403120 <options.0.1576+0x80>
  401896:	00 
  401897:	66 0f 54 ca          	andpd  %xmm2,%xmm1
  40189b:	f2 0f 10 15 6d 18 00 	movsd  0x186d(%rip),%xmm2        # 403110 <options.0.1576+0x70>
  4018a2:	00 
  4018a3:	66 0f 2e d1          	ucomisd %xmm1,%xmm2
  4018a7:	0f 93 c0             	setae  %al
  4018aa:	f2 0f 10 0d 76 18 00 	movsd  0x1876(%rip),%xmm1        # 403128 <options.0.1576+0x88>
  4018b1:	00 
  4018b2:	4c 8d b4 24 80 06 00 	lea    0x680(%rsp),%r14
  4018b9:	00 
  4018ba:	48 8d ac 24 40 13 00 	lea    0x1340(%rsp),%rbp
  4018c1:	00 
  4018c2:	89 84 24 80 13 00 00 	mov    %eax,0x1380(%rsp)
  4018c9:	48 c7 84 24 88 06 00 	movq   $0x4030c0,0x688(%rsp)
  4018d0:	00 c0 30 40 00 
  4018d5:	f2 0f 5e c8          	divsd  %xmm0,%xmm1
  4018d9:	4c 89 f7             	mov    %r14,%rdi
  4018dc:	c7 84 24 90 06 00 00 	movl   $0x111,0x690(%rsp)
  4018e3:	11 01 00 00 
  4018e7:	48 c7 84 24 c8 06 00 	movq   $0x402f48,0x6c8(%rsp)
  4018ee:	00 48 2f 40 00 
  4018f3:	c7 84 24 d0 06 00 00 	movl   $0x9d,0x6d0(%rsp)
  4018fa:	9d 00 00 00 
  4018fe:	c7 84 24 80 06 00 00 	movl   $0x1000,0x680(%rsp)
  401905:	00 10 00 00 
  401909:	c7 84 24 84 06 00 00 	movl   $0x6,0x684(%rsp)
  401910:	06 00 00 00 
  401914:	f2 0f 5e 0d 14 18 00 	divsd  0x1814(%rip),%xmm1        # 403130 <options.0.1576+0x90>
  40191b:	00 
  40191c:	f2 0f 11 8c 24 60 13 	movsd  %xmm1,0x1360(%rsp)
  401923:	00 00 
  401925:	e8 8e f3 ff ff       	callq  400cb8 <_gfortran_st_write@plt>
  40192a:	ba 08 00 00 00       	mov    $0x8,%edx
  40192f:	48 89 ee             	mov    %rbp,%rsi
  401932:	4c 89 f7             	mov    %r14,%rdi
  401935:	e8 9e f3 ff ff       	callq  400cd8 <_gfortran_transfer_real@plt>
  40193a:	ba 04 00 00 00       	mov    $0x4,%edx
  40193f:	be e8 2f 40 00       	mov    $0x402fe8,%esi
  401944:	4c 89 f7             	mov    %r14,%rdi
  401947:	e8 fc f2 ff ff       	callq  400c48 <_gfortran_transfer_integer@plt>
  40194c:	48 8d b4 24 68 13 00 	lea    0x1368(%rsp),%rsi
  401953:	00 
  401954:	ba 08 00 00 00       	mov    $0x8,%edx
  401959:	4c 89 f7             	mov    %r14,%rdi
  40195c:	e8 77 f3 ff ff       	callq  400cd8 <_gfortran_transfer_real@plt>
  401961:	ba 08 00 00 00       	mov    $0x8,%edx
  401966:	4c 89 ee             	mov    %r13,%rsi
  401969:	4c 89 f7             	mov    %r14,%rdi
  40196c:	e8 67 f3 ff ff       	callq  400cd8 <_gfortran_transfer_real@plt>
  401971:	4c 89 e6             	mov    %r12,%rsi
  401974:	ba 08 00 00 00       	mov    $0x8,%edx
  401979:	4c 89 f7             	mov    %r14,%rdi
  40197c:	4c 8d a4 24 88 13 00 	lea    0x1388(%rsp),%r12
  401983:	00 
  401984:	e8 4f f3 ff ff       	callq  400cd8 <_gfortran_transfer_real@plt>
  401989:	c7 84 24 88 13 00 00 	movl   $0x0,0x1388(%rsp)
  401990:	00 00 00 00 
  401994:	0f 1f 40 00          	nopl   0x0(%rax)
  401998:	ba 04 00 00 00       	mov    $0x4,%edx
  40199d:	4c 89 e6             	mov    %r12,%rsi
  4019a0:	4c 89 f7             	mov    %r14,%rdi
  4019a3:	e8 a0 f2 ff ff       	callq  400c48 <_gfortran_transfer_integer@plt>
  4019a8:	48 63 84 24 88 13 00 	movslq 0x1388(%rsp),%rax
  4019af:	00 
  4019b0:	ba 08 00 00 00       	mov    $0x8,%edx
  4019b5:	4c 89 f7             	mov    %r14,%rdi
  4019b8:	48 8d 34 c5 a0 3b 60 	lea    0x603ba0(,%rax,8),%rsi
  4019bf:	00 
  4019c0:	e8 13 f3 ff ff       	callq  400cd8 <_gfortran_transfer_real@plt>
  4019c5:	8b 84 24 88 13 00 00 	mov    0x1388(%rsp),%eax
  4019cc:	8d 50 01             	lea    0x1(%rax),%edx
  4019cf:	83 f8 09             	cmp    $0x9,%eax
  4019d2:	89 94 24 88 13 00 00 	mov    %edx,0x1388(%rsp)
  4019d9:	75 bd                	jne    401998 <MAIN__+0x6d8>
  4019db:	4c 89 f7             	mov    %r14,%rdi
  4019de:	e8 e5 f1 ff ff       	callq  400bc8 <_gfortran_st_write_done@plt>
  4019e3:	48 8d 84 24 80 13 00 	lea    0x1380(%rsp),%rax
  4019ea:	00 
  4019eb:	41 b8 44 2f 40 00    	mov    $0x402f44,%r8d
  4019f1:	4c 8d 8c 24 84 13 00 	lea    0x1384(%rsp),%r9
  4019f8:	00 
  4019f9:	4c 89 c1             	mov    %r8,%rcx
  4019fc:	ba ec 2f 40 00       	mov    $0x402fec,%edx
  401a01:	be f0 2f 40 00       	mov    $0x402ff0,%esi
  401a06:	48 89 44 24 18       	mov    %rax,0x18(%rsp)
  401a0b:	48 8d 84 24 60 13 00 	lea    0x1360(%rsp),%rax
  401a12:	00 
  401a13:	bf f1 2f 40 00       	mov    $0x402ff1,%edi
  401a18:	c7 84 24 c0 00 00 00 	movl   $0x6,0xc0(%rsp)
  401a1f:	06 00 00 00 
  401a23:	c7 84 24 b8 00 00 00 	movl   $0xc,0xb8(%rsp)
  401a2a:	0c 00 00 00 
  401a2e:	48 89 44 24 08       	mov    %rax,0x8(%rsp)
  401a33:	31 c0                	xor    %eax,%eax
  401a35:	c7 84 24 b0 00 00 00 	movl   $0xc,0xb0(%rsp)
  401a3c:	0c 00 00 00 
  401a40:	c7 84 24 a8 00 00 00 	movl   $0x6,0xa8(%rsp)
  401a47:	06 00 00 00 
  401a4b:	c7 84 24 a0 00 00 00 	movl   $0x6,0xa0(%rsp)
  401a52:	06 00 00 00 
  401a56:	c7 84 24 98 00 00 00 	movl   $0x6,0x98(%rsp)
  401a5d:	06 00 00 00 
  401a61:	c7 84 24 90 00 00 00 	movl   $0xd,0x90(%rsp)
  401a68:	0d 00 00 00 
  401a6c:	c7 84 24 88 00 00 00 	movl   $0xb,0x88(%rsp)
  401a73:	0b 00 00 00 
  401a77:	c7 84 24 80 00 00 00 	movl   $0x5,0x80(%rsp)
  401a7e:	05 00 00 00 
  401a82:	c7 44 24 78 18 00 00 	movl   $0x18,0x78(%rsp)
  401a89:	00 
  401a8a:	c7 44 24 70 01 00 00 	movl   $0x1,0x70(%rsp)
  401a91:	00 
  401a92:	c7 44 24 68 02 00 00 	movl   $0x2,0x68(%rsp)
  401a99:	00 
  401a9a:	48 c7 44 24 60 f3 2f 	movq   $0x402ff3,0x60(%rsp)
  401aa1:	40 00 
  401aa3:	48 c7 44 24 58 f9 2f 	movq   $0x402ff9,0x58(%rsp)
  401aaa:	40 00 
  401aac:	48 c7 44 24 50 f9 2f 	movq   $0x402ff9,0x50(%rsp)
  401ab3:	40 00 
  401ab5:	48 c7 44 24 48 05 30 	movq   $0x403005,0x48(%rsp)
  401abc:	40 00 
  401abe:	48 c7 44 24 40 05 30 	movq   $0x403005,0x40(%rsp)
  401ac5:	40 00 
  401ac7:	48 c7 44 24 38 0b 30 	movq   $0x40300b,0x38(%rsp)
  401ace:	40 00 
  401ad0:	48 c7 44 24 30 11 30 	movq   $0x403011,0x30(%rsp)
  401ad7:	40 00 
  401ad9:	48 c7 44 24 28 1e 30 	movq   $0x40301e,0x28(%rsp)
  401ae0:	40 00 
  401ae2:	48 c7 44 24 20 29 30 	movq   $0x403029,0x20(%rsp)
  401ae9:	40 00 
  401aeb:	48 c7 44 24 10 2e 30 	movq   $0x40302e,0x10(%rsp)
  401af2:	40 00 
  401af4:	48 89 2c 24          	mov    %rbp,(%rsp)
  401af8:	e8 33 03 00 00       	callq  401e30 <print_results_>
  401afd:	85 db                	test   %ebx,%ebx
  401aff:	0f 84 8f 02 00 00    	je     401d94 <MAIN__+0xad4>
  401b05:	66 0f 57 c0          	xorpd  %xmm0,%xmm0
  401b09:	66 0f 2e 84 24 40 13 	ucomisd 0x1340(%rsp),%xmm0
  401b10:	00 00 
  401b12:	0f 83 90 02 00 00    	jae    401da8 <MAIN__+0xae8>
  401b18:	48 8d ac 24 a0 04 00 	lea    0x4a0(%rsp),%rbp
  401b1f:	00 
  401b20:	31 c0                	xor    %eax,%eax
  401b22:	bf 40 2e 40 00       	mov    $0x402e40,%edi
  401b27:	e8 d4 10 00 00       	callq  402c00 <timer_read_>
  401b2c:	48 8d 9c 24 38 13 00 	lea    0x1338(%rsp),%rbx
  401b33:	00 
  401b34:	48 89 ef             	mov    %rbp,%rdi
  401b37:	f2 0f 11 84 24 38 13 	movsd  %xmm0,0x1338(%rsp)
  401b3e:	00 00 
  401b40:	48 c7 84 24 a8 04 00 	movq   $0x4030c0,0x4a8(%rsp)
  401b47:	00 c0 30 40 00 
  401b4c:	c7 84 24 b0 04 00 00 	movl   $0x120,0x4b0(%rsp)
  401b53:	20 01 00 00 
  401b57:	48 c7 84 24 e8 04 00 	movq   $0x403046,0x4e8(%rsp)
  401b5e:	00 46 30 40 00 
  401b63:	c7 84 24 f0 04 00 00 	movl   $0x1a,0x4f0(%rsp)
  401b6a:	1a 00 00 00 
  401b6e:	c7 84 24 a0 04 00 00 	movl   $0x1000,0x4a0(%rsp)
  401b75:	00 10 00 00 
  401b79:	c7 84 24 a4 04 00 00 	movl   $0x6,0x4a4(%rsp)
  401b80:	06 00 00 00 
  401b84:	e8 2f f1 ff ff       	callq  400cb8 <_gfortran_st_write@plt>
  401b89:	48 89 ef             	mov    %rbp,%rdi
  401b8c:	ba 0f 00 00 00       	mov    $0xf,%edx
  401b91:	be 60 30 40 00       	mov    $0x403060,%esi
  401b96:	e8 dd f0 ff ff       	callq  400c78 <_gfortran_transfer_character@plt>
  401b9b:	48 89 ef             	mov    %rbp,%rdi
  401b9e:	ba 08 00 00 00       	mov    $0x8,%edx
  401ba3:	48 89 de             	mov    %rbx,%rsi
  401ba6:	e8 2d f1 ff ff       	callq  400cd8 <_gfortran_transfer_real@plt>
  401bab:	f2 0f 10 0d 85 15 00 	movsd  0x1585(%rip),%xmm1        # 403138 <options.0.1576+0x98>
  401bb2:	00 
  401bb3:	48 8d b4 24 30 13 00 	lea    0x1330(%rsp),%rsi
  401bba:	00 
  401bbb:	f2 0f 10 84 24 38 13 	movsd  0x1338(%rsp),%xmm0
  401bc2:	00 00 
  401bc4:	ba 08 00 00 00       	mov    $0x8,%edx
  401bc9:	48 89 ef             	mov    %rbp,%rdi
  401bcc:	f2 0f 11 8c 24 d0 00 	movsd  %xmm1,0xd0(%rsp)
  401bd3:	00 00 
  401bd5:	f2 0f 59 c1          	mulsd  %xmm1,%xmm0
  401bd9:	f2 0f 5e 84 24 40 13 	divsd  0x1340(%rsp),%xmm0
  401be0:	00 00 
  401be2:	f2 0f 11 84 24 30 13 	movsd  %xmm0,0x1330(%rsp)
  401be9:	00 00 
  401beb:	e8 e8 f0 ff ff       	callq  400cd8 <_gfortran_transfer_real@plt>
  401bf0:	48 89 ef             	mov    %rbp,%rdi
  401bf3:	48 8d ac 24 c0 02 00 	lea    0x2c0(%rsp),%rbp
  401bfa:	00 
  401bfb:	e8 c8 ef ff ff       	callq  400bc8 <_gfortran_st_write_done@plt>
  401c00:	31 c0                	xor    %eax,%eax
  401c02:	bf 48 2e 40 00       	mov    $0x402e48,%edi
  401c07:	e8 f4 0f 00 00       	callq  402c00 <timer_read_>
  401c0c:	48 89 ef             	mov    %rbp,%rdi
  401c0f:	f2 0f 11 84 24 38 13 	movsd  %xmm0,0x1338(%rsp)
  401c16:	00 00 
  401c18:	48 c7 84 24 c8 02 00 	movq   $0x4030c0,0x2c8(%rsp)
  401c1f:	00 c0 30 40 00 
  401c24:	c7 84 24 d0 02 00 00 	movl   $0x122,0x2d0(%rsp)
  401c2b:	22 01 00 00 
  401c2f:	48 c7 84 24 08 03 00 	movq   $0x403046,0x308(%rsp)
  401c36:	00 46 30 40 00 
  401c3b:	c7 84 24 10 03 00 00 	movl   $0x1a,0x310(%rsp)
  401c42:	1a 00 00 00 
  401c46:	c7 84 24 c0 02 00 00 	movl   $0x1000,0x2c0(%rsp)
  401c4d:	00 10 00 00 
  401c51:	c7 84 24 c4 02 00 00 	movl   $0x6,0x2c4(%rsp)
  401c58:	06 00 00 00 
  401c5c:	e8 57 f0 ff ff       	callq  400cb8 <_gfortran_st_write@plt>
  401c61:	48 89 ef             	mov    %rbp,%rdi
  401c64:	ba 0f 00 00 00       	mov    $0xf,%edx
  401c69:	be 6f 30 40 00       	mov    $0x40306f,%esi
  401c6e:	e8 05 f0 ff ff       	callq  400c78 <_gfortran_transfer_character@plt>
  401c73:	48 89 ef             	mov    %rbp,%rdi
  401c76:	ba 08 00 00 00       	mov    $0x8,%edx
  401c7b:	48 89 de             	mov    %rbx,%rsi
  401c7e:	e8 55 f0 ff ff       	callq  400cd8 <_gfortran_transfer_real@plt>
  401c83:	f2 0f 10 8c 24 d0 00 	movsd  0xd0(%rsp),%xmm1
  401c8a:	00 00 
  401c8c:	48 8d b4 24 28 13 00 	lea    0x1328(%rsp),%rsi
  401c93:	00 
  401c94:	f2 0f 10 84 24 38 13 	movsd  0x1338(%rsp),%xmm0
  401c9b:	00 00 
  401c9d:	ba 08 00 00 00       	mov    $0x8,%edx
  401ca2:	48 89 ef             	mov    %rbp,%rdi
  401ca5:	f2 0f 59 c1          	mulsd  %xmm1,%xmm0
  401ca9:	f2 0f 5e 84 24 40 13 	divsd  0x1340(%rsp),%xmm0
  401cb0:	00 00 
  401cb2:	f2 0f 11 84 24 28 13 	movsd  %xmm0,0x1328(%rsp)
  401cb9:	00 00 
  401cbb:	e8 18 f0 ff ff       	callq  400cd8 <_gfortran_transfer_real@plt>
  401cc0:	48 89 ef             	mov    %rbp,%rdi
  401cc3:	48 8d ac 24 e0 00 00 	lea    0xe0(%rsp),%rbp
  401cca:	00 
  401ccb:	e8 f8 ee ff ff       	callq  400bc8 <_gfortran_st_write_done@plt>
  401cd0:	31 c0                	xor    %eax,%eax
  401cd2:	bf 44 2e 40 00       	mov    $0x402e44,%edi
  401cd7:	e8 24 0f 00 00       	callq  402c00 <timer_read_>
  401cdc:	48 89 ef             	mov    %rbp,%rdi
  401cdf:	f2 0f 11 84 24 38 13 	movsd  %xmm0,0x1338(%rsp)
  401ce6:	00 00 
  401ce8:	48 c7 84 24 e8 00 00 	movq   $0x4030c0,0xe8(%rsp)
  401cef:	00 c0 30 40 00 
  401cf4:	c7 84 24 f0 00 00 00 	movl   $0x124,0xf0(%rsp)
  401cfb:	24 01 00 00 
  401cff:	48 c7 84 24 28 01 00 	movq   $0x403046,0x128(%rsp)
  401d06:	00 46 30 40 00 
  401d0b:	c7 84 24 30 01 00 00 	movl   $0x1a,0x130(%rsp)
  401d12:	1a 00 00 00 
  401d16:	c7 84 24 e0 00 00 00 	movl   $0x1000,0xe0(%rsp)
  401d1d:	00 10 00 00 
  401d21:	c7 84 24 e4 00 00 00 	movl   $0x6,0xe4(%rsp)
  401d28:	06 00 00 00 
  401d2c:	e8 87 ef ff ff       	callq  400cb8 <_gfortran_st_write@plt>
  401d31:	ba 0f 00 00 00       	mov    $0xf,%edx
  401d36:	be 7e 30 40 00       	mov    $0x40307e,%esi
  401d3b:	48 89 ef             	mov    %rbp,%rdi
  401d3e:	e8 35 ef ff ff       	callq  400c78 <_gfortran_transfer_character@plt>
  401d43:	ba 08 00 00 00       	mov    $0x8,%edx
  401d48:	48 89 de             	mov    %rbx,%rsi
  401d4b:	48 89 ef             	mov    %rbp,%rdi
  401d4e:	e8 85 ef ff ff       	callq  400cd8 <_gfortran_transfer_real@plt>
  401d53:	f2 0f 10 8c 24 d0 00 	movsd  0xd0(%rsp),%xmm1
  401d5a:	00 00 
  401d5c:	48 8d b4 24 20 13 00 	lea    0x1320(%rsp),%rsi
  401d63:	00 
  401d64:	48 89 ef             	mov    %rbp,%rdi
  401d67:	ba 08 00 00 00       	mov    $0x8,%edx
  401d6c:	f2 0f 59 8c 24 38 13 	mulsd  0x1338(%rsp),%xmm1
  401d73:	00 00 
  401d75:	f2 0f 5e 8c 24 40 13 	divsd  0x1340(%rsp),%xmm1
  401d7c:	00 00 
  401d7e:	f2 0f 11 8c 24 20 13 	movsd  %xmm1,0x1320(%rsp)
  401d85:	00 00 
  401d87:	e8 4c ef ff ff       	callq  400cd8 <_gfortran_transfer_real@plt>
  401d8c:	48 89 ef             	mov    %rbp,%rdi
  401d8f:	e8 34 ee ff ff       	callq  400bc8 <_gfortran_st_write_done@plt>
  401d94:	48 81 c4 90 13 00 00 	add    $0x1390,%rsp
  401d9b:	5b                   	pop    %rbx
  401d9c:	5d                   	pop    %rbp
  401d9d:	41 5c                	pop    %r12
  401d9f:	41 5d                	pop    %r13
  401da1:	41 5e                	pop    %r14
  401da3:	c3                   	retq   
  401da4:	0f 1f 40 00          	nopl   0x0(%rax)
  401da8:	49 ba 00 00 00 00 00 	mov    $0x3ff0000000000000,%r10
  401daf:	00 f0 3f 
  401db2:	4c 89 94 24 40 13 00 	mov    %r10,0x1340(%rsp)
  401db9:	00 
  401dba:	e9 59 fd ff ff       	jmpq   401b18 <MAIN__+0x858>
  401dbf:	90                   	nop
  401dc0:	48 8d bc 24 a0 12 00 	lea    0x12a0(%rsp),%rdi
  401dc7:	00 
  401dc8:	48 c7 84 24 a8 12 00 	movq   $0x4030c0,0x12a8(%rsp)
  401dcf:	00 c0 30 40 00 
  401dd4:	c7 84 24 b0 12 00 00 	movl   $0x5b,0x12b0(%rsp)
  401ddb:	5b 00 00 00 
  401ddf:	c7 84 24 a0 12 00 00 	movl   $0x0,0x12a0(%rsp)
  401de6:	00 00 00 00 
  401dea:	c7 84 24 a4 12 00 00 	movl   $0x2,0x12a4(%rsp)
  401df1:	02 00 00 00 
  401df5:	b3 01                	mov    $0x1,%bl
  401df7:	e8 5c ee ff ff       	callq  400c58 <_gfortran_st_close@plt>
  401dfc:	e9 73 f5 ff ff       	jmpq   401374 <MAIN__+0xb4>
  401e01:	90                   	nop
  401e02:	90                   	nop
  401e03:	90                   	nop
  401e04:	90                   	nop
  401e05:	90                   	nop
  401e06:	90                   	nop
  401e07:	90                   	nop
  401e08:	90                   	nop
  401e09:	90                   	nop
  401e0a:	90                   	nop
  401e0b:	90                   	nop
  401e0c:	90                   	nop
  401e0d:	90                   	nop
  401e0e:	90                   	nop
  401e0f:	90                   	nop

0000000000401e10 <print_results_.omp_fn.0>:
  401e10:	53                   	push   %rbx
  401e11:	48 89 fb             	mov    %rdi,%rbx
  401e14:	e8 df ed ff ff       	callq  400bf8 <omp_get_thread_num@plt>
  401e19:	85 c0                	test   %eax,%eax
  401e1b:	74 03                	je     401e20 <print_results_.omp_fn.0+0x10>
  401e1d:	5b                   	pop    %rbx
  401e1e:	c3                   	retq   
  401e1f:	90                   	nop
  401e20:	e8 13 ee ff ff       	callq  400c38 <omp_get_num_threads_@plt>
  401e25:	48 8b 13             	mov    (%rbx),%rdx
  401e28:	89 02                	mov    %eax,(%rdx)
  401e2a:	5b                   	pop    %rbx
  401e2b:	c3                   	retq   
  401e2c:	0f 1f 40 00          	nopl   0x0(%rax)

0000000000401e30 <print_results_>:
  401e30:	41 57                	push   %r15
  401e32:	31 c0                	xor    %eax,%eax
  401e34:	49 89 ff             	mov    %rdi,%r15
  401e37:	41 56                	push   %r14
  401e39:	4d 89 ce             	mov    %r9,%r14
  401e3c:	41 55                	push   %r13
  401e3e:	4d 89 c5             	mov    %r8,%r13
  401e41:	41 54                	push   %r12
  401e43:	55                   	push   %rbp
  401e44:	53                   	push   %rbx
  401e45:	48 89 cb             	mov    %rcx,%rbx
  401e48:	48 81 ec 18 31 00 00 	sub    $0x3118,%rsp
  401e4f:	48 89 74 24 10       	mov    %rsi,0x10(%rsp)
  401e54:	48 89 54 24 18       	mov    %rdx,0x18(%rsp)
  401e59:	4c 8d a4 24 08 31 00 	lea    0x3108(%rsp),%r12
  401e60:	00 
  401e61:	48 8b ac 24 58 31 00 	mov    0x3158(%rsp),%rbp
  401e68:	00 
  401e69:	c7 84 24 0c 31 00 00 	movl   $0x1,0x310c(%rsp)
  401e70:	01 00 00 00 
  401e74:	e8 4f ee ff ff       	callq  400cc8 <omp_get_max_threads_@plt>
  401e79:	89 84 24 0c 31 00 00 	mov    %eax,0x310c(%rsp)
  401e80:	48 8d 84 24 f0 30 00 	lea    0x30f0(%rsp),%rax
  401e87:	00 
  401e88:	31 d2                	xor    %edx,%edx
  401e8a:	bf 10 1e 40 00       	mov    $0x401e10,%edi
  401e8f:	c7 84 24 08 31 00 00 	movl   $0x1,0x3108(%rsp)
  401e96:	01 00 00 00 
  401e9a:	4c 89 a4 24 f0 30 00 	mov    %r12,0x30f0(%rsp)
  401ea1:	00 
  401ea2:	48 89 c6             	mov    %rax,%rsi
  401ea5:	48 89 44 24 08       	mov    %rax,0x8(%rsp)
  401eaa:	e8 39 ee ff ff       	callq  400ce8 <GOMP_parallel_start@plt>
  401eaf:	48 8b 44 24 08       	mov    0x8(%rsp),%rax
  401eb4:	48 89 c7             	mov    %rax,%rdi
  401eb7:	e8 54 ff ff ff       	callq  401e10 <print_results_.omp_fn.0>
  401ebc:	e8 e7 ed ff ff       	callq  400ca8 <GOMP_parallel_end@plt>
  401ec1:	48 8d bc 24 00 2f 00 	lea    0x2f00(%rsp),%rdi
  401ec8:	00 
  401ec9:	48 c7 84 24 08 2f 00 	movq   $0x403140,0x2f08(%rsp)
  401ed0:	00 40 31 40 00 
  401ed5:	c7 84 24 10 2f 00 00 	movl   $0x20,0x2f10(%rsp)
  401edc:	20 00 00 00 
  401ee0:	48 c7 84 24 48 2f 00 	movq   $0x403150,0x2f48(%rsp)
  401ee7:	00 50 31 40 00 
  401eec:	c7 84 24 50 2f 00 00 	movl   $0x25,0x2f50(%rsp)
  401ef3:	25 00 00 00 
  401ef7:	c7 84 24 00 2f 00 00 	movl   $0x1000,0x2f00(%rsp)
  401efe:	00 10 00 00 
  401f02:	c7 84 24 04 2f 00 00 	movl   $0x6,0x2f04(%rsp)
  401f09:	06 00 00 00 
  401f0d:	e8 a6 ed ff ff       	callq  400cb8 <_gfortran_st_write@plt>
  401f12:	8b 94 24 b8 31 00 00 	mov    0x31b8(%rsp),%edx
  401f19:	48 8d bc 24 00 2f 00 	lea    0x2f00(%rsp),%rdi
  401f20:	00 
  401f21:	4c 89 fe             	mov    %r15,%rsi
  401f24:	e8 4f ed ff ff       	callq  400c78 <_gfortran_transfer_character@plt>
  401f29:	48 8d bc 24 00 2f 00 	lea    0x2f00(%rsp),%rdi
  401f30:	00 
  401f31:	e8 92 ec ff ff       	callq  400bc8 <_gfortran_st_write_done@plt>
  401f36:	48 8d bc 24 20 2d 00 	lea    0x2d20(%rsp),%rdi
  401f3d:	00 
  401f3e:	48 c7 84 24 28 2d 00 	movq   $0x403140,0x2d28(%rsp)
  401f45:	00 40 31 40 00 
  401f4a:	c7 84 24 30 2d 00 00 	movl   $0x23,0x2d30(%rsp)
  401f51:	23 00 00 00 
  401f55:	48 c7 84 24 68 2d 00 	movq   $0x403178,0x2d68(%rsp)
  401f5c:	00 78 31 40 00 
  401f61:	c7 84 24 70 2d 00 00 	movl   $0x21,0x2d70(%rsp)
  401f68:	21 00 00 00 
  401f6c:	c7 84 24 20 2d 00 00 	movl   $0x1000,0x2d20(%rsp)
  401f73:	00 10 00 00 
  401f77:	c7 84 24 24 2d 00 00 	movl   $0x6,0x2d24(%rsp)
  401f7e:	06 00 00 00 
  401f82:	e8 31 ed ff ff       	callq  400cb8 <_gfortran_st_write@plt>
  401f87:	48 8b 74 24 10       	mov    0x10(%rsp),%rsi
  401f8c:	48 8d bc 24 20 2d 00 	lea    0x2d20(%rsp),%rdi
  401f93:	00 
  401f94:	ba 01 00 00 00       	mov    $0x1,%edx
  401f99:	e8 da ec ff ff       	callq  400c78 <_gfortran_transfer_character@plt>
  401f9e:	48 8d bc 24 20 2d 00 	lea    0x2d20(%rsp),%rdi
  401fa5:	00 
  401fa6:	e8 1d ec ff ff       	callq  400bc8 <_gfortran_st_write_done@plt>
  401fab:	8b 0b                	mov    (%rbx),%ecx
  401fad:	85 c9                	test   %ecx,%ecx
  401faf:	75 0c                	jne    401fbd <print_results_+0x18d>
  401fb1:	41 8b 55 00          	mov    0x0(%r13),%edx
  401fb5:	85 d2                	test   %edx,%edx
  401fb7:	0f 84 83 09 00 00    	je     402940 <print_results_+0xb10>
  401fbd:	4c 8d bc 24 a0 25 00 	lea    0x25a0(%rsp),%r15
  401fc4:	00 
  401fc5:	48 c7 84 24 a8 25 00 	movq   $0x403140,0x25a8(%rsp)
  401fcc:	00 40 31 40 00 
  401fd1:	c7 84 24 b0 25 00 00 	movl   $0x37,0x25b0(%rsp)
  401fd8:	37 00 00 00 
  401fdc:	48 c7 84 24 e8 25 00 	movq   $0x4031e8,0x25e8(%rsp)
  401fe3:	00 e8 31 40 00 
  401fe8:	c7 84 24 f0 25 00 00 	movl   $0x2d,0x25f0(%rsp)
  401fef:	2d 00 00 00 
  401ff3:	4c 89 ff             	mov    %r15,%rdi
  401ff6:	c7 84 24 a0 25 00 00 	movl   $0x1000,0x25a0(%rsp)
  401ffd:	00 10 00 00 
  402001:	c7 84 24 a4 25 00 00 	movl   $0x6,0x25a4(%rsp)
  402008:	06 00 00 00 
  40200c:	e8 a7 ec ff ff       	callq  400cb8 <_gfortran_st_write@plt>
  402011:	48 8b 74 24 18       	mov    0x18(%rsp),%rsi
  402016:	ba 04 00 00 00       	mov    $0x4,%edx
  40201b:	4c 89 ff             	mov    %r15,%rdi
  40201e:	e8 25 ec ff ff       	callq  400c48 <_gfortran_transfer_integer@plt>
  402023:	ba 04 00 00 00       	mov    $0x4,%edx
  402028:	48 89 de             	mov    %rbx,%rsi
  40202b:	4c 89 ff             	mov    %r15,%rdi
  40202e:	e8 15 ec ff ff       	callq  400c48 <_gfortran_transfer_integer@plt>
  402033:	4c 89 ff             	mov    %r15,%rdi
  402036:	ba 04 00 00 00       	mov    $0x4,%edx
  40203b:	4c 89 ee             	mov    %r13,%rsi
  40203e:	e8 05 ec ff ff       	callq  400c48 <_gfortran_transfer_integer@plt>
  402043:	4c 89 ff             	mov    %r15,%rdi
  402046:	e8 7d eb ff ff       	callq  400bc8 <_gfortran_st_write_done@plt>
  40204b:	48 8d 9c 24 c0 23 00 	lea    0x23c0(%rsp),%rbx
  402052:	00 
  402053:	48 c7 84 24 c8 23 00 	movq   $0x403140,0x23c8(%rsp)
  40205a:	00 40 31 40 00 
  40205f:	c7 84 24 d0 23 00 00 	movl   $0x3b,0x23d0(%rsp)
  402066:	3b 00 00 00 
  40206a:	48 c7 84 24 08 24 00 	movq   $0x403218,0x2408(%rsp)
  402071:	00 18 32 40 00 
  402076:	c7 84 24 10 24 00 00 	movl   $0x21,0x2410(%rsp)
  40207d:	21 00 00 00 
  402081:	48 89 df             	mov    %rbx,%rdi
  402084:	c7 84 24 c0 23 00 00 	movl   $0x1000,0x23c0(%rsp)
  40208b:	00 10 00 00 
  40208f:	c7 84 24 c4 23 00 00 	movl   $0x6,0x23c4(%rsp)
  402096:	06 00 00 00 
  40209a:	e8 19 ec ff ff       	callq  400cb8 <_gfortran_st_write@plt>
  40209f:	ba 04 00 00 00       	mov    $0x4,%edx
  4020a4:	4c 89 f6             	mov    %r14,%rsi
  4020a7:	48 89 df             	mov    %rbx,%rdi
  4020aa:	e8 99 eb ff ff       	callq  400c48 <_gfortran_transfer_integer@plt>
  4020af:	48 89 df             	mov    %rbx,%rdi
  4020b2:	48 8d 9c 24 e0 21 00 	lea    0x21e0(%rsp),%rbx
  4020b9:	00 
  4020ba:	e8 09 eb ff ff       	callq  400bc8 <_gfortran_st_write_done@plt>
  4020bf:	48 89 df             	mov    %rbx,%rdi
  4020c2:	48 c7 84 24 e8 21 00 	movq   $0x403140,0x21e8(%rsp)
  4020c9:	00 40 31 40 00 
  4020ce:	c7 84 24 f0 21 00 00 	movl   $0x3e,0x21f0(%rsp)
  4020d5:	3e 00 00 00 
  4020d9:	48 c7 84 24 28 22 00 	movq   $0x403240,0x2228(%rsp)
  4020e0:	00 40 32 40 00 
  4020e5:	c7 84 24 30 22 00 00 	movl   $0x22,0x2230(%rsp)
  4020ec:	22 00 00 00 
  4020f0:	c7 84 24 e0 21 00 00 	movl   $0x1000,0x21e0(%rsp)
  4020f7:	00 10 00 00 
  4020fb:	c7 84 24 e4 21 00 00 	movl   $0x6,0x21e4(%rsp)
  402102:	06 00 00 00 
  402106:	e8 ad eb ff ff       	callq  400cb8 <_gfortran_st_write@plt>
  40210b:	48 8b b4 24 50 31 00 	mov    0x3150(%rsp),%rsi
  402112:	00 
  402113:	ba 08 00 00 00       	mov    $0x8,%edx
  402118:	48 89 df             	mov    %rbx,%rdi
  40211b:	e8 b8 eb ff ff       	callq  400cd8 <_gfortran_transfer_real@plt>
  402120:	48 89 df             	mov    %rbx,%rdi
  402123:	48 8d 9c 24 00 20 00 	lea    0x2000(%rsp),%rbx
  40212a:	00 
  40212b:	e8 98 ea ff ff       	callq  400bc8 <_gfortran_st_write_done@plt>
  402130:	48 89 df             	mov    %rbx,%rdi
  402133:	48 c7 84 24 08 20 00 	movq   $0x403140,0x2008(%rsp)
  40213a:	00 40 31 40 00 
  40213f:	c7 84 24 10 20 00 00 	movl   $0x41,0x2010(%rsp)
  402146:	41 00 00 00 
  40214a:	48 c7 84 24 48 20 00 	movq   $0x403268,0x2048(%rsp)
  402151:	00 68 32 40 00 
  402156:	c7 84 24 50 20 00 00 	movl   $0x21,0x2050(%rsp)
  40215d:	21 00 00 00 
  402161:	c7 84 24 00 20 00 00 	movl   $0x1000,0x2000(%rsp)
  402168:	00 10 00 00 
  40216c:	c7 84 24 04 20 00 00 	movl   $0x6,0x2004(%rsp)
  402173:	06 00 00 00 
  402177:	e8 3c eb ff ff       	callq  400cb8 <_gfortran_st_write@plt>
  40217c:	ba 04 00 00 00       	mov    $0x4,%edx
  402181:	4c 89 e6             	mov    %r12,%rsi
  402184:	48 89 df             	mov    %rbx,%rdi
  402187:	e8 bc ea ff ff       	callq  400c48 <_gfortran_transfer_integer@plt>
  40218c:	48 89 df             	mov    %rbx,%rdi
  40218f:	48 8d 9c 24 20 1e 00 	lea    0x1e20(%rsp),%rbx
  402196:	00 
  402197:	e8 2c ea ff ff       	callq  400bc8 <_gfortran_st_write_done@plt>
  40219c:	48 89 df             	mov    %rbx,%rdi
  40219f:	48 c7 84 24 28 1e 00 	movq   $0x403140,0x1e28(%rsp)
  4021a6:	00 40 31 40 00 
  4021ab:	c7 84 24 30 1e 00 00 	movl   $0x44,0x1e30(%rsp)
  4021b2:	44 00 00 00 
  4021b6:	48 c7 84 24 68 1e 00 	movq   $0x403290,0x1e68(%rsp)
  4021bd:	00 90 32 40 00 
  4021c2:	c7 84 24 70 1e 00 00 	movl   $0x21,0x1e70(%rsp)
  4021c9:	21 00 00 00 
  4021cd:	c7 84 24 20 1e 00 00 	movl   $0x1000,0x1e20(%rsp)
  4021d4:	00 10 00 00 
  4021d8:	c7 84 24 24 1e 00 00 	movl   $0x6,0x1e24(%rsp)
  4021df:	06 00 00 00 
  4021e3:	e8 d0 ea ff ff       	callq  400cb8 <_gfortran_st_write@plt>
  4021e8:	48 8d b4 24 0c 31 00 	lea    0x310c(%rsp),%rsi
  4021ef:	00 
  4021f0:	ba 04 00 00 00       	mov    $0x4,%edx
  4021f5:	48 89 df             	mov    %rbx,%rdi
  4021f8:	e8 4b ea ff ff       	callq  400c48 <_gfortran_transfer_integer@plt>
  4021fd:	48 89 df             	mov    %rbx,%rdi
  402200:	e8 c3 e9 ff ff       	callq  400bc8 <_gfortran_st_write_done@plt>
  402205:	8b 84 24 08 31 00 00 	mov    0x3108(%rsp),%eax
  40220c:	3b 84 24 0c 31 00 00 	cmp    0x310c(%rsp),%eax
  402213:	74 5c                	je     402271 <print_results_+0x441>
  402215:	48 8d 9c 24 40 1c 00 	lea    0x1c40(%rsp),%rbx
  40221c:	00 
  40221d:	48 c7 84 24 48 1c 00 	movq   $0x403140,0x1c48(%rsp)
  402224:	00 40 31 40 00 
  402229:	c7 84 24 50 1c 00 00 	movl   $0x47,0x1c50(%rsp)
  402230:	47 00 00 00 
  402234:	48 c7 84 24 88 1c 00 	movq   $0x4032b8,0x1c88(%rsp)
  40223b:	00 b8 32 40 00 
  402240:	c7 84 24 90 1c 00 00 	movl   $0x38,0x1c90(%rsp)
  402247:	38 00 00 00 
  40224b:	48 89 df             	mov    %rbx,%rdi
  40224e:	c7 84 24 40 1c 00 00 	movl   $0x1000,0x1c40(%rsp)
  402255:	00 10 00 00 
  402259:	c7 84 24 44 1c 00 00 	movl   $0x6,0x1c44(%rsp)
  402260:	06 00 00 00 
  402264:	e8 4f ea ff ff       	callq  400cb8 <_gfortran_st_write@plt>
  402269:	48 89 df             	mov    %rbx,%rdi
  40226c:	e8 57 e9 ff ff       	callq  400bc8 <_gfortran_st_write_done@plt>
  402271:	48 8d 9c 24 60 1a 00 	lea    0x1a60(%rsp),%rbx
  402278:	00 
  402279:	48 c7 84 24 68 1a 00 	movq   $0x403140,0x1a68(%rsp)
  402280:	00 40 31 40 00 
  402285:	c7 84 24 70 1a 00 00 	movl   $0x4a,0x1a70(%rsp)
  40228c:	4a 00 00 00 
  402290:	48 c7 84 24 a8 1a 00 	movq   $0x4032f0,0x1aa8(%rsp)
  402297:	00 f0 32 40 00 
  40229c:	c7 84 24 b0 1a 00 00 	movl   $0x22,0x1ab0(%rsp)
  4022a3:	22 00 00 00 
  4022a7:	48 89 df             	mov    %rbx,%rdi
  4022aa:	c7 84 24 60 1a 00 00 	movl   $0x1000,0x1a60(%rsp)
  4022b1:	00 10 00 00 
  4022b5:	c7 84 24 64 1a 00 00 	movl   $0x6,0x1a64(%rsp)
  4022bc:	06 00 00 00 
  4022c0:	e8 f3 e9 ff ff       	callq  400cb8 <_gfortran_st_write@plt>
  4022c5:	ba 08 00 00 00       	mov    $0x8,%edx
  4022ca:	48 89 ee             	mov    %rbp,%rsi
  4022cd:	48 89 df             	mov    %rbx,%rdi
  4022d0:	e8 03 ea ff ff       	callq  400cd8 <_gfortran_transfer_real@plt>
  4022d5:	48 89 df             	mov    %rbx,%rdi
  4022d8:	48 8d 9c 24 80 18 00 	lea    0x1880(%rsp),%rbx
  4022df:	00 
  4022e0:	e8 e3 e8 ff ff       	callq  400bc8 <_gfortran_st_write_done@plt>
  4022e5:	48 89 df             	mov    %rbx,%rdi
  4022e8:	48 c7 84 24 88 18 00 	movq   $0x403140,0x1888(%rsp)
  4022ef:	00 40 31 40 00 
  4022f4:	c7 84 24 90 18 00 00 	movl   $0x4d,0x1890(%rsp)
  4022fb:	4d 00 00 00 
  4022ff:	48 c7 84 24 c8 18 00 	movq   $0x403318,0x18c8(%rsp)
  402306:	00 18 33 40 00 
  40230b:	c7 84 24 d0 18 00 00 	movl   $0x23,0x18d0(%rsp)
  402312:	23 00 00 00 
  402316:	c7 84 24 80 18 00 00 	movl   $0x1000,0x1880(%rsp)
  40231d:	00 10 00 00 
  402321:	c7 84 24 84 18 00 00 	movl   $0x6,0x1884(%rsp)
  402328:	06 00 00 00 
  40232c:	e8 87 e9 ff ff       	callq  400cb8 <_gfortran_st_write@plt>
  402331:	f3 0f 2a 8c 24 08 31 	cvtsi2ssl 0x3108(%rsp),%xmm1
  402338:	00 00 
  40233a:	0f 14 c9             	unpcklps %xmm1,%xmm1
  40233d:	48 8d b4 24 f8 30 00 	lea    0x30f8(%rsp),%rsi
  402344:	00 
  402345:	f2 0f 10 45 00       	movsd  0x0(%rbp),%xmm0
  40234a:	ba 08 00 00 00       	mov    $0x8,%edx
  40234f:	48 89 df             	mov    %rbx,%rdi
  402352:	0f 5a c9             	cvtps2pd %xmm1,%xmm1
  402355:	f2 0f 5e c1          	divsd  %xmm1,%xmm0
  402359:	f2 0f 11 84 24 f8 30 	movsd  %xmm0,0x30f8(%rsp)
  402360:	00 00 
  402362:	e8 71 e9 ff ff       	callq  400cd8 <_gfortran_transfer_real@plt>
  402367:	48 89 df             	mov    %rbx,%rdi
  40236a:	48 8d 9c 24 a0 16 00 	lea    0x16a0(%rsp),%rbx
  402371:	00 
  402372:	e8 51 e8 ff ff       	callq  400bc8 <_gfortran_st_write_done@plt>
  402377:	48 89 df             	mov    %rbx,%rdi
  40237a:	48 c7 84 24 a8 16 00 	movq   $0x403140,0x16a8(%rsp)
  402381:	00 40 31 40 00 
  402386:	c7 84 24 b0 16 00 00 	movl   $0x50,0x16b0(%rsp)
  40238d:	50 00 00 00 
  402391:	48 c7 84 24 e8 16 00 	movq   $0x40333b,0x16e8(%rsp)
  402398:	00 3b 33 40 00 
  40239d:	c7 84 24 f0 16 00 00 	movl   $0x1c,0x16f0(%rsp)
  4023a4:	1c 00 00 00 
  4023a8:	c7 84 24 a0 16 00 00 	movl   $0x1000,0x16a0(%rsp)
  4023af:	00 10 00 00 
  4023b3:	c7 84 24 a4 16 00 00 	movl   $0x6,0x16a4(%rsp)
  4023ba:	06 00 00 00 
  4023be:	e8 f5 e8 ff ff       	callq  400cb8 <_gfortran_st_write@plt>
  4023c3:	48 8b b4 24 60 31 00 	mov    0x3160(%rsp),%rsi
  4023ca:	00 
  4023cb:	ba 18 00 00 00       	mov    $0x18,%edx
  4023d0:	48 89 df             	mov    %rbx,%rdi
  4023d3:	e8 a0 e8 ff ff       	callq  400c78 <_gfortran_transfer_character@plt>
  4023d8:	48 89 df             	mov    %rbx,%rdi
  4023db:	e8 e8 e7 ff ff       	callq  400bc8 <_gfortran_st_write_done@plt>
  4023e0:	48 8b 84 24 68 31 00 	mov    0x3168(%rsp),%rax
  4023e7:	00 
  4023e8:	8b 00                	mov    (%rax),%eax
  4023ea:	85 c0                	test   %eax,%eax
  4023ec:	0f 85 d6 04 00 00    	jne    4028c8 <print_results_+0xa98>
  4023f2:	48 8d 9c 24 e0 12 00 	lea    0x12e0(%rsp),%rbx
  4023f9:	00 
  4023fa:	48 c7 84 24 e8 12 00 	movq   $0x403140,0x12e8(%rsp)
  402401:	00 40 31 40 00 
  402406:	c7 84 24 f0 12 00 00 	movl   $0x56,0x12f0(%rsp)
  40240d:	56 00 00 00 
  402411:	48 c7 84 24 28 13 00 	movq   $0x403358,0x1328(%rsp)
  402418:	00 58 33 40 00 
  40241d:	c7 84 24 30 13 00 00 	movl   $0x1f,0x1330(%rsp)
  402424:	1f 00 00 00 
  402428:	48 89 df             	mov    %rbx,%rdi
  40242b:	c7 84 24 e0 12 00 00 	movl   $0x1000,0x12e0(%rsp)
  402432:	00 10 00 00 
  402436:	c7 84 24 e4 12 00 00 	movl   $0x6,0x12e4(%rsp)
  40243d:	06 00 00 00 
  402441:	e8 72 e8 ff ff       	callq  400cb8 <_gfortran_st_write@plt>
  402446:	48 89 df             	mov    %rbx,%rdi
  402449:	ba 0c 00 00 00       	mov    $0xc,%edx
  40244e:	be 83 33 40 00       	mov    $0x403383,%esi
  402453:	e8 20 e8 ff ff       	callq  400c78 <_gfortran_transfer_character@plt>
  402458:	48 89 df             	mov    %rbx,%rdi
  40245b:	e8 68 e7 ff ff       	callq  400bc8 <_gfortran_st_write_done@plt>
  402460:	48 8d 9c 24 00 11 00 	lea    0x1100(%rsp),%rbx
  402467:	00 
  402468:	48 c7 84 24 08 11 00 	movq   $0x403140,0x1108(%rsp)
  40246f:	00 40 31 40 00 
  402474:	c7 84 24 10 11 00 00 	movl   $0x5a,0x1110(%rsp)
  40247b:	5a 00 00 00 
  40247f:	48 c7 84 24 48 11 00 	movq   $0x403390,0x1148(%rsp)
  402486:	00 90 33 40 00 
  40248b:	c7 84 24 50 11 00 00 	movl   $0x21,0x1150(%rsp)
  402492:	21 00 00 00 
  402496:	48 89 df             	mov    %rbx,%rdi
  402499:	c7 84 24 00 11 00 00 	movl   $0x1000,0x1100(%rsp)
  4024a0:	00 10 00 00 
  4024a4:	c7 84 24 04 11 00 00 	movl   $0x6,0x1104(%rsp)
  4024ab:	06 00 00 00 
  4024af:	e8 04 e8 ff ff       	callq  400cb8 <_gfortran_st_write@plt>
  4024b4:	8b 94 24 d0 31 00 00 	mov    0x31d0(%rsp),%edx
  4024bb:	48 8b b4 24 70 31 00 	mov    0x3170(%rsp),%rsi
  4024c2:	00 
  4024c3:	48 89 df             	mov    %rbx,%rdi
  4024c6:	e8 ad e7 ff ff       	callq  400c78 <_gfortran_transfer_character@plt>
  4024cb:	48 89 df             	mov    %rbx,%rdi
  4024ce:	48 8d 9c 24 20 0f 00 	lea    0xf20(%rsp),%rbx
  4024d5:	00 
  4024d6:	e8 ed e6 ff ff       	callq  400bc8 <_gfortran_st_write_done@plt>
  4024db:	48 89 df             	mov    %rbx,%rdi
  4024de:	48 c7 84 24 28 0f 00 	movq   $0x403140,0xf28(%rsp)
  4024e5:	00 40 31 40 00 
  4024ea:	c7 84 24 30 0f 00 00 	movl   $0x5d,0xf30(%rsp)
  4024f1:	5d 00 00 00 
  4024f5:	48 c7 84 24 68 0f 00 	movq   $0x4033b8,0xf68(%rsp)
  4024fc:	00 b8 33 40 00 
  402501:	c7 84 24 70 0f 00 00 	movl   $0x21,0xf70(%rsp)
  402508:	21 00 00 00 
  40250c:	c7 84 24 20 0f 00 00 	movl   $0x1000,0xf20(%rsp)
  402513:	00 10 00 00 
  402517:	c7 84 24 24 0f 00 00 	movl   $0x6,0xf24(%rsp)
  40251e:	06 00 00 00 
  402522:	e8 91 e7 ff ff       	callq  400cb8 <_gfortran_st_write@plt>
  402527:	8b 94 24 d8 31 00 00 	mov    0x31d8(%rsp),%edx
  40252e:	48 8b b4 24 78 31 00 	mov    0x3178(%rsp),%rsi
  402535:	00 
  402536:	48 89 df             	mov    %rbx,%rdi
  402539:	e8 3a e7 ff ff       	callq  400c78 <_gfortran_transfer_character@plt>
  40253e:	48 89 df             	mov    %rbx,%rdi
  402541:	48 8d 9c 24 40 0d 00 	lea    0xd40(%rsp),%rbx
  402548:	00 
  402549:	e8 7a e6 ff ff       	callq  400bc8 <_gfortran_st_write_done@plt>
  40254e:	48 89 df             	mov    %rbx,%rdi
  402551:	48 c7 84 24 48 0d 00 	movq   $0x403140,0xd48(%rsp)
  402558:	00 40 31 40 00 
  40255d:	c7 84 24 50 0d 00 00 	movl   $0x61,0xd50(%rsp)
  402564:	61 00 00 00 
  402568:	48 c7 84 24 88 0d 00 	movq   $0x4033e0,0xd88(%rsp)
  40256f:	00 e0 33 40 00 
  402574:	c7 84 24 90 0d 00 00 	movl   $0x5c,0xd90(%rsp)
  40257b:	5c 00 00 00 
  40257f:	c7 84 24 40 0d 00 00 	movl   $0x1000,0xd40(%rsp)
  402586:	00 10 00 00 
  40258a:	c7 84 24 44 0d 00 00 	movl   $0x6,0xd44(%rsp)
  402591:	06 00 00 00 
  402595:	e8 1e e7 ff ff       	callq  400cb8 <_gfortran_st_write@plt>
  40259a:	8b 94 24 e0 31 00 00 	mov    0x31e0(%rsp),%edx
  4025a1:	48 8b b4 24 80 31 00 	mov    0x3180(%rsp),%rsi
  4025a8:	00 
  4025a9:	48 89 df             	mov    %rbx,%rdi
  4025ac:	e8 c7 e6 ff ff       	callq  400c78 <_gfortran_transfer_character@plt>
  4025b1:	48 89 df             	mov    %rbx,%rdi
  4025b4:	48 8d 9c 24 60 0b 00 	lea    0xb60(%rsp),%rbx
  4025bb:	00 
  4025bc:	e8 07 e6 ff ff       	callq  400bc8 <_gfortran_st_write_done@plt>
  4025c1:	48 89 df             	mov    %rbx,%rdi
  4025c4:	48 c7 84 24 68 0b 00 	movq   $0x403140,0xb68(%rsp)
  4025cb:	00 40 31 40 00 
  4025d0:	c7 84 24 70 0b 00 00 	movl   $0x65,0xb70(%rsp)
  4025d7:	65 00 00 00 
  4025db:	48 c7 84 24 a8 0b 00 	movq   $0x40343c,0xba8(%rsp)
  4025e2:	00 3c 34 40 00 
  4025e7:	c7 84 24 b0 0b 00 00 	movl   $0x1a,0xbb0(%rsp)
  4025ee:	1a 00 00 00 
  4025f2:	c7 84 24 60 0b 00 00 	movl   $0x1000,0xb60(%rsp)
  4025f9:	00 10 00 00 
  4025fd:	c7 84 24 64 0b 00 00 	movl   $0x6,0xb64(%rsp)
  402604:	06 00 00 00 
  402608:	e8 ab e6 ff ff       	callq  400cb8 <_gfortran_st_write@plt>
  40260d:	8b 94 24 e8 31 00 00 	mov    0x31e8(%rsp),%edx
  402614:	48 8b b4 24 88 31 00 	mov    0x3188(%rsp),%rsi
  40261b:	00 
  40261c:	48 89 df             	mov    %rbx,%rdi
  40261f:	e8 54 e6 ff ff       	callq  400c78 <_gfortran_transfer_character@plt>
  402624:	48 89 df             	mov    %rbx,%rdi
  402627:	48 8d 9c 24 80 09 00 	lea    0x980(%rsp),%rbx
  40262e:	00 
  40262f:	e8 94 e5 ff ff       	callq  400bc8 <_gfortran_st_write_done@plt>
  402634:	48 89 df             	mov    %rbx,%rdi
  402637:	48 c7 84 24 88 09 00 	movq   $0x403140,0x988(%rsp)
  40263e:	00 40 31 40 00 
  402643:	c7 84 24 90 09 00 00 	movl   $0x68,0x990(%rsp)
  40264a:	68 00 00 00 
  40264e:	48 c7 84 24 c8 09 00 	movq   $0x403456,0x9c8(%rsp)
  402655:	00 56 34 40 00 
  40265a:	c7 84 24 d0 09 00 00 	movl   $0x1a,0x9d0(%rsp)
  402661:	1a 00 00 00 
  402665:	c7 84 24 80 09 00 00 	movl   $0x1000,0x980(%rsp)
  40266c:	00 10 00 00 
  402670:	c7 84 24 84 09 00 00 	movl   $0x6,0x984(%rsp)
  402677:	06 00 00 00 
  40267b:	e8 38 e6 ff ff       	callq  400cb8 <_gfortran_st_write@plt>
  402680:	8b 94 24 f0 31 00 00 	mov    0x31f0(%rsp),%edx
  402687:	48 8b b4 24 90 31 00 	mov    0x3190(%rsp),%rsi
  40268e:	00 
  40268f:	48 89 df             	mov    %rbx,%rdi
  402692:	e8 e1 e5 ff ff       	callq  400c78 <_gfortran_transfer_character@plt>
  402697:	48 89 df             	mov    %rbx,%rdi
  40269a:	48 8d 9c 24 a0 07 00 	lea    0x7a0(%rsp),%rbx
  4026a1:	00 
  4026a2:	e8 21 e5 ff ff       	callq  400bc8 <_gfortran_st_write_done@plt>
  4026a7:	48 89 df             	mov    %rbx,%rdi
  4026aa:	48 c7 84 24 a8 07 00 	movq   $0x403140,0x7a8(%rsp)
  4026b1:	00 40 31 40 00 
  4026b6:	c7 84 24 b0 07 00 00 	movl   $0x6b,0x7b0(%rsp)
  4026bd:	6b 00 00 00 
  4026c1:	48 c7 84 24 e8 07 00 	movq   $0x403470,0x7e8(%rsp)
  4026c8:	00 70 34 40 00 
  4026cd:	c7 84 24 f0 07 00 00 	movl   $0x1a,0x7f0(%rsp)
  4026d4:	1a 00 00 00 
  4026d8:	c7 84 24 a0 07 00 00 	movl   $0x1000,0x7a0(%rsp)
  4026df:	00 10 00 00 
  4026e3:	c7 84 24 a4 07 00 00 	movl   $0x6,0x7a4(%rsp)
  4026ea:	06 00 00 00 
  4026ee:	e8 c5 e5 ff ff       	callq  400cb8 <_gfortran_st_write@plt>
  4026f3:	8b 94 24 f8 31 00 00 	mov    0x31f8(%rsp),%edx
  4026fa:	48 8b b4 24 98 31 00 	mov    0x3198(%rsp),%rsi
  402701:	00 
  402702:	48 89 df             	mov    %rbx,%rdi
  402705:	e8 6e e5 ff ff       	callq  400c78 <_gfortran_transfer_character@plt>
  40270a:	48 89 df             	mov    %rbx,%rdi
  40270d:	48 8d 9c 24 c0 05 00 	lea    0x5c0(%rsp),%rbx
  402714:	00 
  402715:	e8 ae e4 ff ff       	callq  400bc8 <_gfortran_st_write_done@plt>
  40271a:	48 89 df             	mov    %rbx,%rdi
  40271d:	48 c7 84 24 c8 05 00 	movq   $0x403140,0x5c8(%rsp)
  402724:	00 40 31 40 00 
  402729:	c7 84 24 d0 05 00 00 	movl   $0x6e,0x5d0(%rsp)
  402730:	6e 00 00 00 
  402734:	48 c7 84 24 08 06 00 	movq   $0x40348a,0x608(%rsp)
  40273b:	00 8a 34 40 00 
  402740:	c7 84 24 10 06 00 00 	movl   $0x1a,0x610(%rsp)
  402747:	1a 00 00 00 
  40274b:	c7 84 24 c0 05 00 00 	movl   $0x1000,0x5c0(%rsp)
  402752:	00 10 00 00 
  402756:	c7 84 24 c4 05 00 00 	movl   $0x6,0x5c4(%rsp)
  40275d:	06 00 00 00 
  402761:	e8 52 e5 ff ff       	callq  400cb8 <_gfortran_st_write@plt>
  402766:	8b 94 24 00 32 00 00 	mov    0x3200(%rsp),%edx
  40276d:	48 8b b4 24 a0 31 00 	mov    0x31a0(%rsp),%rsi
  402774:	00 
  402775:	48 89 df             	mov    %rbx,%rdi
  402778:	e8 fb e4 ff ff       	callq  400c78 <_gfortran_transfer_character@plt>
  40277d:	48 89 df             	mov    %rbx,%rdi
  402780:	48 8d 9c 24 e0 03 00 	lea    0x3e0(%rsp),%rbx
  402787:	00 
  402788:	e8 3b e4 ff ff       	callq  400bc8 <_gfortran_st_write_done@plt>
  40278d:	48 89 df             	mov    %rbx,%rdi
  402790:	48 c7 84 24 e8 03 00 	movq   $0x403140,0x3e8(%rsp)
  402797:	00 40 31 40 00 
  40279c:	c7 84 24 f0 03 00 00 	movl   $0x71,0x3f0(%rsp)
  4027a3:	71 00 00 00 
  4027a7:	48 c7 84 24 28 04 00 	movq   $0x4034a4,0x428(%rsp)
  4027ae:	00 a4 34 40 00 
  4027b3:	c7 84 24 30 04 00 00 	movl   $0x1a,0x430(%rsp)
  4027ba:	1a 00 00 00 
  4027be:	c7 84 24 e0 03 00 00 	movl   $0x1000,0x3e0(%rsp)
  4027c5:	00 10 00 00 
  4027c9:	c7 84 24 e4 03 00 00 	movl   $0x6,0x3e4(%rsp)
  4027d0:	06 00 00 00 
  4027d4:	e8 df e4 ff ff       	callq  400cb8 <_gfortran_st_write@plt>
  4027d9:	8b 94 24 08 32 00 00 	mov    0x3208(%rsp),%edx
  4027e0:	48 8b b4 24 a8 31 00 	mov    0x31a8(%rsp),%rsi
  4027e7:	00 
  4027e8:	48 89 df             	mov    %rbx,%rdi
  4027eb:	e8 88 e4 ff ff       	callq  400c78 <_gfortran_transfer_character@plt>
  4027f0:	48 89 df             	mov    %rbx,%rdi
  4027f3:	48 8d 9c 24 00 02 00 	lea    0x200(%rsp),%rbx
  4027fa:	00 
  4027fb:	e8 c8 e3 ff ff       	callq  400bc8 <_gfortran_st_write_done@plt>
  402800:	48 89 df             	mov    %rbx,%rdi
  402803:	48 c7 84 24 08 02 00 	movq   $0x403140,0x208(%rsp)
  40280a:	00 40 31 40 00 
  40280f:	c7 84 24 10 02 00 00 	movl   $0x74,0x210(%rsp)
  402816:	74 00 00 00 
  40281a:	48 c7 84 24 48 02 00 	movq   $0x4034be,0x248(%rsp)
  402821:	00 be 34 40 00 
  402826:	c7 84 24 50 02 00 00 	movl   $0x1a,0x250(%rsp)
  40282d:	1a 00 00 00 
  402831:	c7 84 24 00 02 00 00 	movl   $0x1000,0x200(%rsp)
  402838:	00 10 00 00 
  40283c:	c7 84 24 04 02 00 00 	movl   $0x6,0x204(%rsp)
  402843:	06 00 00 00 
  402847:	e8 6c e4 ff ff       	callq  400cb8 <_gfortran_st_write@plt>
  40284c:	8b 94 24 10 32 00 00 	mov    0x3210(%rsp),%edx
  402853:	48 8b b4 24 b0 31 00 	mov    0x31b0(%rsp),%rsi
  40285a:	00 
  40285b:	48 89 df             	mov    %rbx,%rdi
  40285e:	e8 15 e4 ff ff       	callq  400c78 <_gfortran_transfer_character@plt>
  402863:	48 89 df             	mov    %rbx,%rdi
  402866:	48 8d 5c 24 20       	lea    0x20(%rsp),%rbx
  40286b:	e8 58 e3 ff ff       	callq  400bc8 <_gfortran_st_write_done@plt>
  402870:	48 89 df             	mov    %rbx,%rdi
  402873:	48 c7 44 24 28 40 31 	movq   $0x403140,0x28(%rsp)
  40287a:	40 00 
  40287c:	c7 44 24 30 77 00 00 	movl   $0x77,0x30(%rsp)
  402883:	00 
  402884:	48 c7 44 24 68 d8 34 	movq   $0x4034d8,0x68(%rsp)
  40288b:	40 00 
  40288d:	c7 44 24 70 9d 00 00 	movl   $0x9d,0x70(%rsp)
  402894:	00 
  402895:	c7 44 24 20 00 10 00 	movl   $0x1000,0x20(%rsp)
  40289c:	00 
  40289d:	c7 44 24 24 06 00 00 	movl   $0x6,0x24(%rsp)
  4028a4:	00 
  4028a5:	e8 0e e4 ff ff       	callq  400cb8 <_gfortran_st_write@plt>
  4028aa:	48 89 df             	mov    %rbx,%rdi
  4028ad:	e8 16 e3 ff ff       	callq  400bc8 <_gfortran_st_write_done@plt>
  4028b2:	48 81 c4 18 31 00 00 	add    $0x3118,%rsp
  4028b9:	5b                   	pop    %rbx
  4028ba:	5d                   	pop    %rbp
  4028bb:	41 5c                	pop    %r12
  4028bd:	41 5d                	pop    %r13
  4028bf:	41 5e                	pop    %r14
  4028c1:	41 5f                	pop    %r15
  4028c3:	c3                   	retq   
  4028c4:	0f 1f 40 00          	nopl   0x0(%rax)
  4028c8:	48 8d 9c 24 c0 14 00 	lea    0x14c0(%rsp),%rbx
  4028cf:	00 
  4028d0:	48 c7 84 24 c8 14 00 	movq   $0x403140,0x14c8(%rsp)
  4028d7:	00 40 31 40 00 
  4028dc:	c7 84 24 d0 14 00 00 	movl   $0x54,0x14d0(%rsp)
  4028e3:	54 00 00 00 
  4028e7:	48 c7 84 24 08 15 00 	movq   $0x403358,0x1508(%rsp)
  4028ee:	00 58 33 40 00 
  4028f3:	c7 84 24 10 15 00 00 	movl   $0x1f,0x1510(%rsp)
  4028fa:	1f 00 00 00 
  4028fe:	48 89 df             	mov    %rbx,%rdi
  402901:	c7 84 24 c0 14 00 00 	movl   $0x1000,0x14c0(%rsp)
  402908:	00 10 00 00 
  40290c:	c7 84 24 c4 14 00 00 	movl   $0x6,0x14c4(%rsp)
  402913:	06 00 00 00 
  402917:	e8 9c e3 ff ff       	callq  400cb8 <_gfortran_st_write@plt>
  40291c:	48 89 df             	mov    %rbx,%rdi
  40291f:	ba 0c 00 00 00       	mov    $0xc,%edx
  402924:	be 77 33 40 00       	mov    $0x403377,%esi
  402929:	e8 4a e3 ff ff       	callq  400c78 <_gfortran_transfer_character@plt>
  40292e:	48 89 df             	mov    %rbx,%rdi
  402931:	e8 92 e2 ff ff       	callq  400bc8 <_gfortran_st_write_done@plt>
  402936:	e9 25 fb ff ff       	jmpq   402460 <print_results_+0x630>
  40293b:	0f 1f 44 00 00       	nopl   0x0(%rax,%rax,1)
  402940:	b9 99 31 40 00       	mov    $0x403199,%ecx
  402945:	ba 02 00 00 00       	mov    $0x2,%edx
  40294a:	4c 89 fe             	mov    %r15,%rsi
  40294d:	bf 02 00 00 00       	mov    $0x2,%edi
  402952:	e8 a1 e3 ff ff       	callq  400cf8 <_gfortran_compare_string@plt>
  402957:	85 c0                	test   %eax,%eax
  402959:	0f 85 41 01 00 00    	jne    402aa0 <print_results_+0xc70>
  40295f:	4c 8d ac 24 40 2b 00 	lea    0x2b40(%rsp),%r13
  402966:	00 
  402967:	48 8d 9c 24 e0 30 00 	lea    0x30e0(%rsp),%rbx
  40296e:	00 
  40296f:	48 c7 84 24 48 2b 00 	movq   $0x403140,0x2b48(%rsp)
  402976:	00 40 31 40 00 
  40297b:	c7 84 24 50 2b 00 00 	movl   $0x2d,0x2b50(%rsp)
  402982:	2d 00 00 00 
  402986:	c7 84 24 a8 2b 00 00 	movl   $0xf,0x2ba8(%rsp)
  40298d:	0f 00 00 00 
  402991:	45 31 ff             	xor    %r15d,%r15d
  402994:	4c 89 ef             	mov    %r13,%rdi
  402997:	48 89 9c 24 a0 2b 00 	mov    %rbx,0x2ba0(%rsp)
  40299e:	00 
  40299f:	48 c7 84 24 80 2b 00 	movq   $0x0,0x2b80(%rsp)
  4029a6:	00 00 00 00 00 
  4029ab:	c7 84 24 44 2b 00 00 	movl   $0x0,0x2b44(%rsp)
  4029b2:	00 00 00 00 
  4029b6:	48 c7 84 24 88 2b 00 	movq   $0x40319b,0x2b88(%rsp)
  4029bd:	00 9b 31 40 00 
  4029c2:	c7 84 24 90 2b 00 00 	movl   $0x7,0x2b90(%rsp)
  4029c9:	07 00 00 00 
  4029cd:	c7 84 24 40 2b 00 00 	movl   $0x5000,0x2b40(%rsp)
  4029d4:	00 50 00 00 
  4029d8:	e8 db e2 ff ff       	callq  400cb8 <_gfortran_st_write@plt>
  4029dd:	48 8b 44 24 18       	mov    0x18(%rsp),%rax
  4029e2:	f2 0f 10 05 8e 0b 00 	movsd  0xb8e(%rip),%xmm0        # 403578 <options.0.1576+0x4d8>
  4029e9:	00 
  4029ea:	8b 38                	mov    (%rax),%edi
  4029ec:	e8 97 e2 ff ff       	callq  400c88 <__powidf2@plt>
  4029f1:	48 8d b4 24 00 31 00 	lea    0x3100(%rsp),%rsi
  4029f8:	00 
  4029f9:	ba 08 00 00 00       	mov    $0x8,%edx
  4029fe:	4c 89 ef             	mov    %r13,%rdi
  402a01:	f2 0f 11 84 24 00 31 	movsd  %xmm0,0x3100(%rsp)
  402a08:	00 00 
  402a0a:	e8 c9 e2 ff ff       	callq  400cd8 <_gfortran_transfer_real@plt>
  402a0f:	4c 89 ef             	mov    %r13,%rdi
  402a12:	4c 8d ac 24 60 29 00 	lea    0x2960(%rsp),%r13
  402a19:	00 
  402a1a:	e8 a9 e1 ff ff       	callq  400bc8 <_gfortran_st_write_done@plt>
  402a1f:	80 bc 24 ee 30 00 00 	cmpb   $0x2e,0x30ee(%rsp)
  402a26:	2e 
  402a27:	4c 89 ef             	mov    %r13,%rdi
  402a2a:	48 c7 84 24 68 29 00 	movq   $0x403140,0x2968(%rsp)
  402a31:	00 40 31 40 00 
  402a36:	c7 84 24 70 29 00 00 	movl   $0x30,0x2970(%rsp)
  402a3d:	30 00 00 00 
  402a41:	48 c7 84 24 a8 29 00 	movq   $0x4031a8,0x29a8(%rsp)
  402a48:	00 a8 31 40 00 
  402a4d:	c7 84 24 b0 29 00 00 	movl   $0x1f,0x29b0(%rsp)
  402a54:	1f 00 00 00 
  402a58:	c7 84 24 60 29 00 00 	movl   $0x1000,0x2960(%rsp)
  402a5f:	00 10 00 00 
  402a63:	c7 84 24 64 29 00 00 	movl   $0x6,0x2964(%rsp)
  402a6a:	06 00 00 00 
  402a6e:	41 0f 95 c7          	setne  %r15b
  402a72:	41 83 c7 0e          	add    $0xe,%r15d
  402a76:	e8 3d e2 ff ff       	callq  400cb8 <_gfortran_st_write@plt>
  402a7b:	4c 89 ef             	mov    %r13,%rdi
  402a7e:	44 89 fa             	mov    %r15d,%edx
  402a81:	48 89 de             	mov    %rbx,%rsi
  402a84:	e8 ef e1 ff ff       	callq  400c78 <_gfortran_transfer_character@plt>
  402a89:	4c 89 ef             	mov    %r13,%rdi
  402a8c:	e8 37 e1 ff ff       	callq  400bc8 <_gfortran_st_write_done@plt>
  402a91:	e9 b5 f5 ff ff       	jmpq   40204b <print_results_+0x21b>
  402a96:	66 2e 0f 1f 84 00 00 	nopw   %cs:0x0(%rax,%rax,1)
  402a9d:	00 00 00 
  402aa0:	48 8d 9c 24 80 27 00 	lea    0x2780(%rsp),%rbx
  402aa7:	00 
  402aa8:	48 c7 84 24 88 27 00 	movq   $0x403140,0x2788(%rsp)
  402aaf:	00 40 31 40 00 
  402ab4:	c7 84 24 90 27 00 00 	movl   $0x33,0x2790(%rsp)
  402abb:	33 00 00 00 
  402abf:	48 c7 84 24 c8 27 00 	movq   $0x4031c8,0x27c8(%rsp)
  402ac6:	00 c8 31 40 00 
  402acb:	c7 84 24 d0 27 00 00 	movl   $0x20,0x27d0(%rsp)
  402ad2:	20 00 00 00 
  402ad6:	48 89 df             	mov    %rbx,%rdi
  402ad9:	c7 84 24 80 27 00 00 	movl   $0x1000,0x2780(%rsp)
  402ae0:	00 10 00 00 
  402ae4:	c7 84 24 84 27 00 00 	movl   $0x6,0x2784(%rsp)
  402aeb:	06 00 00 00 
  402aef:	e8 c4 e1 ff ff       	callq  400cb8 <_gfortran_st_write@plt>
  402af4:	48 8b 74 24 18       	mov    0x18(%rsp),%rsi
  402af9:	48 89 df             	mov    %rbx,%rdi
  402afc:	ba 04 00 00 00       	mov    $0x4,%edx
  402b01:	e8 42 e1 ff ff       	callq  400c48 <_gfortran_transfer_integer@plt>
  402b06:	48 89 df             	mov    %rbx,%rdi
  402b09:	e8 ba e0 ff ff       	callq  400bc8 <_gfortran_st_write_done@plt>
  402b0e:	e9 38 f5 ff ff       	jmpq   40204b <print_results_+0x21b>
  402b13:	90                   	nop
  402b14:	90                   	nop
  402b15:	90                   	nop
  402b16:	90                   	nop
  402b17:	90                   	nop
  402b18:	90                   	nop
  402b19:	90                   	nop
  402b1a:	90                   	nop
  402b1b:	90                   	nop
  402b1c:	90                   	nop
  402b1d:	90                   	nop
  402b1e:	90                   	nop
  402b1f:	90                   	nop

0000000000402b20 <randlc_>:
  402b20:	f2 0f 10 07          	movsd  (%rdi),%xmm0
  402b24:	f2 0f 10 0e          	movsd  (%rsi),%xmm1
  402b28:	f2 48 0f 2c d0       	cvttsd2si %xmm0,%rdx
  402b2d:	f2 48 0f 2c c1       	cvttsd2si %xmm1,%rax
  402b32:	48 0f af c2          	imul   %rdx,%rax
  402b36:	48 ba ff ff ff ff ff 	mov    $0x3fffffffffff,%rdx
  402b3d:	3f 00 00 
  402b40:	48 21 d0             	and    %rdx,%rax
  402b43:	f2 48 0f 2a c0       	cvtsi2sd %rax,%xmm0
  402b48:	f2 0f 11 07          	movsd  %xmm0,(%rdi)
  402b4c:	f2 0f 59 05 2c 0a 00 	mulsd  0xa2c(%rip),%xmm0        # 403580 <options.0.1576+0x4e0>
  402b53:	00 
  402b54:	c3                   	retq   
  402b55:	66 66 2e 0f 1f 84 00 	data32 nopw %cs:0x0(%rax,%rax,1)
  402b5c:	00 00 00 00 

0000000000402b60 <vranlc_>:
  402b60:	f2 0f 10 12          	movsd  (%rdx),%xmm2
  402b64:	8b 17                	mov    (%rdi),%edx
  402b66:	f2 0f 10 1e          	movsd  (%rsi),%xmm3
  402b6a:	f2 4c 0f 2c c2       	cvttsd2si %xmm2,%r8
  402b6f:	85 d2                	test   %edx,%edx
  402b71:	f2 48 0f 2c c3       	cvttsd2si %xmm3,%rax
  402b76:	7e 58                	jle    402bd0 <vranlc_+0x70>
  402b78:	83 ea 01             	sub    $0x1,%edx
  402b7b:	f2 0f 10 15 fd 09 00 	movsd  0x9fd(%rip),%xmm2        # 403580 <options.0.1576+0x4e0>
  402b82:	00 
  402b83:	4c 8d 0c d5 08 00 00 	lea    0x8(,%rdx,8),%r9
  402b8a:	00 
  402b8b:	48 bf ff ff ff ff ff 	mov    $0x3fffffffffff,%rdi
  402b92:	3f 00 00 
  402b95:	31 d2                	xor    %edx,%edx
  402b97:	66 0f 1f 84 00 00 00 	nopw   0x0(%rax,%rax,1)
  402b9e:	00 00 
  402ba0:	49 0f af c0          	imul   %r8,%rax
  402ba4:	48 21 f8             	and    %rdi,%rax
  402ba7:	f2 48 0f 2a c0       	cvtsi2sd %rax,%xmm0
  402bac:	66 0f 28 c8          	movapd %xmm0,%xmm1
  402bb0:	f2 0f 59 ca          	mulsd  %xmm2,%xmm1
  402bb4:	f2 0f 11 0c 11       	movsd  %xmm1,(%rcx,%rdx,1)
  402bb9:	48 83 c2 08          	add    $0x8,%rdx
  402bbd:	4c 39 ca             	cmp    %r9,%rdx
  402bc0:	75 de                	jne    402ba0 <vranlc_+0x40>
  402bc2:	f2 0f 11 06          	movsd  %xmm0,(%rsi)
  402bc6:	c3                   	retq   
  402bc7:	66 0f 1f 84 00 00 00 	nopw   0x0(%rax,%rax,1)
  402bce:	00 00 
  402bd0:	f2 48 0f 2a c0       	cvtsi2sd %rax,%xmm0
  402bd5:	f2 0f 11 06          	movsd  %xmm0,(%rsi)
  402bd9:	c3                   	retq   
  402bda:	90                   	nop
  402bdb:	90                   	nop
  402bdc:	90                   	nop
  402bdd:	90                   	nop
  402bde:	90                   	nop
  402bdf:	90                   	nop

0000000000402be0 <timer_clear_>:
  402be0:	48 63 07             	movslq (%rdi),%rax
  402be3:	64 48 c7 04 c5 f8 fd 	movq   $0x0,%fs:-0x208(,%rax,8)
  402bea:	ff ff 00 00 00 00 
  402bf0:	c3                   	retq   
  402bf1:	66 66 66 66 66 66 2e 	data32 data32 data32 data32 data32 nopw %cs:0x0(%rax,%rax,1)
  402bf8:	0f 1f 84 00 00 00 00 
  402bff:	00 

0000000000402c00 <timer_read_>:
  402c00:	48 63 07             	movslq (%rdi),%rax
  402c03:	64 f2 0f 10 04 c5 f8 	movsd  %fs:-0x208(,%rax,8),%xmm0
  402c0a:	fd ff ff 
  402c0d:	c3                   	retq   
  402c0e:	66 90                	xchg   %ax,%ax

0000000000402c10 <elapsed_time_>:
  402c10:	31 c0                	xor    %eax,%eax
  402c12:	e9 81 e0 ff ff       	jmpq   400c98 <omp_get_wtime_@plt>
  402c17:	66 0f 1f 84 00 00 00 	nopw   0x0(%rax,%rax,1)
  402c1e:	00 00 

0000000000402c20 <timer_stop_>:
  402c20:	53                   	push   %rbx
  402c21:	31 c0                	xor    %eax,%eax
  402c23:	48 89 fb             	mov    %rdi,%rbx
  402c26:	e8 e5 ff ff ff       	callq  402c10 <elapsed_time_>
  402c2b:	48 63 03             	movslq (%rbx),%rax
  402c2e:	48 8d 50 ff          	lea    -0x1(%rax),%rdx
  402c32:	48 83 c0 3f          	add    $0x3f,%rax
  402c36:	64 f2 0f 5c 04 d5 00 	subsd  %fs:-0x400(,%rdx,8),%xmm0
  402c3d:	fc ff ff 
  402c40:	64 f2 0f 58 04 c5 00 	addsd  %fs:-0x400(,%rax,8),%xmm0
  402c47:	fc ff ff 
  402c4a:	64 f2 0f 11 04 c5 00 	movsd  %xmm0,%fs:-0x400(,%rax,8)
  402c51:	fc ff ff 
  402c54:	5b                   	pop    %rbx
  402c55:	c3                   	retq   
  402c56:	66 2e 0f 1f 84 00 00 	nopw   %cs:0x0(%rax,%rax,1)
  402c5d:	00 00 00 

0000000000402c60 <timer_start_>:
  402c60:	53                   	push   %rbx
  402c61:	48 63 1f             	movslq (%rdi),%rbx
  402c64:	31 c0                	xor    %eax,%eax
  402c66:	e8 a5 ff ff ff       	callq  402c10 <elapsed_time_>
  402c6b:	48 83 eb 01          	sub    $0x1,%rbx
  402c6f:	64 f2 0f 11 04 dd 00 	movsd  %xmm0,%fs:-0x400(,%rbx,8)
  402c76:	fc ff ff 
  402c79:	5b                   	pop    %rbx
  402c7a:	c3                   	retq   
  402c7b:	90                   	nop
  402c7c:	90                   	nop
  402c7d:	90                   	nop
  402c7e:	90                   	nop
  402c7f:	90                   	nop

0000000000402c80 <wtime_>:
  402c80:	53                   	push   %rbx
  402c81:	31 f6                	xor    %esi,%esi
  402c83:	48 89 fb             	mov    %rdi,%rbx
  402c86:	48 83 ec 10          	sub    $0x10,%rsp
  402c8a:	48 89 e7             	mov    %rsp,%rdi
  402c8d:	e8 46 df ff ff       	callq  400bd8 <gettimeofday@plt>
  402c92:	8b 05 e0 0e 20 00    	mov    0x200ee0(%rip),%eax        # 603b78 <sec.1832>
  402c98:	85 c0                	test   %eax,%eax
  402c9a:	78 34                	js     402cd0 <wtime_+0x50>
  402c9c:	48 8b 14 24          	mov    (%rsp),%rdx
  402ca0:	48 98                	cltq   
  402ca2:	f2 48 0f 2a 4c 24 08 	cvtsi2sdq 0x8(%rsp),%xmm1
  402ca9:	f2 0f 59 0d d7 08 00 	mulsd  0x8d7(%rip),%xmm1        # 403588 <options.0.1576+0x4e8>
  402cb0:	00 
  402cb1:	48 29 c2             	sub    %rax,%rdx
  402cb4:	f2 48 0f 2a c2       	cvtsi2sd %rdx,%xmm0
  402cb9:	f2 0f 58 c1          	addsd  %xmm1,%xmm0
  402cbd:	f2 0f 11 03          	movsd  %xmm0,(%rbx)
  402cc1:	48 83 c4 10          	add    $0x10,%rsp
  402cc5:	5b                   	pop    %rbx
  402cc6:	c3                   	retq   
  402cc7:	66 0f 1f 84 00 00 00 	nopw   0x0(%rax,%rax,1)
  402cce:	00 00 
  402cd0:	48 8b 14 24          	mov    (%rsp),%rdx
  402cd4:	89 d0                	mov    %edx,%eax
  402cd6:	89 15 9c 0e 20 00    	mov    %edx,0x200e9c(%rip)        # 603b78 <sec.1832>
  402cdc:	eb c2                	jmp    402ca0 <wtime_+0x20>
  402cde:	90                   	nop
  402cdf:	90                   	nop

0000000000402ce0 <main>:
  402ce0:	48 89 5c 24 f0       	mov    %rbx,-0x10(%rsp)
  402ce5:	48 89 6c 24 f8       	mov    %rbp,-0x8(%rsp)
  402cea:	89 fb                	mov    %edi,%ebx
  402cec:	48 83 ec 18          	sub    $0x18,%rsp
  402cf0:	48 8b 3e             	mov    (%rsi),%rdi
  402cf3:	48 89 f5             	mov    %rsi,%rbp
  402cf6:	e8 0d e0 ff ff       	callq  400d08 <_gfortran_store_exe_path@plt>
  402cfb:	48 89 ee             	mov    %rbp,%rsi
  402cfe:	89 df                	mov    %ebx,%edi
  402d00:	e8 13 df ff ff       	callq  400c18 <_gfortran_set_args@plt>
  402d05:	e8 b6 e5 ff ff       	callq  4012c0 <MAIN__>
  402d0a:	31 c0                	xor    %eax,%eax
  402d0c:	48 8b 5c 24 08       	mov    0x8(%rsp),%rbx
  402d11:	48 8b 6c 24 10       	mov    0x10(%rsp),%rbp
  402d16:	48 83 c4 18          	add    $0x18,%rsp
  402d1a:	c3                   	retq   
  402d1b:	90                   	nop
  402d1c:	90                   	nop
  402d1d:	90                   	nop
  402d1e:	90                   	nop
  402d1f:	90                   	nop

0000000000402d20 <__libc_csu_fini>:
  402d20:	f3 c3                	repz retq 
  402d22:	66 66 66 66 66 2e 0f 	data32 data32 data32 data32 nopw %cs:0x0(%rax,%rax,1)
  402d29:	1f 84 00 00 00 00 00 

0000000000402d30 <__libc_csu_init>:
  402d30:	48 89 6c 24 d8       	mov    %rbp,-0x28(%rsp)
  402d35:	4c 89 64 24 e0       	mov    %r12,-0x20(%rsp)
  402d3a:	48 8d 2d 1f 0b 20 00 	lea    0x200b1f(%rip),%rbp        # 603860 <__init_array_end>
  402d41:	4c 8d 25 18 0b 20 00 	lea    0x200b18(%rip),%r12        # 603860 <__init_array_end>
  402d48:	4c 89 6c 24 e8       	mov    %r13,-0x18(%rsp)
  402d4d:	4c 89 74 24 f0       	mov    %r14,-0x10(%rsp)
  402d52:	4c 89 7c 24 f8       	mov    %r15,-0x8(%rsp)
  402d57:	48 89 5c 24 d0       	mov    %rbx,-0x30(%rsp)
  402d5c:	48 83 ec 38          	sub    $0x38,%rsp
  402d60:	4c 29 e5             	sub    %r12,%rbp
  402d63:	41 89 fd             	mov    %edi,%r13d
  402d66:	49 89 f6             	mov    %rsi,%r14
  402d69:	48 c1 fd 03          	sar    $0x3,%rbp
  402d6d:	49 89 d7             	mov    %rdx,%r15
  402d70:	e8 0b de ff ff       	callq  400b80 <_init>
  402d75:	48 85 ed             	test   %rbp,%rbp
  402d78:	74 1c                	je     402d96 <__libc_csu_init+0x66>
  402d7a:	31 db                	xor    %ebx,%ebx
  402d7c:	0f 1f 40 00          	nopl   0x0(%rax)
  402d80:	4c 89 fa             	mov    %r15,%rdx
  402d83:	4c 89 f6             	mov    %r14,%rsi
  402d86:	44 89 ef             	mov    %r13d,%edi
  402d89:	41 ff 14 dc          	callq  *(%r12,%rbx,8)
  402d8d:	48 83 c3 01          	add    $0x1,%rbx
  402d91:	48 39 eb             	cmp    %rbp,%rbx
  402d94:	72 ea                	jb     402d80 <__libc_csu_init+0x50>
  402d96:	48 8b 5c 24 08       	mov    0x8(%rsp),%rbx
  402d9b:	48 8b 6c 24 10       	mov    0x10(%rsp),%rbp
  402da0:	4c 8b 64 24 18       	mov    0x18(%rsp),%r12
  402da5:	4c 8b 6c 24 20       	mov    0x20(%rsp),%r13
  402daa:	4c 8b 74 24 28       	mov    0x28(%rsp),%r14
  402daf:	4c 8b 7c 24 30       	mov    0x30(%rsp),%r15
  402db4:	48 83 c4 38          	add    $0x38,%rsp
  402db8:	c3                   	retq   
  402db9:	90                   	nop
  402dba:	90                   	nop
  402dbb:	90                   	nop
  402dbc:	90                   	nop
  402dbd:	90                   	nop
  402dbe:	90                   	nop
  402dbf:	90                   	nop

0000000000402dc0 <__do_global_ctors_aux>:
  402dc0:	55                   	push   %rbp
  402dc1:	48 89 e5             	mov    %rsp,%rbp
  402dc4:	53                   	push   %rbx
  402dc5:	48 83 ec 08          	sub    $0x8,%rsp
  402dc9:	48 8b 05 90 0a 20 00 	mov    0x200a90(%rip),%rax        # 603860 <__init_array_end>
  402dd0:	48 83 f8 ff          	cmp    $0xffffffffffffffff,%rax
  402dd4:	74 19                	je     402def <__do_global_ctors_aux+0x2f>
  402dd6:	bb 60 38 60 00       	mov    $0x603860,%ebx
  402ddb:	0f 1f 44 00 00       	nopl   0x0(%rax,%rax,1)
  402de0:	48 83 eb 08          	sub    $0x8,%rbx
  402de4:	ff d0                	callq  *%rax
  402de6:	48 8b 03             	mov    (%rbx),%rax
  402de9:	48 83 f8 ff          	cmp    $0xffffffffffffffff,%rax
  402ded:	75 f1                	jne    402de0 <__do_global_ctors_aux+0x20>
  402def:	48 83 c4 08          	add    $0x8,%rsp
  402df3:	5b                   	pop    %rbx
  402df4:	c9                   	leaveq 
  402df5:	c3                   	retq   
  402df6:	90                   	nop
  402df7:	90                   	nop

Disassembly of section .fini:

0000000000402df8 <_fini>:
  402df8:	48 83 ec 08          	sub    $0x8,%rsp
  402dfc:	e8 7f df ff ff       	callq  400d80 <__do_global_dtors_aux>
  402e01:	48 83 c4 08          	add    $0x8,%rsp
  402e05:	c3                   	retq   
