
ft.S.x:     file format elf64-x86-64


Disassembly of section .init:

0000000000400ce8 <_init>:
  400ce8:	48 83 ec 08          	sub    $0x8,%rsp
  400cec:	e8 1b 02 00 00       	callq  400f0c <call_gmon_start>
  400cf1:	e8 aa 02 00 00       	callq  400fa0 <frame_dummy>
  400cf6:	e8 d5 56 00 00       	callq  4063d0 <__do_global_ctors_aux>
  400cfb:	48 83 c4 08          	add    $0x8,%rsp
  400cff:	c3                   	retq   

Disassembly of section .plt:

0000000000400d00 <exp@plt-0x10>:
  400d00:	ff 35 32 68 20 00    	pushq  0x206832(%rip)        # 607538 <_GLOBAL_OFFSET_TABLE_+0x8>
  400d06:	ff 25 34 68 20 00    	jmpq   *0x206834(%rip)        # 607540 <_GLOBAL_OFFSET_TABLE_+0x10>
  400d0c:	0f 1f 40 00          	nopl   0x0(%rax)

0000000000400d10 <exp@plt>:
  400d10:	ff 25 32 68 20 00    	jmpq   *0x206832(%rip)        # 607548 <_GLOBAL_OFFSET_TABLE_+0x18>
  400d16:	68 00 00 00 00       	pushq  $0x0
  400d1b:	e9 e0 ff ff ff       	jmpq   400d00 <_init+0x18>

0000000000400d20 <omp_get_num_threads@plt>:
  400d20:	ff 25 2a 68 20 00    	jmpq   *0x20682a(%rip)        # 607550 <_GLOBAL_OFFSET_TABLE_+0x20>
  400d26:	68 01 00 00 00       	pushq  $0x1
  400d2b:	e9 d0 ff ff ff       	jmpq   400d00 <_init+0x18>

0000000000400d30 <_gfortran_st_open@plt>:
  400d30:	ff 25 22 68 20 00    	jmpq   *0x206822(%rip)        # 607558 <_GLOBAL_OFFSET_TABLE_+0x28>
  400d36:	68 02 00 00 00       	pushq  $0x2
  400d3b:	e9 c0 ff ff ff       	jmpq   400d00 <_init+0x18>

0000000000400d40 <_gfortran_st_write_done@plt>:
  400d40:	ff 25 1a 68 20 00    	jmpq   *0x20681a(%rip)        # 607560 <_GLOBAL_OFFSET_TABLE_+0x30>
  400d46:	68 03 00 00 00       	pushq  $0x3
  400d4b:	e9 b0 ff ff ff       	jmpq   400d00 <_init+0x18>

0000000000400d50 <gettimeofday@plt>:
  400d50:	ff 25 12 68 20 00    	jmpq   *0x206812(%rip)        # 607568 <_GLOBAL_OFFSET_TABLE_+0x38>
  400d56:	68 04 00 00 00       	pushq  $0x4
  400d5b:	e9 a0 ff ff ff       	jmpq   400d00 <_init+0x18>

0000000000400d60 <__libc_start_main@plt>:
  400d60:	ff 25 0a 68 20 00    	jmpq   *0x20680a(%rip)        # 607570 <_GLOBAL_OFFSET_TABLE_+0x40>
  400d66:	68 05 00 00 00       	pushq  $0x5
  400d6b:	e9 90 ff ff ff       	jmpq   400d00 <_init+0x18>

0000000000400d70 <_gfortran_transfer_complex@plt>:
  400d70:	ff 25 02 68 20 00    	jmpq   *0x206802(%rip)        # 607578 <_GLOBAL_OFFSET_TABLE_+0x48>
  400d76:	68 06 00 00 00       	pushq  $0x6
  400d7b:	e9 80 ff ff ff       	jmpq   400d00 <_init+0x18>

0000000000400d80 <omp_get_thread_num@plt>:
  400d80:	ff 25 fa 67 20 00    	jmpq   *0x2067fa(%rip)        # 607580 <_GLOBAL_OFFSET_TABLE_+0x50>
  400d86:	68 07 00 00 00       	pushq  $0x7
  400d8b:	e9 70 ff ff ff       	jmpq   400d00 <_init+0x18>

0000000000400d90 <_gfortran_set_options@plt>:
  400d90:	ff 25 f2 67 20 00    	jmpq   *0x2067f2(%rip)        # 607588 <_GLOBAL_OFFSET_TABLE_+0x58>
  400d96:	68 08 00 00 00       	pushq  $0x8
  400d9b:	e9 60 ff ff ff       	jmpq   400d00 <_init+0x18>

0000000000400da0 <_gfortran_set_args@plt>:
  400da0:	ff 25 ea 67 20 00    	jmpq   *0x2067ea(%rip)        # 607590 <_GLOBAL_OFFSET_TABLE_+0x60>
  400da6:	68 09 00 00 00       	pushq  $0x9
  400dab:	e9 50 ff ff ff       	jmpq   400d00 <_init+0x18>

0000000000400db0 <GOMP_atomic_end@plt>:
  400db0:	ff 25 e2 67 20 00    	jmpq   *0x2067e2(%rip)        # 607598 <_GLOBAL_OFFSET_TABLE_+0x68>
  400db6:	68 0a 00 00 00       	pushq  $0xa
  400dbb:	e9 40 ff ff ff       	jmpq   400d00 <_init+0x18>

0000000000400dc0 <omp_get_num_threads_@plt>:
  400dc0:	ff 25 da 67 20 00    	jmpq   *0x2067da(%rip)        # 6075a0 <_GLOBAL_OFFSET_TABLE_+0x70>
  400dc6:	68 0b 00 00 00       	pushq  $0xb
  400dcb:	e9 30 ff ff ff       	jmpq   400d00 <_init+0x18>

0000000000400dd0 <_gfortran_transfer_integer@plt>:
  400dd0:	ff 25 d2 67 20 00    	jmpq   *0x2067d2(%rip)        # 6075a8 <_GLOBAL_OFFSET_TABLE_+0x78>
  400dd6:	68 0c 00 00 00       	pushq  $0xc
  400ddb:	e9 20 ff ff ff       	jmpq   400d00 <_init+0x18>

0000000000400de0 <_gfortran_st_close@plt>:
  400de0:	ff 25 ca 67 20 00    	jmpq   *0x2067ca(%rip)        # 6075b0 <_GLOBAL_OFFSET_TABLE_+0x80>
  400de6:	68 0d 00 00 00       	pushq  $0xd
  400deb:	e9 10 ff ff ff       	jmpq   400d00 <_init+0x18>

0000000000400df0 <cabs@plt>:
  400df0:	ff 25 c2 67 20 00    	jmpq   *0x2067c2(%rip)        # 6075b8 <_GLOBAL_OFFSET_TABLE_+0x88>
  400df6:	68 0e 00 00 00       	pushq  $0xe
  400dfb:	e9 00 ff ff ff       	jmpq   400d00 <_init+0x18>

0000000000400e00 <GOMP_atomic_start@plt>:
  400e00:	ff 25 ba 67 20 00    	jmpq   *0x2067ba(%rip)        # 6075c0 <_GLOBAL_OFFSET_TABLE_+0x90>
  400e06:	68 0f 00 00 00       	pushq  $0xf
  400e0b:	e9 f0 fe ff ff       	jmpq   400d00 <_init+0x18>

0000000000400e10 <_gfortran_transfer_character@plt>:
  400e10:	ff 25 b2 67 20 00    	jmpq   *0x2067b2(%rip)        # 6075c8 <_GLOBAL_OFFSET_TABLE_+0x98>
  400e16:	68 10 00 00 00       	pushq  $0x10
  400e1b:	e9 e0 fe ff ff       	jmpq   400d00 <_init+0x18>

0000000000400e20 <__powidf2@plt>:
  400e20:	ff 25 aa 67 20 00    	jmpq   *0x2067aa(%rip)        # 6075d0 <_GLOBAL_OFFSET_TABLE_+0xa0>
  400e26:	68 11 00 00 00       	pushq  $0x11
  400e2b:	e9 d0 fe ff ff       	jmpq   400d00 <_init+0x18>

0000000000400e30 <omp_get_wtime_@plt>:
  400e30:	ff 25 a2 67 20 00    	jmpq   *0x2067a2(%rip)        # 6075d8 <_GLOBAL_OFFSET_TABLE_+0xa8>
  400e36:	68 12 00 00 00       	pushq  $0x12
  400e3b:	e9 c0 fe ff ff       	jmpq   400d00 <_init+0x18>

0000000000400e40 <GOMP_parallel_end@plt>:
  400e40:	ff 25 9a 67 20 00    	jmpq   *0x20679a(%rip)        # 6075e0 <_GLOBAL_OFFSET_TABLE_+0xb0>
  400e46:	68 13 00 00 00       	pushq  $0x13
  400e4b:	e9 b0 fe ff ff       	jmpq   400d00 <_init+0x18>

0000000000400e50 <_gfortran_st_write@plt>:
  400e50:	ff 25 92 67 20 00    	jmpq   *0x206792(%rip)        # 6075e8 <_GLOBAL_OFFSET_TABLE_+0xb8>
  400e56:	68 14 00 00 00       	pushq  $0x14
  400e5b:	e9 a0 fe ff ff       	jmpq   400d00 <_init+0x18>

0000000000400e60 <sincos@plt>:
  400e60:	ff 25 8a 67 20 00    	jmpq   *0x20678a(%rip)        # 6075f0 <_GLOBAL_OFFSET_TABLE_+0xc0>
  400e66:	68 15 00 00 00       	pushq  $0x15
  400e6b:	e9 90 fe ff ff       	jmpq   400d00 <_init+0x18>

0000000000400e70 <omp_get_max_threads_@plt>:
  400e70:	ff 25 82 67 20 00    	jmpq   *0x206782(%rip)        # 6075f8 <_GLOBAL_OFFSET_TABLE_+0xc8>
  400e76:	68 16 00 00 00       	pushq  $0x16
  400e7b:	e9 80 fe ff ff       	jmpq   400d00 <_init+0x18>

0000000000400e80 <_gfortran_transfer_real@plt>:
  400e80:	ff 25 7a 67 20 00    	jmpq   *0x20677a(%rip)        # 607600 <_GLOBAL_OFFSET_TABLE_+0xd0>
  400e86:	68 17 00 00 00       	pushq  $0x17
  400e8b:	e9 70 fe ff ff       	jmpq   400d00 <_init+0x18>

0000000000400e90 <_gfortran_stop_numeric@plt>:
  400e90:	ff 25 72 67 20 00    	jmpq   *0x206772(%rip)        # 607608 <_GLOBAL_OFFSET_TABLE_+0xd8>
  400e96:	68 18 00 00 00       	pushq  $0x18
  400e9b:	e9 60 fe ff ff       	jmpq   400d00 <_init+0x18>

0000000000400ea0 <GOMP_parallel_start@plt>:
  400ea0:	ff 25 6a 67 20 00    	jmpq   *0x20676a(%rip)        # 607610 <_GLOBAL_OFFSET_TABLE_+0xe0>
  400ea6:	68 19 00 00 00       	pushq  $0x19
  400eab:	e9 50 fe ff ff       	jmpq   400d00 <_init+0x18>

0000000000400eb0 <_gfortran_compare_string@plt>:
  400eb0:	ff 25 62 67 20 00    	jmpq   *0x206762(%rip)        # 607618 <_GLOBAL_OFFSET_TABLE_+0xe8>
  400eb6:	68 1a 00 00 00       	pushq  $0x1a
  400ebb:	e9 40 fe ff ff       	jmpq   400d00 <_init+0x18>

0000000000400ec0 <_gfortran_pow_i4_i4@plt>:
  400ec0:	ff 25 5a 67 20 00    	jmpq   *0x20675a(%rip)        # 607620 <_GLOBAL_OFFSET_TABLE_+0xf0>
  400ec6:	68 1b 00 00 00       	pushq  $0x1b
  400ecb:	e9 30 fe ff ff       	jmpq   400d00 <_init+0x18>

0000000000400ed0 <_gfortran_store_exe_path@plt>:
  400ed0:	ff 25 52 67 20 00    	jmpq   *0x206752(%rip)        # 607628 <_GLOBAL_OFFSET_TABLE_+0xf8>
  400ed6:	68 1c 00 00 00       	pushq  $0x1c
  400edb:	e9 20 fe ff ff       	jmpq   400d00 <_init+0x18>

Disassembly of section .text:

0000000000400ee0 <_start>:
  400ee0:	31 ed                	xor    %ebp,%ebp
  400ee2:	49 89 d1             	mov    %rdx,%r9
  400ee5:	5e                   	pop    %rsi
  400ee6:	48 89 e2             	mov    %rsp,%rdx
  400ee9:	48 83 e4 f0          	and    $0xfffffffffffffff0,%rsp
  400eed:	50                   	push   %rax
  400eee:	54                   	push   %rsp
  400eef:	49 c7 c0 30 63 40 00 	mov    $0x406330,%r8
  400ef6:	48 c7 c1 40 63 40 00 	mov    $0x406340,%rcx
  400efd:	48 c7 c7 f0 62 40 00 	mov    $0x4062f0,%rdi
  400f04:	e8 57 fe ff ff       	callq  400d60 <__libc_start_main@plt>
  400f09:	f4                   	hlt    
  400f0a:	90                   	nop
  400f0b:	90                   	nop

0000000000400f0c <call_gmon_start>:
  400f0c:	48 83 ec 08          	sub    $0x8,%rsp
  400f10:	48 8b 05 11 66 20 00 	mov    0x206611(%rip),%rax        # 607528 <_DYNAMIC+0x1e0>
  400f17:	48 85 c0             	test   %rax,%rax
  400f1a:	74 02                	je     400f1e <call_gmon_start+0x12>
  400f1c:	ff d0                	callq  *%rax
  400f1e:	48 83 c4 08          	add    $0x8,%rsp
  400f22:	c3                   	retq   
  400f23:	90                   	nop
  400f24:	90                   	nop
  400f25:	90                   	nop
  400f26:	90                   	nop
  400f27:	90                   	nop
  400f28:	90                   	nop
  400f29:	90                   	nop
  400f2a:	90                   	nop
  400f2b:	90                   	nop
  400f2c:	90                   	nop
  400f2d:	90                   	nop
  400f2e:	90                   	nop
  400f2f:	90                   	nop

0000000000400f30 <__do_global_dtors_aux>:
  400f30:	55                   	push   %rbp
  400f31:	48 89 e5             	mov    %rsp,%rbp
  400f34:	53                   	push   %rbx
  400f35:	48 83 ec 08          	sub    $0x8,%rsp
  400f39:	80 3d 00 68 20 00 00 	cmpb   $0x0,0x206800(%rip)        # 607740 <completed.6312>
  400f40:	75 4b                	jne    400f8d <__do_global_dtors_aux+0x5d>
  400f42:	bb 38 73 60 00       	mov    $0x607338,%ebx
  400f47:	48 8b 05 fa 67 20 00 	mov    0x2067fa(%rip),%rax        # 607748 <dtor_idx.6314>
  400f4e:	48 81 eb 30 73 60 00 	sub    $0x607330,%rbx
  400f55:	48 c1 fb 03          	sar    $0x3,%rbx
  400f59:	48 83 eb 01          	sub    $0x1,%rbx
  400f5d:	48 39 d8             	cmp    %rbx,%rax
  400f60:	73 24                	jae    400f86 <__do_global_dtors_aux+0x56>
  400f62:	66 0f 1f 44 00 00    	nopw   0x0(%rax,%rax,1)
  400f68:	48 83 c0 01          	add    $0x1,%rax
  400f6c:	48 89 05 d5 67 20 00 	mov    %rax,0x2067d5(%rip)        # 607748 <dtor_idx.6314>
  400f73:	ff 14 c5 30 73 60 00 	callq  *0x607330(,%rax,8)
  400f7a:	48 8b 05 c7 67 20 00 	mov    0x2067c7(%rip),%rax        # 607748 <dtor_idx.6314>
  400f81:	48 39 d8             	cmp    %rbx,%rax
  400f84:	72 e2                	jb     400f68 <__do_global_dtors_aux+0x38>
  400f86:	c6 05 b3 67 20 00 01 	movb   $0x1,0x2067b3(%rip)        # 607740 <completed.6312>
  400f8d:	48 83 c4 08          	add    $0x8,%rsp
  400f91:	5b                   	pop    %rbx
  400f92:	c9                   	leaveq 
  400f93:	c3                   	retq   
  400f94:	66 66 66 2e 0f 1f 84 	data32 data32 nopw %cs:0x0(%rax,%rax,1)
  400f9b:	00 00 00 00 00 

0000000000400fa0 <frame_dummy>:
  400fa0:	55                   	push   %rbp
  400fa1:	48 83 3d 97 63 20 00 	cmpq   $0x0,0x206397(%rip)        # 607340 <__JCR_END__>
  400fa8:	00 
  400fa9:	48 89 e5             	mov    %rsp,%rbp
  400fac:	74 12                	je     400fc0 <frame_dummy+0x20>
  400fae:	b8 00 00 00 00       	mov    $0x0,%eax
  400fb3:	48 85 c0             	test   %rax,%rax
  400fb6:	74 08                	je     400fc0 <frame_dummy+0x20>
  400fb8:	bf 40 73 60 00       	mov    $0x607340,%edi
  400fbd:	c9                   	leaveq 
  400fbe:	ff e0                	jmpq   *%rax
  400fc0:	c9                   	leaveq 
  400fc1:	c3                   	retq   
  400fc2:	90                   	nop
  400fc3:	90                   	nop
  400fc4:	90                   	nop
  400fc5:	90                   	nop
  400fc6:	90                   	nop
  400fc7:	90                   	nop
  400fc8:	90                   	nop
  400fc9:	90                   	nop
  400fca:	90                   	nop
  400fcb:	90                   	nop
  400fcc:	90                   	nop
  400fcd:	90                   	nop
  400fce:	90                   	nop
  400fcf:	90                   	nop

0000000000400fd0 <ilog2_>:
  400fd0:	8b 37                	mov    (%rdi),%esi
  400fd2:	31 c0                	xor    %eax,%eax
  400fd4:	83 fe 01             	cmp    $0x1,%esi
  400fd7:	74 22                	je     400ffb <ilog2_+0x2b>
  400fd9:	83 fe 02             	cmp    $0x2,%esi
  400fdc:	ba 02 00 00 00       	mov    $0x2,%edx
  400fe1:	b9 01 00 00 00       	mov    $0x1,%ecx
  400fe6:	b0 01                	mov    $0x1,%al
  400fe8:	7e 11                	jle    400ffb <ilog2_+0x2b>
  400fea:	66 0f 1f 44 00 00    	nopw   0x0(%rax,%rax,1)
  400ff0:	01 d2                	add    %edx,%edx
  400ff2:	83 c1 01             	add    $0x1,%ecx
  400ff5:	39 d6                	cmp    %edx,%esi
  400ff7:	7f f7                	jg     400ff0 <ilog2_+0x20>
  400ff9:	89 c8                	mov    %ecx,%eax
  400ffb:	f3 c3                	repz retq 
  400ffd:	0f 1f 00             	nopl   (%rax)

0000000000401000 <verify_>:
  401000:	41 57                	push   %r15
  401002:	41 56                	push   %r14
  401004:	41 55                	push   %r13
  401006:	41 54                	push   %r12
  401008:	55                   	push   %rbp
  401009:	4c 89 c5             	mov    %r8,%rbp
  40100c:	53                   	push   %rbx
  40100d:	4c 89 cb             	mov    %r9,%rbx
  401010:	48 81 ec 38 07 00 00 	sub    $0x738,%rsp
  401017:	8b 07                	mov    (%rdi),%eax
  401019:	41 c6 01 55          	movb   $0x55,(%r9)
  40101d:	41 c7 00 00 00 00 00 	movl   $0x0,(%r8)
  401024:	83 f8 40             	cmp    $0x40,%eax
  401027:	0f 84 43 0c 00 00    	je     401c70 <verify_+0xc70>
  40102d:	3d 80 00 00 00       	cmp    $0x80,%eax
  401032:	0f 84 18 01 00 00    	je     401150 <verify_+0x150>
  401038:	3d 00 01 00 00       	cmp    $0x100,%eax
  40103d:	0f 85 85 01 00 00    	jne    4011c8 <verify_+0x1c8>
  401043:	81 3e 00 01 00 00    	cmpl   $0x100,(%rsi)
  401049:	0f 85 11 01 00 00    	jne    401160 <verify_+0x160>
  40104f:	81 3a 80 00 00 00    	cmpl   $0x80,(%rdx)
  401055:	0f 85 05 01 00 00    	jne    401160 <verify_+0x160>
  40105b:	83 39 06             	cmpl   $0x6,(%rcx)
  40105e:	66 90                	xchg   %ax,%ax
  401060:	0f 85 fa 00 00 00    	jne    401160 <verify_+0x160>
  401066:	49 bf a9 8f bb 1d 61 	mov    $0x407fd2611dbb8fa9,%r15
  40106d:	d2 7f 40 
  401070:	41 c6 01 41          	movb   $0x41,(%r9)
  401074:	49 bc 90 8b cb a8 c6 	mov    $0x407f8ac6a8cb8b90,%r12
  40107b:	8a 7f 40 
  40107e:	49 bb 66 24 a8 05 7a 	mov    $0x407ff67a05a82466,%r11
  401085:	f6 7f 40 
  401088:	49 ba 3e fb 41 49 0f 	mov    $0x407f9f0f4941fb3e,%r10
  40108f:	9f 7f 40 
  401092:	49 b9 72 9d 7a 70 18 	mov    $0x407fde18707a9d72,%r9
  401099:	de 7f 40 
  40109c:	49 b8 0a 11 d7 c6 00 	mov    $0x407faf00c6d7110a,%r8
  4010a3:	af 7f 40 
  4010a6:	48 bf 53 83 b8 cc 07 	mov    $0x407fdd07ccb88353,%rdi
  4010ad:	dd 7f 40 
  4010b0:	48 be ef cb 3e eb a0 	mov    $0x407fbca0eb3ecbef,%rsi
  4010b7:	bc 7f 40 
  4010ba:	48 b9 ef f4 76 47 23 	mov    $0x407fe2234776f4ef,%rcx
  4010c1:	e2 7f 40 
  4010c4:	48 ba e9 c1 d2 79 5f 	mov    $0x407fc85f79d2c1e9,%rdx
  4010cb:	c8 7f 40 
  4010ce:	48 b8 f4 ce f2 0a dd 	mov    $0x407fe7dd0af2cef4,%rax
  4010d5:	e7 7f 40 
  4010d8:	49 be 02 56 fe 25 ab 	mov    $0x407fecab25fe5602,%r14
  4010df:	ec 7f 40 
  4010e2:	4c 89 bc 24 f0 05 00 	mov    %r15,0x5f0(%rsp)
  4010e9:	00 
  4010ea:	4c 89 a4 24 a0 05 00 	mov    %r12,0x5a0(%rsp)
  4010f1:	00 
  4010f2:	4c 89 9c 24 a8 05 00 	mov    %r11,0x5a8(%rsp)
  4010f9:	00 
  4010fa:	4c 89 94 24 b0 05 00 	mov    %r10,0x5b0(%rsp)
  401101:	00 
  401102:	41 bf 06 00 00 00    	mov    $0x6,%r15d
  401108:	4c 89 8c 24 b8 05 00 	mov    %r9,0x5b8(%rsp)
  40110f:	00 
  401110:	4c 89 84 24 c0 05 00 	mov    %r8,0x5c0(%rsp)
  401117:	00 
  401118:	48 89 bc 24 c8 05 00 	mov    %rdi,0x5c8(%rsp)
  40111f:	00 
  401120:	48 89 b4 24 d0 05 00 	mov    %rsi,0x5d0(%rsp)
  401127:	00 
  401128:	48 89 8c 24 d8 05 00 	mov    %rcx,0x5d8(%rsp)
  40112f:	00 
  401130:	48 89 94 24 e0 05 00 	mov    %rdx,0x5e0(%rsp)
  401137:	00 
  401138:	48 89 84 24 e8 05 00 	mov    %rax,0x5e8(%rsp)
  40113f:	00 
  401140:	4c 89 b4 24 f8 05 00 	mov    %r14,0x5f8(%rsp)
  401147:	00 
  401148:	e9 23 0c 00 00       	jmpq   401d70 <verify_+0xd70>
  40114d:	0f 1f 00             	nopl   (%rax)
  401150:	81 3e 80 00 00 00    	cmpl   $0x80,(%rsi)
  401156:	0f 84 3c 10 00 00    	je     402198 <verify_+0x1198>
  40115c:	0f 1f 40 00          	nopl   0x0(%rax)
  401160:	48 89 e7             	mov    %rsp,%rdi
  401163:	48 c7 44 24 08 24 64 	movq   $0x406424,0x8(%rsp)
  40116a:	40 00 
  40116c:	c7 44 24 10 4d 04 00 	movl   $0x44d,0x10(%rsp)
  401173:	00 
  401174:	c7 04 24 80 00 00 00 	movl   $0x80,(%rsp)
  40117b:	c7 44 24 04 06 00 00 	movl   $0x6,0x4(%rsp)
  401182:	00 
  401183:	e8 c8 fc ff ff       	callq  400e50 <_gfortran_st_write@plt>
  401188:	48 89 e7             	mov    %rsp,%rdi
  40118b:	ba 08 00 00 00       	mov    $0x8,%edx
  401190:	be 63 64 40 00       	mov    $0x406463,%esi
  401195:	e8 76 fc ff ff       	callq  400e10 <_gfortran_transfer_character@plt>
  40119a:	48 89 de             	mov    %rbx,%rsi
  40119d:	48 89 e7             	mov    %rsp,%rdi
  4011a0:	ba 01 00 00 00       	mov    $0x1,%edx
  4011a5:	e8 66 fc ff ff       	callq  400e10 <_gfortran_transfer_character@plt>
  4011aa:	48 89 e7             	mov    %rsp,%rdi
  4011ad:	e8 8e fb ff ff       	callq  400d40 <_gfortran_st_write_done@plt>
  4011b2:	48 81 c4 38 07 00 00 	add    $0x738,%rsp
  4011b9:	5b                   	pop    %rbx
  4011ba:	5d                   	pop    %rbp
  4011bb:	41 5c                	pop    %r12
  4011bd:	41 5d                	pop    %r13
  4011bf:	41 5e                	pop    %r14
  4011c1:	41 5f                	pop    %r15
  4011c3:	c3                   	retq   
  4011c4:	0f 1f 40 00          	nopl   0x0(%rax)
  4011c8:	3d 00 02 00 00       	cmp    $0x200,%eax
  4011cd:	0f 85 0d 03 00 00    	jne    4014e0 <verify_+0x4e0>
  4011d3:	8b 06                	mov    (%rsi),%eax
  4011d5:	3d 00 01 00 00       	cmp    $0x100,%eax
  4011da:	0f 84 b8 0c 00 00    	je     401e98 <verify_+0xe98>
  4011e0:	3d 00 02 00 00       	cmp    $0x200,%eax
  4011e5:	0f 85 75 ff ff ff    	jne    401160 <verify_+0x160>
  4011eb:	81 3a 00 02 00 00    	cmpl   $0x200,(%rdx)
  4011f1:	0f 85 69 ff ff ff    	jne    401160 <verify_+0x160>
  4011f7:	83 39 14             	cmpl   $0x14,(%rcx)
  4011fa:	0f 85 60 ff ff ff    	jne    401160 <verify_+0x160>
  401200:	49 bc 03 9b 89 1e 10 	mov    $0x40803c101e899b03,%r12
  401207:	3c 80 40 
  40120a:	41 c6 01 43          	movb   $0x43,(%r9)
  40120e:	49 bb 93 e5 01 3c 37 	mov    $0x408017373c01e593,%r11
  401215:	17 80 40 
  401218:	4c 89 a4 24 a0 05 00 	mov    %r12,0x5a0(%rsp)
  40121f:	00 
  401220:	49 ba 14 0b ed 75 56 	mov    $0x40801c5675ed0b14,%r10
  401227:	1c 80 40 
  40122a:	49 b9 ad 6f 09 04 10 	mov    $0x4080061004096fad,%r9
  401231:	06 80 40 
  401234:	49 b8 c3 6a 17 0f be 	mov    $0x408013be0f176ac3,%r8
  40123b:	13 80 40 
  40123e:	48 bf 91 b6 a9 2d cd 	mov    $0x408001cd2da9b691,%rdi
  401245:	01 80 40 
  401248:	48 be fa da 7a d7 1e 	mov    $0x4080101ed77adafa,%rsi
  40124f:	10 80 40 
  401252:	48 b9 66 7c 8b 4a df 	mov    $0x408000df4a8b7c66,%rcx
  401259:	00 80 40 
  40125c:	48 ba d5 2f d1 53 0a 	mov    $0x40800e0a53d12fd5,%rdx
  401263:	0e 80 40 
  401266:	48 b8 c8 48 13 3a ea 	mov    $0x408000ea3a1348c8,%rax
  40126d:	00 80 40 
  401270:	49 bf 92 21 bb 1a a6 	mov    $0x40800ca61abb2192,%r15
  401277:	0c 80 40 
  40127a:	49 be 7f f7 91 89 32 	mov    $0x408001328991f77f,%r14
  401281:	01 80 40 
  401284:	49 bd 4d ce 2d cd a7 	mov    $0x40800ba7cd2dce4d,%r13
  40128b:	0b 80 40 
  40128e:	49 bc 0b 93 30 2a 7f 	mov    $0x4080017f2a30930b,%r12
  401295:	01 80 40 
  401298:	4c 89 9c 24 a8 05 00 	mov    %r11,0x5a8(%rsp)
  40129f:	00 
  4012a0:	4c 89 94 24 b0 05 00 	mov    %r10,0x5b0(%rsp)
  4012a7:	00 
  4012a8:	4c 89 8c 24 b8 05 00 	mov    %r9,0x5b8(%rsp)
  4012af:	00 
  4012b0:	4c 89 84 24 c0 05 00 	mov    %r8,0x5c0(%rsp)
  4012b7:	00 
  4012b8:	49 bb d4 97 b3 ec eb 	mov    $0x40800aebecb397d4,%r11
  4012bf:	0a 80 40 
  4012c2:	48 89 bc 24 c8 05 00 	mov    %rdi,0x5c8(%rsp)
  4012c9:	00 
  4012ca:	48 89 b4 24 d0 05 00 	mov    %rsi,0x5d0(%rsp)
  4012d1:	00 
  4012d2:	49 ba f2 83 7b 2d c1 	mov    $0x408001c12d7b83f2,%r10
  4012d9:	01 80 40 
  4012dc:	48 89 8c 24 d8 05 00 	mov    %rcx,0x5d8(%rsp)
  4012e3:	00 
  4012e4:	48 89 94 24 e0 05 00 	mov    %rdx,0x5e0(%rsp)
  4012eb:	00 
  4012ec:	49 b9 ae 68 36 39 5d 	mov    $0x40800a5d393668ae,%r9
  4012f3:	0a 80 40 
  4012f6:	48 89 84 24 e8 05 00 	mov    %rax,0x5e8(%rsp)
  4012fd:	00 
  4012fe:	4c 89 bc 24 f0 05 00 	mov    %r15,0x5f0(%rsp)
  401305:	00 
  401306:	49 b8 71 1c da ba f6 	mov    $0x408001f6bada1c71,%r8
  40130d:	01 80 40 
  401310:	4c 89 b4 24 f8 05 00 	mov    %r14,0x5f8(%rsp)
  401317:	00 
  401318:	4c 89 ac 24 00 06 00 	mov    %r13,0x600(%rsp)
  40131f:	00 
  401320:	48 bf 1d 02 24 aa ed 	mov    $0x408009edaa24021d,%rdi
  401327:	09 80 40 
  40132a:	4c 89 a4 24 08 06 00 	mov    %r12,0x608(%rsp)
  401331:	00 
  401332:	48 be 50 ca f3 83 21 	mov    $0x4080022183f3ca50,%rsi
  401339:	02 80 40 
  40133c:	48 b9 ac c5 97 b0 93 	mov    $0x40800993b097c5ac,%rcx
  401343:	09 80 40 
  401346:	48 ba b2 dc a1 c3 43 	mov    $0x40800243c3a1dcb2,%rdx
  40134d:	02 80 40 
  401350:	48 b8 dc 6a 02 bf 48 	mov    $0x40800948bf026adc,%rax
  401357:	09 80 40 
  40135a:	49 bf 68 82 fd 68 5f 	mov    $0x4080025f68fd8268,%r15
  401361:	02 80 40 
  401364:	49 be d9 18 a5 57 08 	mov    $0x4080090857a518d9,%r14
  40136b:	09 80 40 
  40136e:	49 bd ea 50 2f f3 75 	mov    $0x40800275f32f50ea,%r13
  401375:	02 80 40 
  401378:	49 bc e6 f6 b5 67 cf 	mov    $0x408008cf67b5f6e6,%r12
  40137f:	08 80 40 
  401382:	4c 89 9c 24 10 06 00 	mov    %r11,0x610(%rsp)
  401389:	00 
  40138a:	4c 89 94 24 18 06 00 	mov    %r10,0x618(%rsp)
  401391:	00 
  401392:	49 bb b0 16 17 7f 88 	mov    $0x408002887f1716b0,%r11
  401399:	02 80 40 
  40139c:	4c 89 8c 24 20 06 00 	mov    %r9,0x620(%rsp)
  4013a3:	00 
  4013a4:	4c 89 84 24 28 06 00 	mov    %r8,0x628(%rsp)
  4013ab:	00 
  4013ac:	49 ba 3a ea 80 d5 9b 	mov    $0x4080089bd580ea3a,%r10
  4013b3:	08 80 40 
  4013b6:	48 89 bc 24 30 06 00 	mov    %rdi,0x630(%rsp)
  4013bd:	00 
  4013be:	48 89 b4 24 38 06 00 	mov    %rsi,0x638(%rsp)
  4013c5:	00 
  4013c6:	49 b9 8e 04 24 de 97 	mov    $0x40800297de24048e,%r9
  4013cd:	02 80 40 
  4013d0:	48 89 8c 24 40 06 00 	mov    %rcx,0x640(%rsp)
  4013d7:	00 
  4013d8:	48 89 94 24 48 06 00 	mov    %rdx,0x648(%rsp)
  4013df:	00 
  4013e0:	49 b8 84 d9 eb 31 6c 	mov    $0x4080086c31ebd984,%r8
  4013e7:	08 80 40 
  4013ea:	48 89 84 24 50 06 00 	mov    %rax,0x650(%rsp)
  4013f1:	00 
  4013f2:	4c 89 bc 24 58 06 00 	mov    %r15,0x658(%rsp)
  4013f9:	00 
  4013fa:	48 bf f8 f9 b9 aa a4 	mov    $0x408002a4aab9f9f8,%rdi
  401401:	02 80 40 
  401404:	4c 89 b4 24 60 06 00 	mov    %r14,0x660(%rsp)
  40140b:	00 
  40140c:	4c 89 ac 24 68 06 00 	mov    %r13,0x668(%rsp)
  401413:	00 
  401414:	49 bf ed 48 cd 8c ec 	mov    $0x408007ec8ccd48ed,%r15
  40141b:	07 80 40 
  40141e:	4c 89 a4 24 70 06 00 	mov    %r12,0x670(%rsp)
  401425:	00 
  401426:	48 be 9e 12 94 82 3f 	mov    $0x4080083f8294129e,%rsi
  40142d:	08 80 40 
  401430:	48 b9 71 0d dc 57 af 	mov    $0x408002af57dc0d71,%rcx
  401437:	02 80 40 
  40143a:	48 ba d2 57 e4 1c 15 	mov    $0x408008151ce457d2,%rdx
  401441:	08 80 40 
  401444:	48 b8 c9 44 8a 3c b8 	mov    $0x408002b83c8a44c9,%rax
  40144b:	02 80 40 
  40144e:	49 be 75 ca ce 9b bf 	mov    $0x408002bf9bceca75,%r14
  401455:	02 80 40 
  401458:	49 bd 2f 02 71 83 c5 	mov    $0x408007c58371022f,%r13
  40145f:	07 80 40 
  401462:	49 bc b6 07 64 aa c5 	mov    $0x408002c5aa6407b6,%r12
  401469:	02 80 40 
  40146c:	4c 89 9c 24 78 06 00 	mov    %r11,0x678(%rsp)
  401473:	00 
  401474:	4c 89 94 24 80 06 00 	mov    %r10,0x680(%rsp)
  40147b:	00 
  40147c:	4c 89 8c 24 88 06 00 	mov    %r9,0x688(%rsp)
  401483:	00 
  401484:	4c 89 84 24 90 06 00 	mov    %r8,0x690(%rsp)
  40148b:	00 
  40148c:	48 89 bc 24 98 06 00 	mov    %rdi,0x698(%rsp)
  401493:	00 
  401494:	48 89 b4 24 a0 06 00 	mov    %rsi,0x6a0(%rsp)
  40149b:	00 
  40149c:	4c 89 bc 24 c0 06 00 	mov    %r15,0x6c0(%rsp)
  4014a3:	00 
  4014a4:	41 bf 14 00 00 00    	mov    $0x14,%r15d
  4014aa:	48 89 8c 24 a8 06 00 	mov    %rcx,0x6a8(%rsp)
  4014b1:	00 
  4014b2:	48 89 94 24 b0 06 00 	mov    %rdx,0x6b0(%rsp)
  4014b9:	00 
  4014ba:	48 89 84 24 b8 06 00 	mov    %rax,0x6b8(%rsp)
  4014c1:	00 
  4014c2:	4c 89 b4 24 c8 06 00 	mov    %r14,0x6c8(%rsp)
  4014c9:	00 
  4014ca:	4c 89 ac 24 d0 06 00 	mov    %r13,0x6d0(%rsp)
  4014d1:	00 
  4014d2:	4c 89 a4 24 d8 06 00 	mov    %r12,0x6d8(%rsp)
  4014d9:	00 
  4014da:	e9 91 08 00 00       	jmpq   401d70 <verify_+0xd70>
  4014df:	90                   	nop
  4014e0:	3d 00 08 00 00       	cmp    $0x800,%eax
  4014e5:	0f 85 bd 03 00 00    	jne    4018a8 <verify_+0x8a8>
  4014eb:	81 3e 00 04 00 00    	cmpl   $0x400,(%rsi)
  4014f1:	0f 85 69 fc ff ff    	jne    401160 <verify_+0x160>
  4014f7:	81 3a 00 04 00 00    	cmpl   $0x400,(%rdx)
  4014fd:	0f 1f 00             	nopl   (%rax)
  401500:	0f 85 5a fc ff ff    	jne    401160 <verify_+0x160>
  401506:	83 39 19             	cmpl   $0x19,(%rcx)
  401509:	0f 85 51 fc ff ff    	jne    401160 <verify_+0x160>
  40150f:	41 c6 01 44          	movb   $0x44,(%r9)
  401513:	49 bb 3b 24 a5 b7 c8 	mov    $0x408001c8b7a5243b,%r11
  40151a:	01 80 40 
  40151d:	49 ba 9c 49 a6 8a a7 	mov    $0x407ffda78aa6499c,%r10
  401524:	fd 7f 40 
  401527:	49 b9 73 4d b1 05 5f 	mov    $0x4080005f05b14d73,%r9
  40152e:	00 80 40 
  401531:	49 b8 51 5d 80 42 4c 	mov    $0x407ffb4c42805d51,%r8
  401538:	fb 7f 40 
  40153b:	48 bf aa e6 9f 04 c9 	mov    $0x407fffc9049fe6aa,%rdi
  401542:	ff 7f 40 
  401545:	48 be dc c2 c2 ab 5a 	mov    $0x407ffb5aabc2c2dc,%rsi
  40154c:	fb 7f 40 
  40154f:	48 b9 07 1d 78 e6 3a 	mov    $0x407fff3ae6781d07,%rcx
  401556:	ff 7f 40 
  401559:	48 ba a5 30 ad 55 cc 	mov    $0x407ffbcc55ad30a5,%rdx
  401560:	fb 7f 40 
  401563:	48 b8 70 62 58 9e d4 	mov    $0x407ffed49e586270,%rax
  40156a:	fe 7f 40 
  40156d:	49 bf 29 e2 d1 de 49 	mov    $0x407ffc49ded1e229,%r15
  401574:	fc 7f 40 
  401577:	49 be 00 16 6f 28 88 	mov    $0x407ffe88286f1600,%r14
  40157e:	fe 7f 40 
  401581:	4c 89 9c 24 a0 05 00 	mov    %r11,0x5a0(%rsp)
  401588:	00 
  401589:	4c 89 94 24 a8 05 00 	mov    %r10,0x5a8(%rsp)
  401590:	00 
  401591:	49 bd a9 2d 4e a4 bf 	mov    $0x407ffcbfa44e2da9,%r13
  401598:	fc 7f 40 
  40159b:	4c 89 8c 24 b0 05 00 	mov    %r9,0x5b0(%rsp)
  4015a2:	00 
  4015a3:	4c 89 84 24 b8 05 00 	mov    %r8,0x5b8(%rsp)
  4015aa:	00 
  4015ab:	49 bc b7 12 f0 62 4f 	mov    $0x407ffe4f62f012b7,%r12
  4015b2:	fe 7f 40 
  4015b5:	48 89 bc 24 c0 05 00 	mov    %rdi,0x5c0(%rsp)
  4015bc:	00 
  4015bd:	48 89 b4 24 c8 05 00 	mov    %rsi,0x5c8(%rsp)
  4015c4:	00 
  4015c5:	49 bb f7 2b 50 13 29 	mov    $0x407ffd2913502bf7,%r11
  4015cc:	fd 7f 40 
  4015cf:	48 89 8c 24 d0 05 00 	mov    %rcx,0x5d0(%rsp)
  4015d6:	00 
  4015d7:	48 89 94 24 d8 05 00 	mov    %rdx,0x5d8(%rsp)
  4015de:	00 
  4015df:	49 ba 87 7d 46 d7 25 	mov    $0x407ffe25d7467d87,%r10
  4015e6:	fe 7f 40 
  4015e9:	48 89 84 24 e0 05 00 	mov    %rax,0x5e0(%rsp)
  4015f0:	00 
  4015f1:	4c 89 bc 24 e8 05 00 	mov    %r15,0x5e8(%rsp)
  4015f8:	00 
  4015f9:	49 b9 1e cc 91 c9 85 	mov    $0x407ffd85c991cc1e,%r9
  401600:	fd 7f 40 
  401603:	4c 89 b4 24 f0 05 00 	mov    %r14,0x5f0(%rsp)
  40160a:	00 
  40160b:	49 b8 1b 46 f9 f5 07 	mov    $0x407ffe07f5f9461b,%r8
  401612:	fe 7f 40 
  401615:	48 bf 2f aa e6 ad d6 	mov    $0x407ffdd6ade6aa2f,%rdi
  40161c:	fd 7f 40 
  40161f:	48 be 75 ce e3 f9 f2 	mov    $0x407ffdf2f9e3ce75,%rsi
  401626:	fd 7f 40 
  401629:	48 b9 0f 37 52 00 1d 	mov    $0x407ffe1d0052370f,%rcx
  401630:	fe 7f 40 
  401633:	48 ba 49 0f 36 ca e4 	mov    $0x407ffde4ca360f49,%rdx
  40163a:	fd 7f 40 
  40163d:	48 b8 3e 97 b5 05 5a 	mov    $0x407ffe5a05b5973e,%rax
  401644:	fe 7f 40 
  401647:	49 bf 11 97 f9 d5 db 	mov    $0x407ffddbd5f99711,%r15
  40164e:	fd 7f 40 
  401651:	49 be 74 a8 ca ea 8e 	mov    $0x407ffe8eeacaa874,%r14
  401658:	fe 7f 40 
  40165b:	4c 89 ac 24 f8 05 00 	mov    %r13,0x5f8(%rsp)
  401662:	00 
  401663:	4c 89 a4 24 00 06 00 	mov    %r12,0x600(%rsp)
  40166a:	00 
  40166b:	49 bd 21 3d 03 f2 d6 	mov    $0x407ffdd6f2033d21,%r13
  401672:	fd 7f 40 
  401675:	4c 89 9c 24 08 06 00 	mov    %r11,0x608(%rsp)
  40167c:	00 
  40167d:	4c 89 94 24 10 06 00 	mov    %r10,0x610(%rsp)
  401684:	00 
  401685:	49 bc bf 2e fa bb bc 	mov    $0x407ffebcbbfa2ebf,%r12
  40168c:	fe 7f 40 
  40168f:	4c 89 8c 24 18 06 00 	mov    %r9,0x618(%rsp)
  401696:	00 
  401697:	4c 89 84 24 20 06 00 	mov    %r8,0x620(%rsp)
  40169e:	00 
  40169f:	49 bb 74 dc 74 3d d5 	mov    $0x407ffdd53d74dc74,%r11
  4016a6:	fd 7f 40 
  4016a9:	48 89 bc 24 28 06 00 	mov    %rdi,0x628(%rsp)
  4016b0:	00 
  4016b1:	48 89 b4 24 30 06 00 	mov    %rsi,0x630(%rsp)
  4016b8:	00 
  4016b9:	49 ba 9d 64 11 65 e4 	mov    $0x407ffee46511649d,%r10
  4016c0:	fe 7f 40 
  4016c3:	48 89 8c 24 38 06 00 	mov    %rcx,0x638(%rsp)
  4016ca:	00 
  4016cb:	48 89 94 24 40 06 00 	mov    %rdx,0x640(%rsp)
  4016d2:	00 
  4016d3:	49 b9 d2 b5 2d 0d d6 	mov    $0x407ffdd60d2db5d2,%r9
  4016da:	fd 7f 40 
  4016dd:	48 89 84 24 48 06 00 	mov    %rax,0x648(%rsp)
  4016e4:	00 
  4016e5:	4c 89 bc 24 50 06 00 	mov    %r15,0x650(%rsp)
  4016ec:	00 
  4016ed:	49 b8 ea 1a c0 b3 06 	mov    $0x407fff06b3c01aea,%r8
  4016f4:	ff 7f 40 
  4016f7:	4c 89 b4 24 58 06 00 	mov    %r14,0x658(%rsp)
  4016fe:	00 
  4016ff:	48 bf 7d 6a 05 dd d8 	mov    $0x407ffdd8dd056a7d,%rdi
  401706:	fd 7f 40 
  401709:	48 be ce 0b df 5a 24 	mov    $0x407fff245adf0bce,%rsi
  401710:	ff 7f 40 
  401713:	48 b9 e6 8f 61 45 dd 	mov    $0x407ffddd45618fe6,%rcx
  40171a:	fd 7f 40 
  40171d:	48 ba 29 b0 ba f5 3d 	mov    $0x407fff3df5bab029,%rdx
  401724:	ff 7f 40 
  401727:	48 b8 b3 50 e6 f3 e2 	mov    $0x407ffde2f3e650b3,%rax
  40172e:	fd 7f 40 
  401731:	49 bf a1 f5 1c 0b 54 	mov    $0x407fff540b1cf5a1,%r15
  401738:	ff 7f 40 
  40173b:	49 be 45 12 4e a6 e9 	mov    $0x407ffde9a64e1245,%r14
  401742:	fd 7f 40 
  401745:	4c 89 ac 24 60 06 00 	mov    %r13,0x660(%rsp)
  40174c:	00 
  40174d:	4c 89 a4 24 68 06 00 	mov    %r12,0x668(%rsp)
  401754:	00 
  401755:	4c 89 9c 24 70 06 00 	mov    %r11,0x670(%rsp)
  40175c:	00 
  40175d:	49 bd e5 da 02 10 67 	mov    $0x407fff671002dae5,%r13
  401764:	ff 7f 40 
  401767:	4c 89 94 24 78 06 00 	mov    %r10,0x678(%rsp)
  40176e:	00 
  40176f:	4c 89 8c 24 80 06 00 	mov    %r9,0x680(%rsp)
  401776:	00 
  401777:	49 bc 21 df ba 26 f1 	mov    $0x407ffdf126badf21,%r12
  40177e:	fd 7f 40 
  401781:	4c 89 84 24 88 06 00 	mov    %r8,0x688(%rsp)
  401788:	00 
  401789:	48 89 bc 24 90 06 00 	mov    %rdi,0x690(%rsp)
  401790:	00 
  401791:	49 bb 32 4d fd 69 77 	mov    $0x407fff7769fd4d32,%r11
  401798:	ff 7f 40 
  40179b:	48 89 b4 24 98 06 00 	mov    %rsi,0x698(%rsp)
  4017a2:	00 
  4017a3:	49 ba 13 bb 09 49 f9 	mov    $0x407ffdf94909bb13,%r10
  4017aa:	fd 7f 40 
  4017ad:	48 89 8c 24 a0 06 00 	mov    %rcx,0x6a0(%rsp)
  4017b4:	00 
  4017b5:	49 b9 b2 11 44 71 85 	mov    $0x407fff85714411b2,%r9
  4017bc:	ff 7f 40 
  4017bf:	48 89 94 24 a8 06 00 	mov    %rdx,0x6a8(%rsp)
  4017c6:	00 
  4017c7:	48 89 84 24 b0 06 00 	mov    %rax,0x6b0(%rsp)
  4017ce:	00 
  4017cf:	4c 89 bc 24 b8 06 00 	mov    %r15,0x6b8(%rsp)
  4017d6:	00 
  4017d7:	4c 89 b4 24 c0 06 00 	mov    %r14,0x6c0(%rsp)
  4017de:	00 
  4017df:	49 bf 6e 38 8d a4 1d 	mov    $0x407ffe1da48d386e,%r15
  4017e6:	fe 7f 40 
  4017e9:	49 b8 62 e9 d7 e8 01 	mov    $0x407ffe01e8d7e962,%r8
  4017f0:	fe 7f 40 
  4017f3:	48 bf 20 68 82 72 91 	mov    $0x407fff9172826820,%rdi
  4017fa:	ff 7f 40 
  4017fd:	48 be 41 0e 04 e8 0a 	mov    $0x407ffe0ae8040e41,%rsi
  401804:	fe 7f 40 
  401807:	48 b9 e0 26 66 b0 9b 	mov    $0x407fff9bb06626e0,%rcx
  40180e:	ff 7f 40 
  401811:	48 ba 17 2c 87 2d 14 	mov    $0x407ffe142d872c17,%rdx
  401818:	fe 7f 40 
  40181b:	48 b8 ce 9d f8 64 a4 	mov    $0x407fffa464f89dce,%rax
  401822:	ff 7f 40 
  401825:	49 be de 55 c8 c2 ab 	mov    $0x407fffabc2c855de,%r14
  40182c:	ff 7f 40 
  40182f:	4c 89 bc 24 20 07 00 	mov    %r15,0x720(%rsp)
  401836:	00 
  401837:	4c 89 ac 24 c8 06 00 	mov    %r13,0x6c8(%rsp)
  40183e:	00 
  40183f:	4c 89 a4 24 d0 06 00 	mov    %r12,0x6d0(%rsp)
  401846:	00 
  401847:	4c 89 9c 24 d8 06 00 	mov    %r11,0x6d8(%rsp)
  40184e:	00 
  40184f:	41 bf 19 00 00 00    	mov    $0x19,%r15d
  401855:	4c 89 94 24 e0 06 00 	mov    %r10,0x6e0(%rsp)
  40185c:	00 
  40185d:	4c 89 8c 24 e8 06 00 	mov    %r9,0x6e8(%rsp)
  401864:	00 
  401865:	4c 89 84 24 f0 06 00 	mov    %r8,0x6f0(%rsp)
  40186c:	00 
  40186d:	48 89 bc 24 f8 06 00 	mov    %rdi,0x6f8(%rsp)
  401874:	00 
  401875:	48 89 b4 24 00 07 00 	mov    %rsi,0x700(%rsp)
  40187c:	00 
  40187d:	48 89 8c 24 08 07 00 	mov    %rcx,0x708(%rsp)
  401884:	00 
  401885:	48 89 94 24 10 07 00 	mov    %rdx,0x710(%rsp)
  40188c:	00 
  40188d:	48 89 84 24 18 07 00 	mov    %rax,0x718(%rsp)
  401894:	00 
  401895:	4c 89 b4 24 28 07 00 	mov    %r14,0x728(%rsp)
  40189c:	00 
  40189d:	e9 ce 04 00 00       	jmpq   401d70 <verify_+0xd70>
  4018a2:	66 0f 1f 44 00 00    	nopw   0x0(%rax,%rax,1)
  4018a8:	3d 00 10 00 00       	cmp    $0x1000,%eax
  4018ad:	0f 85 ad f8 ff ff    	jne    401160 <verify_+0x160>
  4018b3:	81 3e 00 08 00 00    	cmpl   $0x800,(%rsi)
  4018b9:	0f 85 a1 f8 ff ff    	jne    401160 <verify_+0x160>
  4018bf:	81 3a 00 08 00 00    	cmpl   $0x800,(%rdx)
  4018c5:	0f 85 95 f8 ff ff    	jne    401160 <verify_+0x160>
  4018cb:	83 39 19             	cmpl   $0x19,(%rcx)
  4018ce:	66 90                	xchg   %ax,%ax
  4018d0:	0f 85 8a f8 ff ff    	jne    401160 <verify_+0x160>
  4018d6:	41 c6 01 45          	movb   $0x45,(%r9)
  4018da:	49 bd 63 e0 e2 e4 47 	mov    $0x40800147e4e2e063,%r13
  4018e1:	01 80 40 
  4018e4:	49 bc fd b5 a0 66 d5 	mov    $0x407ffbd566a0b5fd,%r12
  4018eb:	fb 7f 40 
  4018ee:	49 bb 5a 75 3a 6d b9 	mov    $0x408000b96d3a755a,%r11
  4018f5:	00 80 40 
  4018f8:	49 ba 9f a9 76 96 c8 	mov    $0x407ffdc89676a99f,%r10
  4018ff:	fd 7f 40 
  401902:	49 b9 be 25 2a a3 7f 	mov    $0x4080007fa32a25be,%r9
  401909:	00 80 40 
  40190c:	49 b8 f8 10 3a cb 84 	mov    $0x407ffe84cb3a10f8,%r8
  401913:	fe 7f 40 
  401916:	48 bf 40 2b c8 c9 59 	mov    $0x40800059c9c82b40,%rdi
  40191d:	00 80 40 
  401920:	48 be d6 7f b8 14 f4 	mov    $0x407ffef414b87fd6,%rsi
  401927:	fe 7f 40 
  40192a:	48 b9 c8 c9 b7 cc 3f 	mov    $0x4080003fccb7c9c8,%rcx
  401931:	00 80 40 
  401934:	48 ba 1e f1 12 39 48 	mov    $0x407fff483912f11e,%rdx
  40193b:	ff 7f 40 
  40193e:	48 b8 84 a0 90 4d 2e 	mov    $0x4080002e4d90a084,%rax
  401945:	00 80 40 
  401948:	4c 89 ac 24 a0 05 00 	mov    %r13,0x5a0(%rsp)
  40194f:	00 
  401950:	4c 89 a4 24 a8 05 00 	mov    %r12,0x5a8(%rsp)
  401957:	00 
  401958:	49 bf 58 e5 bc 62 8d 	mov    $0x407fff8d62bce558,%r15
  40195f:	ff 7f 40 
  401962:	4c 89 9c 24 b0 05 00 	mov    %r11,0x5b0(%rsp)
  401969:	00 
  40196a:	4c 89 94 24 b8 05 00 	mov    %r10,0x5b8(%rsp)
  401971:	00 
  401972:	49 be 7c 9d 03 ac 22 	mov    $0x40800022ac039d7c,%r14
  401979:	00 80 40 
  40197c:	4c 89 8c 24 c0 05 00 	mov    %r9,0x5c0(%rsp)
  401983:	00 
  401984:	4c 89 84 24 c8 05 00 	mov    %r8,0x5c8(%rsp)
  40198b:	00 
  40198c:	49 bd cd f7 c3 37 c7 	mov    $0x407fffc737c3f7cd,%r13
  401993:	ff 7f 40 
  401996:	48 89 bc 24 d0 05 00 	mov    %rdi,0x5d0(%rsp)
  40199d:	00 
  40199e:	48 89 b4 24 d8 05 00 	mov    %rsi,0x5d8(%rsp)
  4019a5:	00 
  4019a6:	49 bc b9 71 fa df 1a 	mov    $0x4080001adffa71b9,%r12
  4019ad:	00 80 40 
  4019b0:	48 89 8c 24 e0 05 00 	mov    %rcx,0x5e0(%rsp)
  4019b7:	00 
  4019b8:	48 89 94 24 e8 05 00 	mov    %rdx,0x5e8(%rsp)
  4019bf:	00 
  4019c0:	49 bb 55 62 33 8c f7 	mov    $0x407ffff78c336255,%r11
  4019c7:	ff 7f 40 
  4019ca:	48 89 84 24 f0 05 00 	mov    %rax,0x5f0(%rsp)
  4019d1:	00 
  4019d2:	49 ba 0c 52 d0 74 15 	mov    $0x4080001574d0520c,%r10
  4019d9:	00 80 40 
  4019dc:	49 b9 e9 03 5c e8 0f 	mov    $0x4080000fe85c03e9,%r9
  4019e3:	00 80 40 
  4019e6:	49 b8 44 42 28 6f 11 	mov    $0x408000116f284244,%r8
  4019ed:	00 80 40 
  4019f0:	48 bf 37 58 69 a7 20 	mov    $0x40800020a7695837,%rdi
  4019f7:	00 80 40 
  4019fa:	48 be 3f 81 56 2d 0e 	mov    $0x4080000e2d56813f,%rsi
  401a01:	00 80 40 
  401a04:	48 b9 34 7b 1f 95 2e 	mov    $0x4080002e951f7b34,%rcx
  401a0b:	00 80 40 
  401a0e:	48 ba 64 58 e0 4b 0b 	mov    $0x4080000b4be05864,%rdx
  401a15:	00 80 40 
  401a18:	48 b8 04 84 d0 2e 3a 	mov    $0x4080003a2ed08404,%rax
  401a1f:	00 80 40 
  401a22:	4c 89 bc 24 f8 05 00 	mov    %r15,0x5f8(%rsp)
  401a29:	00 
  401a2a:	4c 89 b4 24 00 06 00 	mov    %r14,0x600(%rsp)
  401a31:	00 
  401a32:	49 bf 2d ac 94 90 08 	mov    $0x408000089094ac2d,%r15
  401a39:	00 80 40 
  401a3c:	4c 89 ac 24 08 06 00 	mov    %r13,0x608(%rsp)
  401a43:	00 
  401a44:	4c 89 a4 24 10 06 00 	mov    %r12,0x610(%rsp)
  401a4b:	00 
  401a4c:	49 be f3 c2 87 dd 43 	mov    $0x40800043dd87c2f3,%r14
  401a53:	00 80 40 
  401a56:	4c 89 9c 24 18 06 00 	mov    %r11,0x618(%rsp)
  401a5d:	00 
  401a5e:	4c 89 94 24 20 06 00 	mov    %r10,0x620(%rsp)
  401a65:	00 
  401a66:	49 bd dd 34 bf db 05 	mov    $0x40800005dbbf34dd,%r13
  401a6d:	00 80 40 
  401a70:	4c 89 8c 24 28 06 00 	mov    %r9,0x628(%rsp)
  401a77:	00 
  401a78:	4c 89 84 24 30 06 00 	mov    %r8,0x630(%rsp)
  401a7f:	00 
  401a80:	49 bc 1a ac de f7 4b 	mov    $0x4080004bf7deac1a,%r12
  401a87:	00 80 40 
  401a8a:	48 89 bc 24 38 06 00 	mov    %rdi,0x638(%rsp)
  401a91:	00 
  401a92:	48 89 b4 24 40 06 00 	mov    %rsi,0x640(%rsp)
  401a99:	00 
  401a9a:	49 bb 83 cb 1f 1e 03 	mov    $0x408000031e1fcb83,%r11
  401aa1:	00 80 40 
  401aa4:	48 89 8c 24 48 06 00 	mov    %rcx,0x648(%rsp)
  401aab:	00 
  401aac:	48 89 94 24 50 06 00 	mov    %rdx,0x650(%rsp)
  401ab3:	00 
  401ab4:	49 ba c0 91 83 c4 52 	mov    $0x40800052c48391c0,%r10
  401abb:	00 80 40 
  401abe:	48 89 84 24 58 06 00 	mov    %rax,0x658(%rsp)
  401ac5:	00 
  401ac6:	49 b9 84 7a 50 52 00 	mov    $0x4080000052507a84,%r9
  401acd:	00 80 40 
  401ad0:	49 b8 a1 c3 d9 7c 58 	mov    $0x408000587cd9c3a1,%r8
  401ad7:	00 80 40 
  401ada:	48 bf 29 1c 11 f1 fa 	mov    $0x407ffffaf1111c29,%rdi
  401ae1:	ff 7f 40 
  401ae4:	48 be 97 8e 64 4f 5d 	mov    $0x4080005d4f648e97,%rsi
  401aeb:	00 80 40 
  401aee:	48 b9 b0 92 e7 27 f5 	mov    $0x407ffff527e792b0,%rcx
  401af5:	ff 7f 40 
  401af8:	48 ba 20 7a dd 61 61 	mov    $0x4080006161dd7a20,%rdx
  401aff:	00 80 40 
  401b02:	48 b8 58 a6 24 52 ef 	mov    $0x407fffef5224a658,%rax
  401b09:	ff 7f 40 
  401b0c:	4c 89 bc 24 60 06 00 	mov    %r15,0x660(%rsp)
  401b13:	00 
  401b14:	4c 89 b4 24 68 06 00 	mov    %r14,0x668(%rsp)
  401b1b:	00 
  401b1c:	4c 89 ac 24 70 06 00 	mov    %r13,0x670(%rsp)
  401b23:	00 
  401b24:	49 bf fb e0 f0 d2 64 	mov    $0x40800064d2f0e0fb,%r15
  401b2b:	00 80 40 
  401b2e:	4c 89 a4 24 78 06 00 	mov    %r12,0x678(%rsp)
  401b35:	00 
  401b36:	4c 89 9c 24 80 06 00 	mov    %r11,0x680(%rsp)
  401b3d:	00 
  401b3e:	49 be 2f 08 85 79 e9 	mov    $0x407fffe97985082f,%r14
  401b45:	ff 7f 40 
  401b48:	4c 89 94 24 88 06 00 	mov    %r10,0x688(%rsp)
  401b4f:	00 
  401b50:	4c 89 8c 24 90 06 00 	mov    %r9,0x690(%rsp)
  401b57:	00 
  401b58:	49 bd 61 67 a7 bb 67 	mov    $0x40800067bba76761,%r13
  401b5f:	00 80 40 
  401b62:	4c 89 84 24 98 06 00 	mov    %r8,0x698(%rsp)
  401b69:	00 
  401b6a:	49 bc 98 e1 6c a7 e3 	mov    $0x407fffe3a76ce198,%r12
  401b71:	ff 7f 40 
  401b74:	48 89 bc 24 a0 06 00 	mov    %rdi,0x6a0(%rsp)
  401b7b:	00 
  401b7c:	49 bb 3c f5 87 30 6a 	mov    $0x4080006a3087f53c,%r11
  401b83:	00 80 40 
  401b86:	48 89 b4 24 a8 06 00 	mov    %rsi,0x6a8(%rsp)
  401b8d:	00 
  401b8e:	48 89 8c 24 b0 06 00 	mov    %rcx,0x6b0(%rsp)
  401b95:	00 
  401b96:	48 89 94 24 b8 06 00 	mov    %rdx,0x6b8(%rsp)
  401b9d:	00 
  401b9e:	48 89 84 24 c0 06 00 	mov    %rax,0x6c0(%rsp)
  401ba5:	00 
  401ba6:	49 ba 2a ac 58 e4 dd 	mov    $0x407fffdde458ac2a,%r10
  401bad:	ff 7f 40 
  401bb0:	49 b9 cb 60 7e 42 6c 	mov    $0x4080006c427e60cb,%r9
  401bb7:	00 80 40 
  401bba:	49 b8 90 c1 9e 37 d8 	mov    $0x407fffd8379ec190,%r8
  401bc1:	ff 7f 40 
  401bc4:	48 bf bc 35 92 ff 6d 	mov    $0x4080006dff9235bc,%rdi
  401bcb:	00 80 40 
  401bce:	48 be a7 13 61 a7 d2 	mov    $0x407fffd2a76113a7,%rsi
  401bd5:	ff 7f 40 
  401bd8:	48 b9 3c 20 77 73 6f 	mov    $0x4080006f7377203c,%rcx
  401bdf:	00 80 40 
  401be2:	48 ba bc 47 99 38 cd 	mov    $0x407fffcd389947bc,%rdx
  401be9:	ff 7f 40 
  401bec:	48 b8 fd 2b ff a7 70 	mov    $0x40800070a7ff2bfd,%rax
  401bf3:	00 80 40 
  401bf6:	4c 89 bc 24 c8 06 00 	mov    %r15,0x6c8(%rsp)
  401bfd:	00 
  401bfe:	4c 89 b4 24 d0 06 00 	mov    %r14,0x6d0(%rsp)
  401c05:	00 
  401c06:	4c 89 ac 24 d8 06 00 	mov    %r13,0x6d8(%rsp)
  401c0d:	00 
  401c0e:	4c 89 a4 24 e0 06 00 	mov    %r12,0x6e0(%rsp)
  401c15:	00 
  401c16:	41 bf 19 00 00 00    	mov    $0x19,%r15d
  401c1c:	4c 89 9c 24 e8 06 00 	mov    %r11,0x6e8(%rsp)
  401c23:	00 
  401c24:	4c 89 94 24 f0 06 00 	mov    %r10,0x6f0(%rsp)
  401c2b:	00 
  401c2c:	4c 89 8c 24 f8 06 00 	mov    %r9,0x6f8(%rsp)
  401c33:	00 
  401c34:	4c 89 84 24 00 07 00 	mov    %r8,0x700(%rsp)
  401c3b:	00 
  401c3c:	48 89 bc 24 08 07 00 	mov    %rdi,0x708(%rsp)
  401c43:	00 
  401c44:	48 89 b4 24 10 07 00 	mov    %rsi,0x710(%rsp)
  401c4b:	00 
  401c4c:	48 89 8c 24 18 07 00 	mov    %rcx,0x718(%rsp)
  401c53:	00 
  401c54:	48 89 94 24 20 07 00 	mov    %rdx,0x720(%rsp)
  401c5b:	00 
  401c5c:	48 89 84 24 28 07 00 	mov    %rax,0x728(%rsp)
  401c63:	00 
  401c64:	e9 07 01 00 00       	jmpq   401d70 <verify_+0xd70>
  401c69:	0f 1f 80 00 00 00 00 	nopl   0x0(%rax)
  401c70:	83 3e 40             	cmpl   $0x40,(%rsi)
  401c73:	0f 85 e7 f4 ff ff    	jne    401160 <verify_+0x160>
  401c79:	83 3a 40             	cmpl   $0x40,(%rdx)
  401c7c:	0f 85 de f4 ff ff    	jne    401160 <verify_+0x160>
  401c82:	83 39 06             	cmpl   $0x6,(%rcx)
  401c85:	0f 85 d5 f4 ff ff    	jne    401160 <verify_+0x160>
  401c8b:	49 bf 9c 16 9f 6e 67 	mov    $0x408153676e9f169c,%r15
  401c92:	53 81 40 
  401c95:	41 c6 01 53          	movb   $0x53,(%r9)
  401c99:	49 ba c7 a8 5d 9e de 	mov    $0x408154de9e5da8c7,%r10
  401ca0:	54 81 40 
  401ca3:	49 b9 f6 84 1e d2 94 	mov    $0x407e4894d21e84f6,%r9
  401caa:	48 7e 40 
  401cad:	49 b8 ab 5e 57 bb 1b 	mov    $0x4081551bbb575eab,%r8
  401cb4:	55 81 40 
  401cb7:	48 bf 44 7e f8 a0 7c 	mov    $0x407e687ca0f87e44,%rdi
  401cbe:	68 7e 40 
  401cc1:	48 be 93 b5 8e 31 eb 	mov    $0x408154eb318eb593,%rsi
  401cc8:	54 81 40 
  401ccb:	48 b9 f9 5a f5 d4 41 	mov    $0x407e8641d4f55af9,%rcx
  401cd2:	86 7e 40 
  401cd5:	48 ba 04 7b 3a c1 56 	mov    $0x40815456c13a7b04,%rdx
  401cdc:	54 81 40 
  401cdf:	48 b8 c2 57 73 7d 09 	mov    $0x407ea2097d7357c2,%rax
  401ce6:	a2 7e 40 
  401ce9:	49 be 29 ef 86 1c f6 	mov    $0x407ebbf61c86ef29,%r14
  401cf0:	bb 7e 40 
  401cf3:	49 bd a1 e0 10 90 25 	mov    $0x408152259010e0a1,%r13
  401cfa:	52 81 40 
  401cfd:	49 bc 13 02 df d4 27 	mov    $0x407ed427d4df0213,%r12
  401d04:	d4 7e 40 
  401d07:	4c 89 bc 24 e0 05 00 	mov    %r15,0x5e0(%rsp)
  401d0e:	00 
  401d0f:	4c 89 94 24 a0 05 00 	mov    %r10,0x5a0(%rsp)
  401d16:	00 
  401d17:	4c 89 8c 24 a8 05 00 	mov    %r9,0x5a8(%rsp)
  401d1e:	00 
  401d1f:	4c 89 84 24 b0 05 00 	mov    %r8,0x5b0(%rsp)
  401d26:	00 
  401d27:	41 bf 06 00 00 00    	mov    $0x6,%r15d
  401d2d:	48 89 bc 24 b8 05 00 	mov    %rdi,0x5b8(%rsp)
  401d34:	00 
  401d35:	48 89 b4 24 c0 05 00 	mov    %rsi,0x5c0(%rsp)
  401d3c:	00 
  401d3d:	48 89 8c 24 c8 05 00 	mov    %rcx,0x5c8(%rsp)
  401d44:	00 
  401d45:	48 89 94 24 d0 05 00 	mov    %rdx,0x5d0(%rsp)
  401d4c:	00 
  401d4d:	48 89 84 24 d8 05 00 	mov    %rax,0x5d8(%rsp)
  401d54:	00 
  401d55:	4c 89 b4 24 e8 05 00 	mov    %r14,0x5e8(%rsp)
  401d5c:	00 
  401d5d:	4c 89 ac 24 f0 05 00 	mov    %r13,0x5f0(%rsp)
  401d64:	00 
  401d65:	4c 89 a4 24 f8 05 00 	mov    %r12,0x5f8(%rsp)
  401d6c:	00 
  401d6d:	0f 1f 00             	nopl   (%rax)
  401d70:	45 31 e4             	xor    %r12d,%r12d
  401d73:	41 bd 01 00 00 00    	mov    $0x1,%r13d
  401d79:	4c 8d b4 24 a0 05 00 	lea    0x5a0(%rsp),%r14
  401d80:	00 
  401d81:	eb 09                	jmp    401d8c <verify_+0xd8c>
  401d83:	0f 1f 44 00 00       	nopl   0x0(%rax,%rax,1)
  401d88:	41 83 c5 01          	add    $0x1,%r13d
  401d8c:	f2 43 0f 10 04 26    	movsd  (%r14,%r12,1),%xmm0
  401d92:	f2 43 0f 10 5c 26 08 	movsd  0x8(%r14,%r12,1),%xmm3
  401d99:	66 0f 28 e0          	movapd %xmm0,%xmm4
  401d9d:	f2 41 0f 10 94 24 90 	movsd  0x607790(%r12),%xmm2
  401da4:	77 60 00 
  401da7:	66 0f 28 eb          	movapd %xmm3,%xmm5
  401dab:	66 0f 54 25 6d 49 00 	andpd  0x496d(%rip),%xmm4        # 406720 <options.0.1582+0x20>
  401db2:	00 
  401db3:	f2 0f 5c d0          	subsd  %xmm0,%xmm2
  401db7:	66 0f 54 2d 61 49 00 	andpd  0x4961(%rip),%xmm5        # 406720 <options.0.1582+0x20>
  401dbe:	00 
  401dbf:	f2 41 0f 10 8c 24 98 	movsd  0x607798(%r12),%xmm1
  401dc6:	77 60 00 
  401dc9:	f2 0f 5c cb          	subsd  %xmm3,%xmm1
  401dcd:	66 0f 2e ec          	ucomisd %xmm4,%xmm5
  401dd1:	0f 86 22 05 00 00    	jbe    4022f9 <verify_+0x12f9>
  401dd7:	66 0f 28 e8          	movapd %xmm0,%xmm5
  401ddb:	f2 0f 5e eb          	divsd  %xmm3,%xmm5
  401ddf:	66 0f 28 e5          	movapd %xmm5,%xmm4
  401de3:	f2 0f 59 e0          	mulsd  %xmm0,%xmm4
  401de7:	66 0f 28 c2          	movapd %xmm2,%xmm0
  401deb:	f2 0f 59 c5          	mulsd  %xmm5,%xmm0
  401def:	f2 0f 58 e3          	addsd  %xmm3,%xmm4
  401df3:	f2 0f 58 c1          	addsd  %xmm1,%xmm0
  401df7:	f2 0f 59 cd          	mulsd  %xmm5,%xmm1
  401dfb:	f2 0f 5c ca          	subsd  %xmm2,%xmm1
  401dff:	f2 0f 5e c4          	divsd  %xmm4,%xmm0
  401e03:	f2 0f 5e cc          	divsd  %xmm4,%xmm1
  401e07:	e8 e4 ef ff ff       	callq  400df0 <cabs@plt>
  401e0c:	f2 0f 10 0d 2c 49 00 	movsd  0x492c(%rip),%xmm1        # 406740 <options.0.1582+0x40>
  401e13:	00 
  401e14:	66 0f 2e c8          	ucomisd %xmm0,%xmm1
  401e18:	0f 82 7a 04 00 00    	jb     402298 <verify_+0x1298>
  401e1e:	49 83 c4 10          	add    $0x10,%r12
  401e22:	45 39 fd             	cmp    %r15d,%r13d
  401e25:	0f 85 5d ff ff ff    	jne    401d88 <verify_+0xd88>
  401e2b:	c7 45 00 01 00 00 00 	movl   $0x1,0x0(%rbp)
  401e32:	48 8d ac 24 c0 03 00 	lea    0x3c0(%rsp),%rbp
  401e39:	00 
  401e3a:	48 c7 84 24 c8 03 00 	movq   $0x406424,0x3c8(%rsp)
  401e41:	00 24 64 40 00 
  401e46:	c7 84 24 d0 03 00 00 	movl   $0x446,0x3d0(%rsp)
  401e4d:	46 04 00 00 
  401e51:	48 c7 84 24 08 04 00 	movq   $0x406440,0x408(%rsp)
  401e58:	00 40 64 40 00 
  401e5d:	48 89 ef             	mov    %rbp,%rdi
  401e60:	c7 84 24 10 04 00 00 	movl   $0x23,0x410(%rsp)
  401e67:	23 00 00 00 
  401e6b:	c7 84 24 c0 03 00 00 	movl   $0x1000,0x3c0(%rsp)
  401e72:	00 10 00 00 
  401e76:	c7 84 24 c4 03 00 00 	movl   $0x6,0x3c4(%rsp)
  401e7d:	06 00 00 00 
  401e81:	e8 ca ef ff ff       	callq  400e50 <_gfortran_st_write@plt>
  401e86:	48 89 ef             	mov    %rbp,%rdi
  401e89:	e8 b2 ee ff ff       	callq  400d40 <_gfortran_st_write_done@plt>
  401e8e:	e9 cd f2 ff ff       	jmpq   401160 <verify_+0x160>
  401e93:	0f 1f 44 00 00       	nopl   0x0(%rax,%rax,1)
  401e98:	81 3a 00 01 00 00    	cmpl   $0x100,(%rdx)
  401e9e:	66 90                	xchg   %ax,%ax
  401ea0:	0f 85 ba f2 ff ff    	jne    401160 <verify_+0x160>
  401ea6:	83 39 14             	cmpl   $0x14,(%rcx)
  401ea9:	0f 1f 80 00 00 00 00 	nopl   0x0(%rax)
  401eb0:	0f 85 aa f2 ff ff    	jne    401160 <verify_+0x160>
  401eb6:	49 bd 27 1d 49 67 1d 	mov    $0x40802e1d67491d27,%r13
  401ebd:	2e 80 40 
  401ec0:	41 c6 01 42          	movb   $0x42,(%r9)
  401ec4:	49 bc b0 af f0 4b 7c 	mov    $0x407fbc7c4bf0afb0,%r12
  401ecb:	bc 7f 40 
  401ece:	4c 89 ac 24 a0 05 00 	mov    %r13,0x5a0(%rsp)
  401ed5:	00 
  401ed6:	49 bb 38 18 e0 f5 9d 	mov    $0x40801b9df5e01838,%r11
  401edd:	1b 80 40 
  401ee0:	49 ba 45 4d 99 f7 32 	mov    $0x407fcd32f7994d45,%r10
  401ee7:	cd 7f 40 
  401eea:	49 b9 08 c0 2a 9c 20 	mov    $0x408015209c2ac008,%r9
  401ef1:	15 80 40 
  401ef4:	49 b8 9a 16 ae 2b ef 	mov    $0x407fd9ef2bae169a,%r8
  401efb:	d9 7f 40 
  401efe:	48 bf fe 6f 55 2b e7 	mov    $0x408011e72b556ffe,%rdi
  401f05:	11 80 40 
  401f08:	48 be 94 37 f8 2d a3 	mov    $0x407fe1a32df83794,%rsi
  401f0f:	e1 7f 40 
  401f12:	48 b9 e6 2f a3 8a b3 	mov    $0x40800fb38aa32fe6,%rcx
  401f19:	0f 80 40 
  401f1c:	48 ba 4e 6e d8 d1 5c 	mov    $0x407fe65cd1d86e4e,%rdx
  401f23:	e6 7f 40 
  401f26:	48 b8 48 9c 1a 53 f0 	mov    $0x40800df0531a9c48,%rax
  401f2d:	0d 80 40 
  401f30:	49 bf e1 c8 14 4f 84 	mov    $0x407fe9844f14c8e1,%r15
  401f37:	e9 7f 40 
  401f3a:	49 be 0d 20 89 09 70 	mov    $0x40800c700989200d,%r14
  401f41:	0c 80 40 
  401f44:	49 bd 70 d3 0d bf d8 	mov    $0x407febd8bf0dd370,%r13
  401f4b:	eb 7f 40 
  401f4e:	4c 89 a4 24 a8 05 00 	mov    %r12,0x5a8(%rsp)
  401f55:	00 
  401f56:	4c 89 9c 24 b0 05 00 	mov    %r11,0x5b0(%rsp)
  401f5d:	00 
  401f5e:	4c 89 94 24 b8 05 00 	mov    %r10,0x5b8(%rsp)
  401f65:	00 
  401f66:	4c 89 8c 24 c0 05 00 	mov    %r9,0x5c0(%rsp)
  401f6d:	00 
  401f6e:	49 bc da 0a 21 f5 20 	mov    $0x40800b20f5210ada,%r12
  401f75:	0b 80 40 
  401f78:	4c 89 84 24 c8 05 00 	mov    %r8,0x5c8(%rsp)
  401f7f:	00 
  401f80:	48 89 bc 24 d0 05 00 	mov    %rdi,0x5d0(%rsp)
  401f87:	00 
  401f88:	49 bb 2b 29 ee f6 b8 	mov    $0x407fedb8f6ee292b,%r11
  401f8f:	ed 7f 40 
  401f92:	48 89 b4 24 d8 05 00 	mov    %rsi,0x5d8(%rsp)
  401f99:	00 
  401f9a:	48 89 8c 24 e0 05 00 	mov    %rcx,0x5e0(%rsp)
  401fa1:	00 
  401fa2:	49 ba 7b 66 1e 00 fa 	mov    $0x408009fa001e667b,%r10
  401fa9:	09 80 40 
  401fac:	48 89 94 24 e8 05 00 	mov    %rdx,0x5e8(%rsp)
  401fb3:	00 
  401fb4:	48 89 84 24 f0 05 00 	mov    %rax,0x5f0(%rsp)
  401fbb:	00 
  401fbc:	49 b9 8d c1 70 da 52 	mov    $0x407fef52da70c18d,%r9
  401fc3:	ef 7f 40 
  401fc6:	4c 89 bc 24 f8 05 00 	mov    %r15,0x5f8(%rsp)
  401fcd:	00 
  401fce:	4c 89 b4 24 00 06 00 	mov    %r14,0x600(%rsp)
  401fd5:	00 
  401fd6:	49 b8 93 b8 8b 4b f5 	mov    $0x408008f54b8bb893,%r8
  401fdd:	08 80 40 
  401fe0:	4c 89 ac 24 08 06 00 	mov    %r13,0x608(%rsp)
  401fe7:	00 
  401fe8:	48 bf 19 61 6c 8a bc 	mov    $0x407ff0bc8a6c6119,%rdi
  401fef:	f0 7f 40 
  401ff2:	48 be 9c 70 c1 66 0e 	mov    $0x4080080e66c1709c,%rsi
  401ff9:	08 80 40 
  401ffc:	48 b9 3f d2 33 ff 00 	mov    $0x407ff200ff33d23f,%rcx
  402003:	f2 7f 40 
  402006:	48 ba ad 37 5f a5 41 	mov    $0x40800741a55f37ad,%rdx
  40200d:	07 80 40 
  402010:	48 b8 ad f7 e7 1f 26 	mov    $0x407ff3261fe7f7ad,%rax
  402017:	f3 7f 40 
  40201a:	49 bf 74 36 c3 da 8b 	mov    $0x4080068bdac33674,%r15
  402021:	06 80 40 
  402024:	49 be c0 8d eb 9b 2f 	mov    $0x407ff42f9beb8dc0,%r14
  40202b:	f4 7f 40 
  40202e:	49 bd 43 9c 91 3c ea 	mov    $0x408005ea3c919c43,%r13
  402035:	05 80 40 
  402038:	4c 89 a4 24 10 06 00 	mov    %r12,0x610(%rsp)
  40203f:	00 
  402040:	4c 89 9c 24 18 06 00 	mov    %r11,0x618(%rsp)
  402047:	00 
  402048:	49 bc 54 b1 63 32 20 	mov    $0x407ff5203263b154,%r12
  40204f:	f5 7f 40 
  402052:	4c 89 94 24 20 06 00 	mov    %r10,0x620(%rsp)
  402059:	00 
  40205a:	4c 89 8c 24 28 06 00 	mov    %r9,0x628(%rsp)
  402061:	00 
  402062:	49 bb 20 39 5a 54 5a 	mov    $0x4080055a545a3920,%r11
  402069:	05 80 40 
  40206c:	4c 89 84 24 30 06 00 	mov    %r8,0x630(%rsp)
  402073:	00 
  402074:	48 89 bc 24 38 06 00 	mov    %rdi,0x638(%rsp)
  40207b:	00 
  40207c:	49 ba 6e 1f 74 3c fa 	mov    $0x407ff5fa3c741f6e,%r10
  402083:	f5 7f 40 
  402086:	48 89 b4 24 40 06 00 	mov    %rsi,0x640(%rsp)
  40208d:	00 
  40208e:	48 89 8c 24 48 06 00 	mov    %rcx,0x648(%rsp)
  402095:	00 
  402096:	49 b9 e1 b8 b6 f6 d9 	mov    $0x408004d9f6b6b8e1,%r9
  40209d:	04 80 40 
  4020a0:	48 89 94 24 50 06 00 	mov    %rdx,0x650(%rsp)
  4020a7:	00 
  4020a8:	48 89 84 24 58 06 00 	mov    %rax,0x658(%rsp)
  4020af:	00 
  4020b0:	49 b8 01 15 a6 e1 bf 	mov    $0x407ff6bfe1a61501,%r8
  4020b7:	f6 7f 40 
  4020ba:	4c 89 bc 24 60 06 00 	mov    %r15,0x660(%rsp)
  4020c1:	00 
  4020c2:	4c 89 b4 24 68 06 00 	mov    %r14,0x668(%rsp)
  4020c9:	00 
  4020ca:	49 bf a0 02 94 09 aa 	mov    $0x407ff8aa099402a0,%r15
  4020d1:	f8 7f 40 
  4020d4:	4c 89 ac 24 70 06 00 	mov    %r13,0x670(%rsp)
  4020db:	00 
  4020dc:	48 bf 44 32 21 3c 67 	mov    $0x408004673c213244,%rdi
  4020e3:	04 80 40 
  4020e6:	48 be b0 f7 a3 27 73 	mov    $0x407ff77327a3f7b0,%rsi
  4020ed:	f7 7f 40 
  4020f0:	48 b9 ea d0 3f 7a 00 	mov    $0x408004007a3fd0ea,%rcx
  4020f7:	04 80 40 
  4020fa:	48 ba de c1 f1 f3 15 	mov    $0x407ff815f3f1c1de,%rdx
  402101:	f8 7f 40 
  402104:	48 b8 3b 79 5f 3d a4 	mov    $0x408003a43d5f793b,%rax
  40210b:	03 80 40 
  40210e:	49 be df 2e 2d 42 51 	mov    $0x40800351422d2edf,%r14
  402115:	03 80 40 
  402118:	49 bd ee 52 a3 06 31 	mov    $0x407ff93106a352ee,%r13
  40211f:	f9 7f 40 
  402122:	4c 89 a4 24 78 06 00 	mov    %r12,0x678(%rsp)
  402129:	00 
  40212a:	4c 89 9c 24 80 06 00 	mov    %r11,0x680(%rsp)
  402131:	00 
  402132:	4c 89 94 24 88 06 00 	mov    %r10,0x688(%rsp)
  402139:	00 
  40213a:	4c 89 8c 24 90 06 00 	mov    %r9,0x690(%rsp)
  402141:	00 
  402142:	4c 89 84 24 98 06 00 	mov    %r8,0x698(%rsp)
  402149:	00 
  40214a:	48 89 bc 24 a0 06 00 	mov    %rdi,0x6a0(%rsp)
  402151:	00 
  402152:	4c 89 bc 24 c8 06 00 	mov    %r15,0x6c8(%rsp)
  402159:	00 
  40215a:	41 bf 14 00 00 00    	mov    $0x14,%r15d
  402160:	48 89 b4 24 a8 06 00 	mov    %rsi,0x6a8(%rsp)
  402167:	00 
  402168:	48 89 8c 24 b0 06 00 	mov    %rcx,0x6b0(%rsp)
  40216f:	00 
  402170:	48 89 94 24 b8 06 00 	mov    %rdx,0x6b8(%rsp)
  402177:	00 
  402178:	48 89 84 24 c0 06 00 	mov    %rax,0x6c0(%rsp)
  40217f:	00 
  402180:	4c 89 b4 24 d0 06 00 	mov    %r14,0x6d0(%rsp)
  402187:	00 
  402188:	4c 89 ac 24 d8 06 00 	mov    %r13,0x6d8(%rsp)
  40218f:	00 
  402190:	e9 db fb ff ff       	jmpq   401d70 <verify_+0xd70>
  402195:	0f 1f 00             	nopl   (%rax)
  402198:	83 3a 20             	cmpl   $0x20,(%rdx)
  40219b:	0f 85 bf ef ff ff    	jne    401160 <verify_+0x160>
  4021a1:	83 39 06             	cmpl   $0x6,(%rcx)
  4021a4:	0f 85 b6 ef ff ff    	jne    401160 <verify_+0x160>
  4021aa:	49 bf c9 36 0e 4b 85 	mov    $0x408067854b0e36c9,%r15
  4021b1:	67 80 40 
  4021b4:	41 c6 01 57          	movb   $0x57,(%r9)
  4021b8:	49 bb 6d 19 35 c6 e3 	mov    $0x4081bae3c635196d,%r11
  4021bf:	ba 81 40 
  4021c2:	49 ba 56 f1 67 f4 98 	mov    $0x40808a98f467f156,%r10
  4021c9:	8a 80 40 
  4021cc:	49 b9 a4 a5 2b 46 26 	mov    $0x40819926462ba5a4,%r9
  4021d3:	99 81 40 
  4021d6:	49 b8 b7 0e 38 51 b8 	mov    $0x408081b851380eb7,%r8
  4021dd:	81 80 40 
  4021e0:	48 bf d9 4d 35 22 38 	mov    $0x40817b3822354dd9,%rdi
  4021e7:	7b 81 40 
  4021ea:	48 be fc 8d 57 18 cc 	mov    $0x408078cc18578dfc,%rsi
  4021f1:	78 80 40 
  4021f4:	48 b9 94 81 c4 f5 8e 	mov    $0x4081608ef5c48194,%rcx
  4021fb:	60 81 40 
  4021fe:	48 ba 38 90 05 b7 05 	mov    $0x40807005b7059038,%rdx
  402205:	70 80 40 
  402208:	48 b8 83 4e 08 1d b8 	mov    $0x408148b81d084e83,%rax
  40220f:	48 81 40 
  402212:	49 be 9a e0 e3 e9 53 	mov    $0x40813353e9e3e09a,%r14
  402219:	33 81 40 
  40221c:	49 bd a2 5d 0f ab 5e 	mov    $0x40805f5eab0f5da2,%r13
  402223:	5f 80 40 
  402226:	4c 89 bc 24 e8 05 00 	mov    %r15,0x5e8(%rsp)
  40222d:	00 
  40222e:	4c 89 9c 24 a0 05 00 	mov    %r11,0x5a0(%rsp)
  402235:	00 
  402236:	4c 89 94 24 a8 05 00 	mov    %r10,0x5a8(%rsp)
  40223d:	00 
  40223e:	4c 89 8c 24 b0 05 00 	mov    %r9,0x5b0(%rsp)
  402245:	00 
  402246:	41 bf 06 00 00 00    	mov    $0x6,%r15d
  40224c:	4c 89 84 24 b8 05 00 	mov    %r8,0x5b8(%rsp)
  402253:	00 
  402254:	48 89 bc 24 c0 05 00 	mov    %rdi,0x5c0(%rsp)
  40225b:	00 
  40225c:	48 89 b4 24 c8 05 00 	mov    %rsi,0x5c8(%rsp)
  402263:	00 
  402264:	48 89 8c 24 d0 05 00 	mov    %rcx,0x5d0(%rsp)
  40226b:	00 
  40226c:	48 89 94 24 d8 05 00 	mov    %rdx,0x5d8(%rsp)
  402273:	00 
  402274:	48 89 84 24 e0 05 00 	mov    %rax,0x5e0(%rsp)
  40227b:	00 
  40227c:	4c 89 b4 24 f0 05 00 	mov    %r14,0x5f0(%rsp)
  402283:	00 
  402284:	4c 89 ac 24 f8 05 00 	mov    %r13,0x5f8(%rsp)
  40228b:	00 
  40228c:	e9 df fa ff ff       	jmpq   401d70 <verify_+0xd70>
  402291:	0f 1f 80 00 00 00 00 	nopl   0x0(%rax)
  402298:	48 8d ac 24 e0 01 00 	lea    0x1e0(%rsp),%rbp
  40229f:	00 
  4022a0:	48 c7 84 24 e8 01 00 	movq   $0x406424,0x1e8(%rsp)
  4022a7:	00 24 64 40 00 
  4022ac:	c7 84 24 f0 01 00 00 	movl   $0x449,0x1f0(%rsp)
  4022b3:	49 04 00 00 
  4022b7:	48 c7 84 24 28 02 00 	movq   $0x406470,0x228(%rsp)
  4022be:	00 70 64 40 00 
  4022c3:	c7 84 24 30 02 00 00 	movl   $0x1f,0x230(%rsp)
  4022ca:	1f 00 00 00 
  4022ce:	48 89 ef             	mov    %rbp,%rdi
  4022d1:	c7 84 24 e0 01 00 00 	movl   $0x1000,0x1e0(%rsp)
  4022d8:	00 10 00 00 
  4022dc:	c7 84 24 e4 01 00 00 	movl   $0x6,0x1e4(%rsp)
  4022e3:	06 00 00 00 
  4022e7:	e8 64 eb ff ff       	callq  400e50 <_gfortran_st_write@plt>
  4022ec:	48 89 ef             	mov    %rbp,%rdi
  4022ef:	e8 4c ea ff ff       	callq  400d40 <_gfortran_st_write_done@plt>
  4022f4:	e9 67 ee ff ff       	jmpq   401160 <verify_+0x160>
  4022f9:	66 0f 28 e3          	movapd %xmm3,%xmm4
  4022fd:	f2 0f 5e e0          	divsd  %xmm0,%xmm4
  402301:	f2 0f 59 dc          	mulsd  %xmm4,%xmm3
  402305:	f2 0f 58 d8          	addsd  %xmm0,%xmm3
  402309:	66 0f 28 c4          	movapd %xmm4,%xmm0
  40230d:	f2 0f 59 c1          	mulsd  %xmm1,%xmm0
  402311:	f2 0f 58 c2          	addsd  %xmm2,%xmm0
  402315:	f2 0f 59 d4          	mulsd  %xmm4,%xmm2
  402319:	f2 0f 5c ca          	subsd  %xmm2,%xmm1
  40231d:	f2 0f 5e c3          	divsd  %xmm3,%xmm0
  402321:	f2 0f 5e cb          	divsd  %xmm3,%xmm1
  402325:	e9 dd fa ff ff       	jmpq   401e07 <verify_+0xe07>
  40232a:	66 0f 1f 44 00 00    	nopw   0x0(%rax,%rax,1)

0000000000402330 <fftz2_>:
  402330:	41 57                	push   %r15
  402332:	41 56                	push   %r14
  402334:	41 55                	push   %r13
  402336:	41 54                	push   %r12
  402338:	45 31 e4             	xor    %r12d,%r12d
  40233b:	55                   	push   %rbp
  40233c:	53                   	push   %rbx
  40233d:	48 81 ec 88 00 00 00 	sub    $0x88,%rsp
  402344:	49 63 01             	movslq (%r9),%rax
  402347:	48 89 7c 24 18       	mov    %rdi,0x18(%rsp)
  40234c:	bf 02 00 00 00       	mov    $0x2,%edi
  402351:	4c 89 44 24 68       	mov    %r8,0x68(%rsp)
  402356:	48 89 54 24 08       	mov    %rdx,0x8(%rsp)
  40235b:	48 8b 9c 24 c8 00 00 	mov    0xc8(%rsp),%rbx
  402362:	00 
  402363:	48 8b ac 24 d0 00 00 	mov    0xd0(%rsp),%rbp
  40236a:	00 
  40236b:	48 85 c0             	test   %rax,%rax
  40236e:	4c 0f 49 e0          	cmovns %rax,%r12
  402372:	8b 01                	mov    (%rcx),%eax
  402374:	8b 0e                	mov    (%rsi),%ecx
  402376:	4d 89 e7             	mov    %r12,%r15
  402379:	49 f7 d7             	not    %r15
  40237c:	8d 71 ff             	lea    -0x1(%rcx),%esi
  40237f:	41 89 c6             	mov    %eax,%r14d
  402382:	89 4c 24 10          	mov    %ecx,0x10(%rsp)
  402386:	41 c1 ee 1f          	shr    $0x1f,%r14d
  40238a:	41 01 c6             	add    %eax,%r14d
  40238d:	e8 2e eb ff ff       	callq  400ec0 <_gfortran_pow_i4_i4@plt>
  402392:	48 8b 54 24 08       	mov    0x8(%rsp),%rdx
  402397:	8b 4c 24 10          	mov    0x10(%rsp),%ecx
  40239b:	bf 02 00 00 00       	mov    $0x2,%edi
  4023a0:	41 89 c5             	mov    %eax,%r13d
  4023a3:	41 d1 fe             	sar    %r14d
  4023a6:	8b 32                	mov    (%rdx),%esi
  4023a8:	29 ce                	sub    %ecx,%esi
  4023aa:	e8 11 eb ff ff       	callq  400ec0 <_gfortran_pow_i4_i4@plt>
  4023af:	89 44 24 54          	mov    %eax,0x54(%rsp)
  4023b3:	8b 4c 24 54          	mov    0x54(%rsp),%ecx
  4023b7:	83 c0 01             	add    $0x1,%eax
  4023ba:	43 8d 54 2d 00       	lea    0x0(%r13,%r13,1),%edx
  4023bf:	85 c9                	test   %ecx,%ecx
  4023c1:	0f 8e fe 01 00 00    	jle    4025c5 <fftz2_+0x295>
  4023c7:	48 8b 4c 24 18       	mov    0x18(%rsp),%rcx
  4023cc:	48 63 d2             	movslq %edx,%rdx
  4023cf:	48 98                	cltq   
  4023d1:	49 0f af d4          	imul   %r12,%rdx
  4023d5:	48 c1 e0 04          	shl    $0x4,%rax
  4023d9:	48 c7 44 24 18 00 00 	movq   $0x0,0x18(%rsp)
  4023e0:	00 00 
  4023e2:	f2 0f 10 3d 46 43 00 	movsd  0x4346(%rip),%xmm7        # 406730 <options.0.1582+0x30>
  4023e9:	00 
  4023ea:	c7 44 24 2c 00 00 00 	movl   $0x0,0x2c(%rsp)
  4023f1:	00 
  4023f2:	8b 09                	mov    (%rcx),%ecx
  4023f4:	48 89 54 24 58       	mov    %rdx,0x58(%rsp)
  4023f9:	48 8b 94 24 c0 00 00 	mov    0xc0(%rsp),%rdx
  402400:	00 
  402401:	89 4c 24 64          	mov    %ecx,0x64(%rsp)
  402405:	49 63 cd             	movslq %r13d,%rcx
  402408:	49 0f af cc          	imul   %r12,%rcx
  40240c:	48 8d 44 10 f0       	lea    -0x10(%rax,%rdx,1),%rax
  402411:	48 89 44 24 20       	mov    %rax,0x20(%rsp)
  402416:	48 83 c0 08          	add    $0x8,%rax
  40241a:	48 89 4c 24 48       	mov    %rcx,0x48(%rsp)
  40241f:	4b 8d 4c 3c 01       	lea    0x1(%r12,%r15,1),%rcx
  402424:	48 89 44 24 30       	mov    %rax,0x30(%rsp)
  402429:	48 89 4c 24 38       	mov    %rcx,0x38(%rsp)
  40242e:	48 8b 44 24 38       	mov    0x38(%rsp),%rax
  402433:	41 8d 4e 01          	lea    0x1(%r14),%ecx
  402437:	48 63 c9             	movslq %ecx,%rcx
  40243a:	48 89 44 24 70       	mov    %rax,0x70(%rsp)
  40243f:	41 8d 45 01          	lea    0x1(%r13),%eax
  402443:	49 0f af cc          	imul   %r12,%rcx
  402447:	48 98                	cltq   
  402449:	49 0f af c4          	imul   %r12,%rax
  40244d:	49 8d 4c 0f 01       	lea    0x1(%r15,%rcx,1),%rcx
  402452:	49 8d 44 07 01       	lea    0x1(%r15,%rax,1),%rax
  402457:	48 89 4c 24 40       	mov    %rcx,0x40(%rsp)
  40245c:	48 89 44 24 78       	mov    %rax,0x78(%rsp)
  402461:	0f 1f 80 00 00 00 00 	nopl   0x0(%rax)
  402468:	44 8b 5c 24 64       	mov    0x64(%rsp),%r11d
  40246d:	45 85 db             	test   %r11d,%r11d
  402470:	0f 8e 61 01 00 00    	jle    4025d7 <fftz2_+0x2a7>
  402476:	48 8b 54 24 20       	mov    0x20(%rsp),%rdx
  40247b:	48 8b 4c 24 30       	mov    0x30(%rsp),%rcx
  402480:	f2 0f 10 2a          	movsd  (%rdx),%xmm5
  402484:	f2 0f 10 21          	movsd  (%rcx),%xmm4
  402488:	45 85 ed             	test   %r13d,%r13d
  40248b:	0f 8e fc 00 00 00    	jle    40258d <fftz2_+0x25d>
  402491:	48 8b 4c 24 68       	mov    0x68(%rsp),%rcx
  402496:	4c 8b 7c 24 70       	mov    0x70(%rsp),%r15
  40249b:	45 31 c9             	xor    %r9d,%r9d
  40249e:	4c 8b 74 24 78       	mov    0x78(%rsp),%r14
  4024a3:	4c 03 7c 24 18       	add    0x18(%rsp),%r15
  4024a8:	4c 03 74 24 18       	add    0x18(%rsp),%r14
  4024ad:	4c 8b 5c 24 40       	mov    0x40(%rsp),%r11
  4024b2:	44 8b 01             	mov    (%rcx),%r8d
  4024b5:	4c 8b 54 24 38       	mov    0x38(%rsp),%r10
  4024ba:	66 0f 1f 44 00 00    	nopw   0x0(%rax,%rax,1)
  4024c0:	45 85 c0             	test   %r8d,%r8d
  4024c3:	0f 8e ab 00 00 00    	jle    402574 <fftz2_+0x244>
  4024c9:	4c 89 d6             	mov    %r10,%rsi
  4024cc:	4c 89 d9             	mov    %r11,%rcx
  4024cf:	4c 89 fa             	mov    %r15,%rdx
  4024d2:	4c 89 f0             	mov    %r14,%rax
  4024d5:	48 c1 e6 04          	shl    $0x4,%rsi
  4024d9:	48 c1 e1 04          	shl    $0x4,%rcx
  4024dd:	48 c1 e2 04          	shl    $0x4,%rdx
  4024e1:	48 c1 e0 04          	shl    $0x4,%rax
  4024e5:	48 8d 34 33          	lea    (%rbx,%rsi,1),%rsi
  4024e9:	48 8d 0c 0b          	lea    (%rbx,%rcx,1),%rcx
  4024ed:	48 8d 54 15 00       	lea    0x0(%rbp,%rdx,1),%rdx
  4024f2:	48 8d 44 05 00       	lea    0x0(%rbp,%rax,1),%rax
  4024f7:	31 ff                	xor    %edi,%edi
  4024f9:	0f 1f 80 00 00 00 00 	nopl   0x0(%rax)
  402500:	f2 0f 10 19          	movsd  (%rcx),%xmm3
  402504:	83 c7 01             	add    $0x1,%edi
  402507:	f2 0f 10 06          	movsd  (%rsi),%xmm0
  40250b:	66 0f 28 f3          	movapd %xmm3,%xmm6
  40250f:	f2 0f 10 49 08       	movsd  0x8(%rcx),%xmm1
  402514:	f2 0f 10 56 08       	movsd  0x8(%rsi),%xmm2
  402519:	48 83 c1 10          	add    $0x10,%rcx
  40251d:	f2 0f 58 f0          	addsd  %xmm0,%xmm6
  402521:	48 83 c6 10          	add    $0x10,%rsi
  402525:	f2 0f 5c c3          	subsd  %xmm3,%xmm0
  402529:	66 0f 28 dc          	movapd %xmm4,%xmm3
  40252d:	f2 0f 11 32          	movsd  %xmm6,(%rdx)
  402531:	66 0f 28 f1          	movapd %xmm1,%xmm6
  402535:	f2 0f 58 f2          	addsd  %xmm2,%xmm6
  402539:	f2 0f 5c d1          	subsd  %xmm1,%xmm2
  40253d:	66 0f 28 cd          	movapd %xmm5,%xmm1
  402541:	f2 0f 59 c8          	mulsd  %xmm0,%xmm1
  402545:	f2 0f 59 c4          	mulsd  %xmm4,%xmm0
  402549:	f2 0f 11 72 08       	movsd  %xmm6,0x8(%rdx)
  40254e:	48 83 c2 10          	add    $0x10,%rdx
  402552:	f2 0f 59 da          	mulsd  %xmm2,%xmm3
  402556:	f2 0f 59 d5          	mulsd  %xmm5,%xmm2
  40255a:	f2 0f 5c cb          	subsd  %xmm3,%xmm1
  40255e:	f2 0f 58 c2          	addsd  %xmm2,%xmm0
  402562:	f2 0f 11 08          	movsd  %xmm1,(%rax)
  402566:	f2 0f 11 40 08       	movsd  %xmm0,0x8(%rax)
  40256b:	48 83 c0 10          	add    $0x10,%rax
  40256f:	44 39 c7             	cmp    %r8d,%edi
  402572:	75 8c                	jne    402500 <fftz2_+0x1d0>
  402574:	41 83 c1 01          	add    $0x1,%r9d
  402578:	4d 01 e2             	add    %r12,%r10
  40257b:	4d 01 e3             	add    %r12,%r11
  40257e:	4d 01 e7             	add    %r12,%r15
  402581:	4d 01 e6             	add    %r12,%r14
  402584:	45 39 e9             	cmp    %r13d,%r9d
  402587:	0f 85 33 ff ff ff    	jne    4024c0 <fftz2_+0x190>
  40258d:	83 44 24 2c 01       	addl   $0x1,0x2c(%rsp)
  402592:	48 8b 44 24 48       	mov    0x48(%rsp),%rax
  402597:	48 8b 54 24 58       	mov    0x58(%rsp),%rdx
  40259c:	48 01 44 24 38       	add    %rax,0x38(%rsp)
  4025a1:	48 01 44 24 40       	add    %rax,0x40(%rsp)
  4025a6:	8b 4c 24 54          	mov    0x54(%rsp),%ecx
  4025aa:	48 01 54 24 18       	add    %rdx,0x18(%rsp)
  4025af:	48 83 44 24 20 10    	addq   $0x10,0x20(%rsp)
  4025b5:	48 83 44 24 30 10    	addq   $0x10,0x30(%rsp)
  4025bb:	39 4c 24 2c          	cmp    %ecx,0x2c(%rsp)
  4025bf:	0f 85 a3 fe ff ff    	jne    402468 <fftz2_+0x138>
  4025c5:	48 81 c4 88 00 00 00 	add    $0x88,%rsp
  4025cc:	5b                   	pop    %rbx
  4025cd:	5d                   	pop    %rbp
  4025ce:	41 5c                	pop    %r12
  4025d0:	41 5d                	pop    %r13
  4025d2:	41 5e                	pop    %r14
  4025d4:	41 5f                	pop    %r15
  4025d6:	c3                   	retq   
  4025d7:	48 8b 54 24 30       	mov    0x30(%rsp),%rdx
  4025dc:	48 8b 44 24 20       	mov    0x20(%rsp),%rax
  4025e1:	f2 0f 10 22          	movsd  (%rdx),%xmm4
  4025e5:	f2 0f 10 28          	movsd  (%rax),%xmm5
  4025e9:	66 0f 57 e7          	xorpd  %xmm7,%xmm4
  4025ed:	e9 96 fe ff ff       	jmpq   402488 <fftz2_+0x158>
  4025f2:	66 66 66 66 66 2e 0f 	data32 data32 data32 data32 nopw %cs:0x0(%rax,%rax,1)
  4025f9:	1f 84 00 00 00 00 00 

0000000000402600 <cfftz_>:
  402600:	41 57                	push   %r15
  402602:	49 89 d7             	mov    %rdx,%r15
  402605:	41 56                	push   %r14
  402607:	49 89 fe             	mov    %rdi,%r14
  40260a:	41 55                	push   %r13
  40260c:	49 89 cd             	mov    %rcx,%r13
  40260f:	41 54                	push   %r12
  402611:	4d 89 c4             	mov    %r8,%r12
  402614:	55                   	push   %rbp
  402615:	53                   	push   %rbx
  402616:	48 89 f3             	mov    %rsi,%rbx
  402619:	48 81 ec 28 02 00 00 	sub    $0x228,%rsp
  402620:	48 63 05 cd 51 20 00 	movslq 0x2051cd(%rip),%rax        # 6077f4 <blockinfo_+0x4>
  402627:	8b 17                	mov    (%rdi),%edx
  402629:	48 c7 44 24 20 00 00 	movq   $0x0,0x20(%rsp)
  402630:	00 00 
  402632:	f2 0f 10 05 46 d2 c2 	movsd  0xc2d246(%rip),%xmm0        # 102f880 <ucomm_>
  402639:	00 
  40263a:	48 85 c0             	test   %rax,%rax
  40263d:	48 0f 48 44 24 20    	cmovs  0x20(%rsp),%rax
  402643:	83 fa ff             	cmp    $0xffffffffffffffff,%edx
  402646:	48 89 44 24 20       	mov    %rax,0x20(%rsp)
  40264b:	48 f7 d0             	not    %rax
  40264e:	48 89 44 24 28       	mov    %rax,0x28(%rsp)
  402653:	f2 0f 2c c0          	cvttsd2si %xmm0,%eax
  402657:	89 84 24 18 02 00 00 	mov    %eax,0x218(%rsp)
  40265e:	0f 85 5e 01 00 00    	jne    4027c2 <cfftz_+0x1c2>
  402664:	8b 2b                	mov    (%rbx),%ebp
  402666:	85 ed                	test   %ebp,%ebp
  402668:	0f 8e 5d 01 00 00    	jle    4027cb <cfftz_+0x1cb>
  40266e:	39 e8                	cmp    %ebp,%eax
  402670:	0f 8c 55 01 00 00    	jl     4027cb <cfftz_+0x1cb>
  402676:	83 ed 01             	sub    $0x1,%ebp
  402679:	c7 84 24 1c 02 00 00 	movl   $0x1,0x21c(%rsp)
  402680:	01 00 00 00 
  402684:	d1 ed                	shr    %ebp
  402686:	eb 64                	jmp    4026ec <cfftz_+0xec>
  402688:	0f 1f 84 00 00 00 00 	nopl   0x0(%rax,%rax,1)
  40268f:	00 
  402690:	83 c0 01             	add    $0x1,%eax
  402693:	48 8d b4 24 14 02 00 	lea    0x214(%rsp),%rsi
  40269a:	00 
  40269b:	41 b9 f4 77 60 00    	mov    $0x6077f4,%r9d
  4026a1:	89 84 24 14 02 00 00 	mov    %eax,0x214(%rsp)
  4026a8:	41 b8 f0 77 60 00    	mov    $0x6077f0,%r8d
  4026ae:	31 c0                	xor    %eax,%eax
  4026b0:	4c 89 f9             	mov    %r15,%rcx
  4026b3:	48 89 da             	mov    %rbx,%rdx
  4026b6:	4c 89 f7             	mov    %r14,%rdi
  4026b9:	4c 89 6c 24 10       	mov    %r13,0x10(%rsp)
  4026be:	4c 89 64 24 08       	mov    %r12,0x8(%rsp)
  4026c3:	48 c7 04 24 80 f8 02 	movq   $0x102f880,(%rsp)
  4026ca:	01 
  4026cb:	e8 60 fc ff ff       	callq  402330 <fftz2_>
  4026d0:	85 ed                	test   %ebp,%ebp
  4026d2:	8b 84 24 1c 02 00 00 	mov    0x21c(%rsp),%eax
  4026d9:	0f 84 d1 00 00 00    	je     4027b0 <cfftz_+0x1b0>
  4026df:	83 c0 02             	add    $0x2,%eax
  4026e2:	83 ed 01             	sub    $0x1,%ebp
  4026e5:	89 84 24 1c 02 00 00 	mov    %eax,0x21c(%rsp)
  4026ec:	48 8d b4 24 1c 02 00 	lea    0x21c(%rsp),%rsi
  4026f3:	00 
  4026f4:	31 c0                	xor    %eax,%eax
  4026f6:	41 b9 f4 77 60 00    	mov    $0x6077f4,%r9d
  4026fc:	41 b8 f0 77 60 00    	mov    $0x6077f0,%r8d
  402702:	4c 89 f9             	mov    %r15,%rcx
  402705:	48 89 da             	mov    %rbx,%rdx
  402708:	4c 89 f7             	mov    %r14,%rdi
  40270b:	4c 89 64 24 10       	mov    %r12,0x10(%rsp)
  402710:	4c 89 6c 24 08       	mov    %r13,0x8(%rsp)
  402715:	48 c7 04 24 80 f8 02 	movq   $0x102f880,(%rsp)
  40271c:	01 
  40271d:	e8 0e fc ff ff       	callq  402330 <fftz2_>
  402722:	8b 84 24 1c 02 00 00 	mov    0x21c(%rsp),%eax
  402729:	39 03                	cmp    %eax,(%rbx)
  40272b:	0f 85 5f ff ff ff    	jne    402690 <cfftz_+0x90>
  402731:	45 8b 07             	mov    (%r15),%r8d
  402734:	45 85 c0             	test   %r8d,%r8d
  402737:	7e 77                	jle    4027b0 <cfftz_+0x1b0>
  402739:	48 8b 54 24 20       	mov    0x20(%rsp),%rdx
  40273e:	48 8b 44 24 28       	mov    0x28(%rsp),%rax
  402743:	bd 01 00 00 00       	mov    $0x1,%ebp
  402748:	8b 35 a2 50 20 00    	mov    0x2050a2(%rip),%esi        # 6077f0 <blockinfo_>
  40274e:	48 8d 7c 02 01       	lea    0x1(%rdx,%rax,1),%rdi
  402753:	49 89 d1             	mov    %rdx,%r9
  402756:	66 2e 0f 1f 84 00 00 	nopw   %cs:0x0(%rax,%rax,1)
  40275d:	00 00 00 
  402760:	85 f6                	test   %esi,%esi
  402762:	7e 39                	jle    40279d <cfftz_+0x19d>
  402764:	48 89 f8             	mov    %rdi,%rax
  402767:	31 c9                	xor    %ecx,%ecx
  402769:	48 c1 e0 04          	shl    $0x4,%rax
  40276d:	49 8d 14 04          	lea    (%r12,%rax,1),%rdx
  402771:	49 8d 44 05 00       	lea    0x0(%r13,%rax,1),%rax
  402776:	66 2e 0f 1f 84 00 00 	nopw   %cs:0x0(%rax,%rax,1)
  40277d:	00 00 00 
  402780:	48 8b 1a             	mov    (%rdx),%rbx
  402783:	83 c1 01             	add    $0x1,%ecx
  402786:	48 89 18             	mov    %rbx,(%rax)
  402789:	48 8b 5a 08          	mov    0x8(%rdx),%rbx
  40278d:	48 83 c2 10          	add    $0x10,%rdx
  402791:	48 89 58 08          	mov    %rbx,0x8(%rax)
  402795:	48 83 c0 10          	add    $0x10,%rax
  402799:	39 f1                	cmp    %esi,%ecx
  40279b:	75 e3                	jne    402780 <cfftz_+0x180>
  40279d:	4c 01 cf             	add    %r9,%rdi
  4027a0:	44 39 c5             	cmp    %r8d,%ebp
  4027a3:	74 0b                	je     4027b0 <cfftz_+0x1b0>
  4027a5:	83 c5 01             	add    $0x1,%ebp
  4027a8:	eb b6                	jmp    402760 <cfftz_+0x160>
  4027aa:	66 0f 1f 44 00 00    	nopw   0x0(%rax,%rax,1)
  4027b0:	48 81 c4 28 02 00 00 	add    $0x228,%rsp
  4027b7:	5b                   	pop    %rbx
  4027b8:	5d                   	pop    %rbp
  4027b9:	41 5c                	pop    %r12
  4027bb:	41 5d                	pop    %r13
  4027bd:	41 5e                	pop    %r14
  4027bf:	41 5f                	pop    %r15
  4027c1:	c3                   	retq   
  4027c2:	83 fa 01             	cmp    $0x1,%edx
  4027c5:	0f 84 99 fe ff ff    	je     402664 <cfftz_+0x64>
  4027cb:	48 8d 6c 24 30       	lea    0x30(%rsp),%rbp
  4027d0:	48 c7 44 24 38 24 64 	movq   $0x406424,0x38(%rsp)
  4027d7:	40 00 
  4027d9:	c7 44 24 40 db 02 00 	movl   $0x2db,0x40(%rsp)
  4027e0:	00 
  4027e1:	48 c7 44 24 78 90 64 	movq   $0x406490,0x78(%rsp)
  4027e8:	40 00 
  4027ea:	c7 84 24 80 00 00 00 	movl   $0x6b,0x80(%rsp)
  4027f1:	6b 00 00 00 
  4027f5:	48 89 ef             	mov    %rbp,%rdi
  4027f8:	c7 44 24 30 00 10 00 	movl   $0x1000,0x30(%rsp)
  4027ff:	00 
  402800:	c7 44 24 34 06 00 00 	movl   $0x6,0x34(%rsp)
  402807:	00 
  402808:	e8 43 e6 ff ff       	callq  400e50 <_gfortran_st_write@plt>
  40280d:	ba 04 00 00 00       	mov    $0x4,%edx
  402812:	4c 89 f6             	mov    %r14,%rsi
  402815:	48 89 ef             	mov    %rbp,%rdi
  402818:	e8 b3 e5 ff ff       	callq  400dd0 <_gfortran_transfer_integer@plt>
  40281d:	ba 04 00 00 00       	mov    $0x4,%edx
  402822:	48 89 de             	mov    %rbx,%rsi
  402825:	48 89 ef             	mov    %rbp,%rdi
  402828:	e8 a3 e5 ff ff       	callq  400dd0 <_gfortran_transfer_integer@plt>
  40282d:	48 8d b4 24 18 02 00 	lea    0x218(%rsp),%rsi
  402834:	00 
  402835:	ba 04 00 00 00       	mov    $0x4,%edx
  40283a:	48 89 ef             	mov    %rbp,%rdi
  40283d:	e8 8e e5 ff ff       	callq  400dd0 <_gfortran_transfer_integer@plt>
  402842:	48 89 ef             	mov    %rbp,%rdi
  402845:	e8 f6 e4 ff ff       	callq  400d40 <_gfortran_st_write_done@plt>
  40284a:	83 cf ff             	or     $0xffffffffffffffff,%edi
  40284d:	e8 3e e6 ff ff       	callq  400e90 <_gfortran_stop_numeric@plt>
  402852:	66 66 66 66 66 2e 0f 	data32 data32 data32 data32 nopw %cs:0x0(%rax,%rax,1)
  402859:	1f 84 00 00 00 00 00 

0000000000402860 <fft_init_>:
  402860:	41 57                	push   %r15
  402862:	31 c0                	xor    %eax,%eax
  402864:	41 56                	push   %r14
  402866:	41 55                	push   %r13
  402868:	41 54                	push   %r12
  40286a:	55                   	push   %rbp
  40286b:	53                   	push   %rbx
  40286c:	48 83 ec 48          	sub    $0x48,%rsp
  402870:	e8 5b e7 ff ff       	callq  400fd0 <ilog2_>
  402875:	f2 0f 2a c0          	cvtsi2sd %eax,%xmm0
  402879:	85 c0                	test   %eax,%eax
  40287b:	89 44 24 2c          	mov    %eax,0x2c(%rsp)
  40287f:	48 c7 05 fe cf c2 00 	movq   $0x0,0xc2cffe(%rip)        # 102f888 <ucomm_+0x8>
  402886:	00 00 00 00 
  40288a:	f2 0f 11 05 ee cf c2 	movsd  %xmm0,0xc2cfee(%rip)        # 102f880 <ucomm_>
  402891:	00 
  402892:	0f 8e ec 00 00 00    	jle    402984 <fft_init_+0x124>
  402898:	48 b8 00 00 00 00 00 	mov    $0x3ff0000000000000,%rax
  40289f:	00 f0 3f 
  4028a2:	4c 8d 74 24 38       	lea    0x38(%rsp),%r14
  4028a7:	4c 8d 6c 24 30       	lea    0x30(%rsp),%r13
  4028ac:	48 89 44 24 08       	mov    %rax,0x8(%rsp)
  4028b1:	31 d2                	xor    %edx,%edx
  4028b3:	41 bc 01 00 00 00    	mov    $0x1,%r12d
  4028b9:	f2 0f 10 4c 24 08    	movsd  0x8(%rsp),%xmm1
  4028bf:	c7 44 24 28 02 00 00 	movl   $0x2,0x28(%rsp)
  4028c6:	00 
  4028c7:	41 bf 01 00 00 00    	mov    $0x1,%r15d
  4028cd:	0f 1f 00             	nopl   (%rax)
  4028d0:	f2 0f 10 05 80 3e 00 	movsd  0x3e80(%rip),%xmm0        # 406758 <options.0.1582+0x58>
  4028d7:	00 
  4028d8:	48 63 4c 24 28       	movslq 0x28(%rsp),%rcx
  4028dd:	31 ed                	xor    %ebp,%ebp
  4028df:	f2 0f 5e c1          	divsd  %xmm1,%xmm0
  4028e3:	48 c1 e1 04          	shl    $0x4,%rcx
  4028e7:	48 8d 99 70 f8 02 01 	lea    0x102f870(%rcx),%rbx
  4028ee:	f2 0f 11 44 24 20    	movsd  %xmm0,0x20(%rsp)
  4028f4:	eb 29                	jmp    40291f <fft_init_+0xbf>
  4028f6:	66 2e 0f 1f 84 00 00 	nopw   %cs:0x0(%rax,%rax,1)
  4028fd:	00 00 00 
  402900:	f2 0f 2a c5          	cvtsi2sd %ebp,%xmm0
  402904:	4c 89 ee             	mov    %r13,%rsi
  402907:	4c 89 f7             	mov    %r14,%rdi
  40290a:	f2 0f 59 44 24 20    	mulsd  0x20(%rsp),%xmm0
  402910:	e8 4b e5 ff ff       	callq  400e60 <sincos@plt>
  402915:	48 8b 44 24 30       	mov    0x30(%rsp),%rax
  40291a:	48 8b 54 24 38       	mov    0x38(%rsp),%rdx
  40291f:	83 c5 01             	add    $0x1,%ebp
  402922:	48 89 03             	mov    %rax,(%rbx)
  402925:	48 89 53 08          	mov    %rdx,0x8(%rbx)
  402929:	48 83 c3 10          	add    $0x10,%rbx
  40292d:	44 39 e5             	cmp    %r12d,%ebp
  402930:	75 ce                	jne    402900 <fft_init_+0xa0>
  402932:	44 3b 7c 24 2c       	cmp    0x2c(%rsp),%r15d
  402937:	74 4b                	je     402984 <fft_init_+0x124>
  402939:	44 01 64 24 28       	add    %r12d,0x28(%rsp)
  40293e:	45 01 e4             	add    %r12d,%r12d
  402941:	4c 89 ee             	mov    %r13,%rsi
  402944:	f2 41 0f 2a cc       	cvtsi2sd %r12d,%xmm1
  402949:	4c 89 f7             	mov    %r14,%rdi
  40294c:	f2 0f 10 05 04 3e 00 	movsd  0x3e04(%rip),%xmm0        # 406758 <options.0.1582+0x58>
  402953:	00 
  402954:	41 83 c7 01          	add    $0x1,%r15d
  402958:	66 0f 57 d2          	xorpd  %xmm2,%xmm2
  40295c:	f2 0f 5e c1          	divsd  %xmm1,%xmm0
  402960:	f2 0f 11 4c 24 10    	movsd  %xmm1,0x10(%rsp)
  402966:	f2 0f 59 c2          	mulsd  %xmm2,%xmm0
  40296a:	e8 f1 e4 ff ff       	callq  400e60 <sincos@plt>
  40296f:	48 8b 44 24 30       	mov    0x30(%rsp),%rax
  402974:	48 8b 54 24 38       	mov    0x38(%rsp),%rdx
  402979:	f2 0f 10 4c 24 10    	movsd  0x10(%rsp),%xmm1
  40297f:	e9 4c ff ff ff       	jmpq   4028d0 <fft_init_+0x70>
  402984:	48 83 c4 48          	add    $0x48,%rsp
  402988:	5b                   	pop    %rbx
  402989:	5d                   	pop    %rbp
  40298a:	41 5c                	pop    %r12
  40298c:	41 5d                	pop    %r13
  40298e:	41 5e                	pop    %r14
  402990:	41 5f                	pop    %r15
  402992:	c3                   	retq   
  402993:	66 66 66 66 2e 0f 1f 	data32 data32 data32 nopw %cs:0x0(%rax,%rax,1)
  40299a:	84 00 00 00 00 00 

00000000004029a0 <fft_>:
  4029a0:	48 89 5c 24 e0       	mov    %rbx,-0x20(%rsp)
  4029a5:	4c 89 6c 24 f8       	mov    %r13,-0x8(%rsp)
  4029aa:	48 89 f3             	mov    %rsi,%rbx
  4029ad:	48 89 6c 24 e8       	mov    %rbp,-0x18(%rsp)
  4029b2:	4c 89 64 24 f0       	mov    %r12,-0x10(%rsp)
  4029b7:	48 81 ec 38 08 01 00 	sub    $0x10838,%rsp
  4029be:	83 3f 01             	cmpl   $0x1,(%rdi)
  4029c1:	49 89 d5             	mov    %rdx,%r13
  4029c4:	0f 84 b6 00 00 00    	je     402a80 <fft_+0xe0>
  4029ca:	48 8d 6c 24 10       	lea    0x10(%rsp),%rbp
  4029cf:	4c 8d a4 24 10 84 00 	lea    0x8410(%rsp),%r12
  4029d6:	00 
  4029d7:	49 89 f1             	mov    %rsi,%r9
  4029da:	49 89 f0             	mov    %rsi,%r8
  4029dd:	b9 68 77 60 00       	mov    $0x607768,%ecx
  4029e2:	ba 64 77 60 00       	mov    $0x607764,%edx
  4029e7:	be 60 77 60 00       	mov    $0x607760,%esi
  4029ec:	bf 00 65 40 00       	mov    $0x406500,%edi
  4029f1:	31 c0                	xor    %eax,%eax
  4029f3:	48 89 6c 24 08       	mov    %rbp,0x8(%rsp)
  4029f8:	4c 89 24 24          	mov    %r12,(%rsp)
  4029fc:	e8 bf 1f 00 00       	callq  4049c0 <cffts3_>
  402a01:	49 89 d9             	mov    %rbx,%r9
  402a04:	49 89 d8             	mov    %rbx,%r8
  402a07:	b9 68 77 60 00       	mov    $0x607768,%ecx
  402a0c:	ba 64 77 60 00       	mov    $0x607764,%edx
  402a11:	be 60 77 60 00       	mov    $0x607760,%esi
  402a16:	bf 00 65 40 00       	mov    $0x406500,%edi
  402a1b:	31 c0                	xor    %eax,%eax
  402a1d:	48 89 6c 24 08       	mov    %rbp,0x8(%rsp)
  402a22:	4c 89 24 24          	mov    %r12,(%rsp)
  402a26:	e8 85 21 00 00       	callq  404bb0 <cffts2_>
  402a2b:	4d 89 e9             	mov    %r13,%r9
  402a2e:	49 89 d8             	mov    %rbx,%r8
  402a31:	b9 68 77 60 00       	mov    $0x607768,%ecx
  402a36:	ba 64 77 60 00       	mov    $0x607764,%edx
  402a3b:	be 60 77 60 00       	mov    $0x607760,%esi
  402a40:	bf 00 65 40 00       	mov    $0x406500,%edi
  402a45:	31 c0                	xor    %eax,%eax
  402a47:	48 89 6c 24 08       	mov    %rbp,0x8(%rsp)
  402a4c:	4c 89 24 24          	mov    %r12,(%rsp)
  402a50:	e8 4b 23 00 00       	callq  404da0 <cffts1_>
  402a55:	48 8b 9c 24 18 08 01 	mov    0x10818(%rsp),%rbx
  402a5c:	00 
  402a5d:	48 8b ac 24 20 08 01 	mov    0x10820(%rsp),%rbp
  402a64:	00 
  402a65:	4c 8b a4 24 28 08 01 	mov    0x10828(%rsp),%r12
  402a6c:	00 
  402a6d:	4c 8b ac 24 30 08 01 	mov    0x10830(%rsp),%r13
  402a74:	00 
  402a75:	48 81 c4 38 08 01 00 	add    $0x10838,%rsp
  402a7c:	c3                   	retq   
  402a7d:	0f 1f 00             	nopl   (%rax)
  402a80:	48 8d 6c 24 10       	lea    0x10(%rsp),%rbp
  402a85:	4c 8d a4 24 10 84 00 	lea    0x8410(%rsp),%r12
  402a8c:	00 
  402a8d:	49 89 f1             	mov    %rsi,%r9
  402a90:	49 89 f0             	mov    %rsi,%r8
  402a93:	31 c0                	xor    %eax,%eax
  402a95:	b9 68 77 60 00       	mov    $0x607768,%ecx
  402a9a:	ba 64 77 60 00       	mov    $0x607764,%edx
  402a9f:	be 60 77 60 00       	mov    $0x607760,%esi
  402aa4:	bf fc 64 40 00       	mov    $0x4064fc,%edi
  402aa9:	48 89 6c 24 08       	mov    %rbp,0x8(%rsp)
  402aae:	4c 89 24 24          	mov    %r12,(%rsp)
  402ab2:	e8 e9 22 00 00       	callq  404da0 <cffts1_>
  402ab7:	49 89 d9             	mov    %rbx,%r9
  402aba:	49 89 d8             	mov    %rbx,%r8
  402abd:	31 c0                	xor    %eax,%eax
  402abf:	b9 68 77 60 00       	mov    $0x607768,%ecx
  402ac4:	ba 64 77 60 00       	mov    $0x607764,%edx
  402ac9:	be 60 77 60 00       	mov    $0x607760,%esi
  402ace:	bf fc 64 40 00       	mov    $0x4064fc,%edi
  402ad3:	48 89 6c 24 08       	mov    %rbp,0x8(%rsp)
  402ad8:	4c 89 24 24          	mov    %r12,(%rsp)
  402adc:	e8 cf 20 00 00       	callq  404bb0 <cffts2_>
  402ae1:	4d 89 e9             	mov    %r13,%r9
  402ae4:	49 89 d8             	mov    %rbx,%r8
  402ae7:	b9 68 77 60 00       	mov    $0x607768,%ecx
  402aec:	ba 64 77 60 00       	mov    $0x607764,%edx
  402af1:	be 60 77 60 00       	mov    $0x607760,%esi
  402af6:	bf fc 64 40 00       	mov    $0x4064fc,%edi
  402afb:	31 c0                	xor    %eax,%eax
  402afd:	48 89 6c 24 08       	mov    %rbp,0x8(%rsp)
  402b02:	4c 89 24 24          	mov    %r12,(%rsp)
  402b06:	e8 b5 1e 00 00       	callq  4049c0 <cffts3_>
  402b0b:	e9 45 ff ff ff       	jmpq   402a55 <fft_+0xb5>

0000000000402b10 <print_timers_>:
  402b10:	41 55                	push   %r13
  402b12:	bf fc 64 40 00       	mov    $0x4064fc,%edi
  402b17:	31 c0                	xor    %eax,%eax
  402b19:	41 54                	push   %r12
  402b1b:	55                   	push   %rbp
  402b1c:	53                   	push   %rbx
  402b1d:	48 81 ec 18 02 00 00 	sub    $0x218,%rsp
  402b24:	e8 e7 36 00 00       	callq  406210 <timer_read_>
  402b29:	f2 0f 11 44 24 08    	movsd  %xmm0,0x8(%rsp)
  402b2f:	f2 0f c2 05 10 3c 00 	cmpnlesd 0x3c10(%rip),%xmm0        # 406748 <options.0.1582+0x48>
  402b36:	00 06 
  402b38:	48 8d ac 24 0c 02 00 	lea    0x20c(%rsp),%rbp
  402b3f:	00 
  402b40:	f2 0f 10 15 08 3c 00 	movsd  0x3c08(%rip),%xmm2        # 406750 <options.0.1582+0x50>
  402b47:	00 
  402b48:	48 8d 5c 24 10       	lea    0x10(%rsp),%rbx
  402b4d:	f2 0f 10 4c 24 08    	movsd  0x8(%rsp),%xmm1
  402b53:	4c 8d ac 24 00 02 00 	lea    0x200(%rsp),%r13
  402b5a:	00 
  402b5b:	4c 8d a4 24 f8 01 00 	lea    0x1f8(%rsp),%r12
  402b62:	00 
  402b63:	c7 84 24 0c 02 00 00 	movl   $0x1,0x20c(%rsp)
  402b6a:	01 00 00 00 
  402b6e:	66 0f 54 c8          	andpd  %xmm0,%xmm1
  402b72:	66 0f 55 c2          	andnpd %xmm2,%xmm0
  402b76:	66 0f 56 c1          	orpd   %xmm1,%xmm0
  402b7a:	f2 0f 11 44 24 08    	movsd  %xmm0,0x8(%rsp)
  402b80:	31 c0                	xor    %eax,%eax
  402b82:	48 89 ef             	mov    %rbp,%rdi
  402b85:	e8 86 36 00 00       	callq  406210 <timer_read_>
  402b8a:	48 89 df             	mov    %rbx,%rdi
  402b8d:	f2 0f 11 84 24 00 02 	movsd  %xmm0,0x200(%rsp)
  402b94:	00 00 
  402b96:	48 c7 44 24 18 24 64 	movq   $0x406424,0x18(%rsp)
  402b9d:	40 00 
  402b9f:	c7 44 24 20 db 01 00 	movl   $0x1db,0x20(%rsp)
  402ba6:	00 
  402ba7:	48 c7 44 24 58 08 65 	movq   $0x406508,0x58(%rsp)
  402bae:	40 00 
  402bb0:	c7 44 24 60 37 00 00 	movl   $0x37,0x60(%rsp)
  402bb7:	00 
  402bb8:	c7 44 24 10 00 10 00 	movl   $0x1000,0x10(%rsp)
  402bbf:	00 
  402bc0:	c7 44 24 14 06 00 00 	movl   $0x6,0x14(%rsp)
  402bc7:	00 
  402bc8:	e8 83 e2 ff ff       	callq  400e50 <_gfortran_st_write@plt>
  402bcd:	ba 04 00 00 00       	mov    $0x4,%edx
  402bd2:	48 89 ee             	mov    %rbp,%rsi
  402bd5:	48 89 df             	mov    %rbx,%rdi
  402bd8:	e8 f3 e1 ff ff       	callq  400dd0 <_gfortran_transfer_integer@plt>
  402bdd:	48 63 84 24 0c 02 00 	movslq 0x20c(%rsp),%rax
  402be4:	00 
  402be5:	ba 19 00 00 00       	mov    $0x19,%edx
  402bea:	48 89 df             	mov    %rbx,%rdi
  402bed:	48 8d 44 80 fb       	lea    -0x5(%rax,%rax,4),%rax
  402bf2:	48 8d b4 80 60 76 60 	lea    0x607660(%rax,%rax,4),%rsi
  402bf9:	00 
  402bfa:	e8 11 e2 ff ff       	callq  400e10 <_gfortran_transfer_character@plt>
  402bff:	ba 08 00 00 00       	mov    $0x8,%edx
  402c04:	4c 89 ee             	mov    %r13,%rsi
  402c07:	48 89 df             	mov    %rbx,%rdi
  402c0a:	e8 71 e2 ff ff       	callq  400e80 <_gfortran_transfer_real@plt>
  402c0f:	f2 0f 10 05 49 3b 00 	movsd  0x3b49(%rip),%xmm0        # 406760 <options.0.1582+0x60>
  402c16:	00 
  402c17:	ba 08 00 00 00       	mov    $0x8,%edx
  402c1c:	4c 89 e6             	mov    %r12,%rsi
  402c1f:	48 89 df             	mov    %rbx,%rdi
  402c22:	f2 0f 59 84 24 00 02 	mulsd  0x200(%rsp),%xmm0
  402c29:	00 00 
  402c2b:	f2 0f 5e 44 24 08    	divsd  0x8(%rsp),%xmm0
  402c31:	f2 0f 11 84 24 f8 01 	movsd  %xmm0,0x1f8(%rsp)
  402c38:	00 00 
  402c3a:	e8 41 e2 ff ff       	callq  400e80 <_gfortran_transfer_real@plt>
  402c3f:	48 89 df             	mov    %rbx,%rdi
  402c42:	e8 f9 e0 ff ff       	callq  400d40 <_gfortran_st_write_done@plt>
  402c47:	8b 84 24 0c 02 00 00 	mov    0x20c(%rsp),%eax
  402c4e:	8d 50 01             	lea    0x1(%rax),%edx
  402c51:	83 f8 08             	cmp    $0x8,%eax
  402c54:	89 94 24 0c 02 00 00 	mov    %edx,0x20c(%rsp)
  402c5b:	0f 85 1f ff ff ff    	jne    402b80 <print_timers_+0x70>
  402c61:	48 81 c4 18 02 00 00 	add    $0x218,%rsp
  402c68:	5b                   	pop    %rbx
  402c69:	5d                   	pop    %rbp
  402c6a:	41 5c                	pop    %r12
  402c6c:	41 5d                	pop    %r13
  402c6e:	c3                   	retq   
  402c6f:	90                   	nop

0000000000402c70 <setup_>:
  402c70:	53                   	push   %rbx
  402c71:	48 81 ec 80 0a 00 00 	sub    $0xa80,%rsp
  402c78:	c7 05 ee cb c2 00 00 	movl   $0x0,0xc2cbee(%rip)        # 102f870 <dbg_>
  402c7f:	00 00 00 
  402c82:	48 8d 84 24 7c 0a 00 	lea    0xa7c(%rsp),%rax
  402c89:	00 
  402c8a:	48 8d bc 24 60 09 00 	lea    0x960(%rsp),%rdi
  402c91:	00 
  402c92:	48 c7 84 24 68 09 00 	movq   $0x406424,0x968(%rsp)
  402c99:	00 24 64 40 00 
  402c9e:	c7 84 24 70 09 00 00 	movl   $0x15a,0x970(%rsp)
  402ca5:	5a 01 00 00 
  402ca9:	c7 84 24 7c 0a 00 00 	movl   $0x0,0xa7c(%rsp)
  402cb0:	00 00 00 00 
  402cb4:	48 89 84 24 80 09 00 	mov    %rax,0x980(%rsp)
  402cbb:	00 
  402cbc:	48 c7 84 24 90 09 00 	movq   $0x40653f,0x990(%rsp)
  402cc3:	00 3f 65 40 00 
  402cc8:	c7 84 24 8c 09 00 00 	movl   $0xa,0x98c(%rsp)
  402ccf:	0a 00 00 00 
  402cd3:	48 c7 84 24 98 09 00 	movq   $0x406549,0x998(%rsp)
  402cda:	00 49 65 40 00 
  402cdf:	c7 84 24 a0 09 00 00 	movl   $0x3,0x9a0(%rsp)
  402ce6:	03 00 00 00 
  402cea:	c7 84 24 60 09 00 00 	movl   $0x320,0x960(%rsp)
  402cf1:	20 03 00 00 
  402cf5:	c7 84 24 64 09 00 00 	movl   $0x2,0x964(%rsp)
  402cfc:	02 00 00 00 
  402d00:	e8 2b e0 ff ff       	callq  400d30 <_gfortran_st_open@plt>
  402d05:	44 8b 84 24 7c 0a 00 	mov    0xa7c(%rsp),%r8d
  402d0c:	00 
  402d0d:	45 85 c0             	test   %r8d,%r8d
  402d10:	0f 84 5a 02 00 00    	je     402f70 <setup_+0x300>
  402d16:	c7 05 58 cb c2 00 00 	movl   $0x0,0xc2cb58(%rip)        # 102f878 <dbg_+0x8>
  402d1d:	00 00 00 
  402d20:	48 8d 9c 24 80 07 00 	lea    0x780(%rsp),%rbx
  402d27:	00 
  402d28:	48 c7 84 24 88 07 00 	movq   $0x406424,0x788(%rsp)
  402d2f:	00 24 64 40 00 
  402d34:	c7 84 24 90 07 00 00 	movl   $0x162,0x790(%rsp)
  402d3b:	62 01 00 00 
  402d3f:	48 c7 84 24 c8 07 00 	movq   $0x406550,0x7c8(%rsp)
  402d46:	00 50 65 40 00 
  402d4b:	c7 84 24 d0 07 00 00 	movl   $0x5b,0x7d0(%rsp)
  402d52:	5b 00 00 00 
  402d56:	48 89 df             	mov    %rbx,%rdi
  402d59:	c7 84 24 80 07 00 00 	movl   $0x1000,0x780(%rsp)
  402d60:	00 10 00 00 
  402d64:	c7 84 24 84 07 00 00 	movl   $0x6,0x784(%rsp)
  402d6b:	06 00 00 00 
  402d6f:	e8 dc e0 ff ff       	callq  400e50 <_gfortran_st_write@plt>
  402d74:	48 89 df             	mov    %rbx,%rdi
  402d77:	48 8d 9c 24 a0 05 00 	lea    0x5a0(%rsp),%rbx
  402d7e:	00 
  402d7f:	e8 bc df ff ff       	callq  400d40 <_gfortran_st_write_done@plt>
  402d84:	48 89 df             	mov    %rbx,%rdi
  402d87:	48 c7 84 24 a8 05 00 	movq   $0x406424,0x5a8(%rsp)
  402d8e:	00 24 64 40 00 
  402d93:	c7 84 24 b0 05 00 00 	movl   $0x166,0x5b0(%rsp)
  402d9a:	66 01 00 00 
  402d9e:	48 c7 84 24 e8 05 00 	movq   $0x4065b0,0x5e8(%rsp)
  402da5:	00 b0 65 40 00 
  402daa:	c7 84 24 f0 05 00 00 	movl   $0x31,0x5f0(%rsp)
  402db1:	31 00 00 00 
  402db5:	c7 84 24 a0 05 00 00 	movl   $0x1000,0x5a0(%rsp)
  402dbc:	00 10 00 00 
  402dc0:	c7 84 24 a4 05 00 00 	movl   $0x6,0x5a4(%rsp)
  402dc7:	06 00 00 00 
  402dcb:	c7 05 8b ca c2 00 06 	movl   $0x6,0xc2ca8b(%rip)        # 102f860 <iter_>
  402dd2:	00 00 00 
  402dd5:	e8 76 e0 ff ff       	callq  400e50 <_gfortran_st_write@plt>
  402dda:	48 89 df             	mov    %rbx,%rdi
  402ddd:	ba 04 00 00 00       	mov    $0x4,%edx
  402de2:	be e4 65 40 00       	mov    $0x4065e4,%esi
  402de7:	e8 e4 df ff ff       	callq  400dd0 <_gfortran_transfer_integer@plt>
  402dec:	48 89 df             	mov    %rbx,%rdi
  402def:	ba 04 00 00 00       	mov    $0x4,%edx
  402df4:	be e4 65 40 00       	mov    $0x4065e4,%esi
  402df9:	e8 d2 df ff ff       	callq  400dd0 <_gfortran_transfer_integer@plt>
  402dfe:	ba 04 00 00 00       	mov    $0x4,%edx
  402e03:	be e4 65 40 00       	mov    $0x4065e4,%esi
  402e08:	48 89 df             	mov    %rbx,%rdi
  402e0b:	e8 c0 df ff ff       	callq  400dd0 <_gfortran_transfer_integer@plt>
  402e10:	48 89 df             	mov    %rbx,%rdi
  402e13:	48 8d 9c 24 c0 03 00 	lea    0x3c0(%rsp),%rbx
  402e1a:	00 
  402e1b:	e8 20 df ff ff       	callq  400d40 <_gfortran_st_write_done@plt>
  402e20:	48 89 df             	mov    %rbx,%rdi
  402e23:	48 c7 84 24 c8 03 00 	movq   $0x406424,0x3c8(%rsp)
  402e2a:	00 24 64 40 00 
  402e2f:	c7 84 24 d0 03 00 00 	movl   $0x167,0x3d0(%rsp)
  402e36:	67 01 00 00 
  402e3a:	48 c7 84 24 08 04 00 	movq   $0x4065e8,0x408(%rsp)
  402e41:	00 e8 65 40 00 
  402e46:	c7 84 24 10 04 00 00 	movl   $0x26,0x410(%rsp)
  402e4d:	26 00 00 00 
  402e51:	c7 84 24 c0 03 00 00 	movl   $0x1000,0x3c0(%rsp)
  402e58:	00 10 00 00 
  402e5c:	c7 84 24 c4 03 00 00 	movl   $0x6,0x3c4(%rsp)
  402e63:	06 00 00 00 
  402e67:	e8 e4 df ff ff       	callq  400e50 <_gfortran_st_write@plt>
  402e6c:	ba 04 00 00 00       	mov    $0x4,%edx
  402e71:	be 60 f8 02 01       	mov    $0x102f860,%esi
  402e76:	48 89 df             	mov    %rbx,%rdi
  402e79:	e8 52 df ff ff       	callq  400dd0 <_gfortran_transfer_integer@plt>
  402e7e:	48 89 df             	mov    %rbx,%rdi
  402e81:	48 8d 9c 24 e0 01 00 	lea    0x1e0(%rsp),%rbx
  402e88:	00 
  402e89:	e8 b2 de ff ff       	callq  400d40 <_gfortran_st_write_done@plt>
  402e8e:	48 89 df             	mov    %rbx,%rdi
  402e91:	48 c7 84 24 e8 01 00 	movq   $0x406424,0x1e8(%rsp)
  402e98:	00 24 64 40 00 
  402e9d:	c7 84 24 f0 01 00 00 	movl   $0x168,0x1f0(%rsp)
  402ea4:	68 01 00 00 
  402ea8:	48 c7 84 24 28 02 00 	movq   $0x406610,0x228(%rsp)
  402eaf:	00 10 66 40 00 
  402eb4:	c7 84 24 30 02 00 00 	movl   $0x26,0x230(%rsp)
  402ebb:	26 00 00 00 
  402ebf:	c7 84 24 e0 01 00 00 	movl   $0x1000,0x1e0(%rsp)
  402ec6:	00 10 00 00 
  402eca:	c7 84 24 e4 01 00 00 	movl   $0x6,0x1e4(%rsp)
  402ed1:	06 00 00 00 
  402ed5:	e8 76 df ff ff       	callq  400e50 <_gfortran_st_write@plt>
  402eda:	31 c0                	xor    %eax,%eax
  402edc:	e8 8f df ff ff       	callq  400e70 <omp_get_max_threads_@plt>
  402ee1:	48 8d b4 24 78 0a 00 	lea    0xa78(%rsp),%rsi
  402ee8:	00 
  402ee9:	ba 04 00 00 00       	mov    $0x4,%edx
  402eee:	48 89 df             	mov    %rbx,%rdi
  402ef1:	89 84 24 78 0a 00 00 	mov    %eax,0xa78(%rsp)
  402ef8:	e8 d3 de ff ff       	callq  400dd0 <_gfortran_transfer_integer@plt>
  402efd:	48 89 df             	mov    %rbx,%rdi
  402f00:	e8 3b de ff ff       	callq  400d40 <_gfortran_st_write_done@plt>
  402f05:	48 89 e7             	mov    %rsp,%rdi
  402f08:	48 c7 44 24 08 24 64 	movq   $0x406424,0x8(%rsp)
  402f0f:	40 00 
  402f11:	c7 44 24 10 69 01 00 	movl   $0x169,0x10(%rsp)
  402f18:	00 
  402f19:	c7 04 24 80 00 00 00 	movl   $0x80,(%rsp)
  402f20:	c7 44 24 04 06 00 00 	movl   $0x6,0x4(%rsp)
  402f27:	00 
  402f28:	e8 23 df ff ff       	callq  400e50 <_gfortran_st_write@plt>
  402f2d:	48 89 e7             	mov    %rsp,%rdi
  402f30:	e8 0b de ff ff       	callq  400d40 <_gfortran_st_write_done@plt>
  402f35:	c7 05 21 48 20 00 40 	movl   $0x40,0x204821(%rip)        # 607760 <layout_>
  402f3c:	00 00 00 
  402f3f:	c7 05 1b 48 20 00 40 	movl   $0x40,0x20481b(%rip)        # 607764 <layout_+0x4>
  402f46:	00 00 00 
  402f49:	c7 05 15 48 20 00 40 	movl   $0x40,0x204815(%rip)        # 607768 <layout_+0x8>
  402f50:	00 00 00 
  402f53:	c7 05 93 48 20 00 20 	movl   $0x20,0x204893(%rip)        # 6077f0 <blockinfo_>
  402f5a:	00 00 00 
  402f5d:	c7 05 8d 48 20 00 21 	movl   $0x21,0x20488d(%rip)        # 6077f4 <blockinfo_+0x4>
  402f64:	00 00 00 
  402f67:	48 81 c4 80 0a 00 00 	add    $0xa80,%rsp
  402f6e:	5b                   	pop    %rbx
  402f6f:	c3                   	retq   
  402f70:	48 8d bc 24 40 0a 00 	lea    0xa40(%rsp),%rdi
  402f77:	00 
  402f78:	48 c7 84 24 48 0a 00 	movq   $0x406424,0xa48(%rsp)
  402f7f:	00 24 64 40 00 
  402f84:	c7 84 24 50 0a 00 00 	movl   $0x15d,0xa50(%rsp)
  402f8b:	5d 01 00 00 
  402f8f:	c7 84 24 40 0a 00 00 	movl   $0x0,0xa40(%rsp)
  402f96:	00 00 00 00 
  402f9a:	c7 84 24 44 0a 00 00 	movl   $0x2,0xa44(%rsp)
  402fa1:	02 00 00 00 
  402fa5:	c7 05 c9 c8 c2 00 01 	movl   $0x1,0xc2c8c9(%rip)        # 102f878 <dbg_+0x8>
  402fac:	00 00 00 
  402faf:	e8 2c de ff ff       	callq  400de0 <_gfortran_st_close@plt>
  402fb4:	e9 67 fd ff ff       	jmpq   402d20 <setup_+0xb0>
  402fb9:	0f 1f 80 00 00 00 00 	nopl   0x0(%rax)

0000000000402fc0 <ipow46_>:
  402fc0:	41 56                	push   %r14
  402fc2:	49 ba 00 00 00 00 00 	mov    $0x3ff0000000000000,%r10
  402fc9:	00 f0 3f 
  402fcc:	49 89 d6             	mov    %rdx,%r14
  402fcf:	41 55                	push   %r13
  402fd1:	41 54                	push   %r12
  402fd3:	55                   	push   %rbp
  402fd4:	53                   	push   %rbx
  402fd5:	48 83 ec 10          	sub    $0x10,%rsp
  402fd9:	8b 1e                	mov    (%rsi),%ebx
  402fdb:	4c 89 12             	mov    %r10,(%rdx)
  402fde:	85 db                	test   %ebx,%ebx
  402fe0:	74 6f                	je     403051 <ipow46_+0x91>
  402fe2:	48 8b 07             	mov    (%rdi),%rax
  402fe5:	49 b9 00 00 00 00 00 	mov    $0x3ff0000000000000,%r9
  402fec:	00 f0 3f 
  402fef:	83 fb 01             	cmp    $0x1,%ebx
  402ff2:	4c 89 0c 24          	mov    %r9,(%rsp)
  402ff6:	4c 8d 64 24 08       	lea    0x8(%rsp),%r12
  402ffb:	48 89 44 24 08       	mov    %rax,0x8(%rsp)
  403000:	7f 1b                	jg     40301d <ipow46_+0x5d>
  403002:	eb 5a                	jmp    40305e <ipow46_+0x9e>
  403004:	0f 1f 40 00          	nopl   0x0(%rax)
  403008:	31 c0                	xor    %eax,%eax
  40300a:	4c 89 e6             	mov    %r12,%rsi
  40300d:	48 89 e7             	mov    %rsp,%rdi
  403010:	83 eb 01             	sub    $0x1,%ebx
  403013:	e8 08 24 00 00       	callq  405420 <randlc_>
  403018:	83 fb 01             	cmp    $0x1,%ebx
  40301b:	7e 20                	jle    40303d <ipow46_+0x7d>
  40301d:	89 dd                	mov    %ebx,%ebp
  40301f:	d1 fd                	sar    %ebp
  403021:	8d 44 2d 00          	lea    0x0(%rbp,%rbp,1),%eax
  403025:	39 d8                	cmp    %ebx,%eax
  403027:	75 df                	jne    403008 <ipow46_+0x48>
  403029:	31 c0                	xor    %eax,%eax
  40302b:	4c 89 e6             	mov    %r12,%rsi
  40302e:	4c 89 e7             	mov    %r12,%rdi
  403031:	89 eb                	mov    %ebp,%ebx
  403033:	e8 e8 23 00 00       	callq  405420 <randlc_>
  403038:	83 fb 01             	cmp    $0x1,%ebx
  40303b:	7f e0                	jg     40301d <ipow46_+0x5d>
  40303d:	31 c0                	xor    %eax,%eax
  40303f:	4c 89 e6             	mov    %r12,%rsi
  403042:	48 89 e7             	mov    %rsp,%rdi
  403045:	e8 d6 23 00 00       	callq  405420 <randlc_>
  40304a:	48 8b 04 24          	mov    (%rsp),%rax
  40304e:	49 89 06             	mov    %rax,(%r14)
  403051:	48 83 c4 10          	add    $0x10,%rsp
  403055:	5b                   	pop    %rbx
  403056:	5d                   	pop    %rbp
  403057:	41 5c                	pop    %r12
  403059:	41 5d                	pop    %r13
  40305b:	41 5e                	pop    %r14
  40305d:	c3                   	retq   
  40305e:	4c 8d 64 24 08       	lea    0x8(%rsp),%r12
  403063:	eb d8                	jmp    40303d <ipow46_+0x7d>
  403065:	66 66 2e 0f 1f 84 00 	data32 nopw %cs:0x0(%rax,%rax,1)
  40306c:	00 00 00 00 

0000000000403070 <MAIN__>:
  403070:	55                   	push   %rbp
  403071:	be 00 67 40 00       	mov    $0x406700,%esi
  403076:	bf 08 00 00 00       	mov    $0x8,%edi
  40307b:	53                   	push   %rbx
  40307c:	48 81 ec f8 00 00 00 	sub    $0xf8,%rsp
  403083:	48 8d 9c 24 e8 00 00 	lea    0xe8(%rsp),%rbx
  40308a:	00 
  40308b:	e8 00 dd ff ff       	callq  400d90 <_gfortran_set_options@plt>
  403090:	c7 84 24 e8 00 00 00 	movl   $0x1,0xe8(%rsp)
  403097:	01 00 00 00 
  40309b:	31 c0                	xor    %eax,%eax
  40309d:	48 89 df             	mov    %rbx,%rdi
  4030a0:	e8 4b 31 00 00       	callq  4061f0 <timer_clear_>
  4030a5:	8b 84 24 e8 00 00 00 	mov    0xe8(%rsp),%eax
  4030ac:	8d 50 01             	lea    0x1(%rax),%edx
  4030af:	83 f8 08             	cmp    $0x8,%eax
  4030b2:	89 94 24 e8 00 00 00 	mov    %edx,0xe8(%rsp)
  4030b9:	75 e0                	jne    40309b <MAIN__+0x2b>
  4030bb:	31 c0                	xor    %eax,%eax
  4030bd:	e8 ae fb ff ff       	callq  402c70 <setup_>
  4030c2:	41 b9 68 77 60 00    	mov    $0x607768,%r9d
  4030c8:	41 b8 64 77 60 00    	mov    $0x607764,%r8d
  4030ce:	b9 60 77 60 00       	mov    $0x607760,%ecx
  4030d3:	ba 60 78 e2 00       	mov    $0xe27860,%edx
  4030d8:	be 30 78 a1 00       	mov    $0xa17830,%esi
  4030dd:	bf 00 78 60 00       	mov    $0x607800,%edi
  4030e2:	31 c0                	xor    %eax,%eax
  4030e4:	e8 97 17 00 00       	callq  404880 <init_ui_>
  4030e9:	b9 68 77 60 00       	mov    $0x607768,%ecx
  4030ee:	ba 64 77 60 00       	mov    $0x607764,%edx
  4030f3:	be 60 77 60 00       	mov    $0x607760,%esi
  4030f8:	bf 60 78 e2 00       	mov    $0xe27860,%edi
  4030fd:	31 c0                	xor    %eax,%eax
  4030ff:	e8 8c 1e 00 00       	callq  404f90 <compute_indexmap_>
  403104:	b9 68 77 60 00       	mov    $0x607768,%ecx
  403109:	ba 64 77 60 00       	mov    $0x607764,%edx
  40310e:	be 60 77 60 00       	mov    $0x607760,%esi
  403113:	bf 30 78 a1 00       	mov    $0xa17830,%edi
  403118:	31 c0                	xor    %eax,%eax
  40311a:	e8 f1 1e 00 00       	callq  405010 <compute_initial_conditions_>
  40311f:	bf 60 77 60 00       	mov    $0x607760,%edi
  403124:	31 c0                	xor    %eax,%eax
  403126:	e8 35 f7 ff ff       	callq  402860 <fft_init_>
  40312b:	ba 00 78 60 00       	mov    $0x607800,%edx
  403130:	be 30 78 a1 00       	mov    $0xa17830,%esi
  403135:	bf fc 64 40 00       	mov    $0x4064fc,%edi
  40313a:	31 c0                	xor    %eax,%eax
  40313c:	e8 5f f8 ff ff       	callq  4029a0 <fft_>
  403141:	c7 84 24 e8 00 00 00 	movl   $0x1,0xe8(%rsp)
  403148:	01 00 00 00 
  40314c:	31 c0                	xor    %eax,%eax
  40314e:	48 89 df             	mov    %rbx,%rdi
  403151:	e8 9a 30 00 00       	callq  4061f0 <timer_clear_>
  403156:	8b 84 24 e8 00 00 00 	mov    0xe8(%rsp),%eax
  40315d:	8d 50 01             	lea    0x1(%rax),%edx
  403160:	83 f8 08             	cmp    $0x8,%eax
  403163:	89 94 24 e8 00 00 00 	mov    %edx,0xe8(%rsp)
  40316a:	75 e0                	jne    40314c <MAIN__+0xdc>
  40316c:	31 c0                	xor    %eax,%eax
  40316e:	bf fc 64 40 00       	mov    $0x4064fc,%edi
  403173:	e8 f8 30 00 00       	callq  406270 <timer_start_>
  403178:	8b 05 fa c6 c2 00    	mov    0xc2c6fa(%rip),%eax        # 102f878 <dbg_+0x8>
  40317e:	85 c0                	test   %eax,%eax
  403180:	0f 85 f2 03 00 00    	jne    403578 <MAIN__+0x508>
  403186:	31 c0                	xor    %eax,%eax
  403188:	b9 68 77 60 00       	mov    $0x607768,%ecx
  40318d:	ba 64 77 60 00       	mov    $0x607764,%edx
  403192:	be 60 77 60 00       	mov    $0x607760,%esi
  403197:	bf 60 78 e2 00       	mov    $0xe27860,%edi
  40319c:	e8 ef 1d 00 00       	callq  404f90 <compute_indexmap_>
  4031a1:	31 c0                	xor    %eax,%eax
  4031a3:	b9 68 77 60 00       	mov    $0x607768,%ecx
  4031a8:	ba 64 77 60 00       	mov    $0x607764,%edx
  4031ad:	be 60 77 60 00       	mov    $0x607760,%esi
  4031b2:	bf 30 78 a1 00       	mov    $0xa17830,%edi
  4031b7:	e8 54 1e 00 00       	callq  405010 <compute_initial_conditions_>
  4031bc:	31 c0                	xor    %eax,%eax
  4031be:	bf 60 77 60 00       	mov    $0x607760,%edi
  4031c3:	e8 98 f6 ff ff       	callq  402860 <fft_init_>
  4031c8:	44 8b 1d a9 c6 c2 00 	mov    0xc2c6a9(%rip),%r11d        # 102f878 <dbg_+0x8>
  4031cf:	45 85 db             	test   %r11d,%r11d
  4031d2:	0f 85 70 03 00 00    	jne    403548 <MAIN__+0x4d8>
  4031d8:	31 c0                	xor    %eax,%eax
  4031da:	ba 00 78 60 00       	mov    $0x607800,%edx
  4031df:	be 30 78 a1 00       	mov    $0xa17830,%esi
  4031e4:	bf fc 64 40 00       	mov    $0x4064fc,%edi
  4031e9:	e8 b2 f7 ff ff       	callq  4029a0 <fft_>
  4031ee:	44 8b 0d 83 c6 c2 00 	mov    0xc2c683(%rip),%r9d        # 102f878 <dbg_+0x8>
  4031f5:	45 85 c9             	test   %r9d,%r9d
  4031f8:	0f 85 32 03 00 00    	jne    403530 <MAIN__+0x4c0>
  4031fe:	8b 1d 5c c6 c2 00    	mov    0xc2c65c(%rip),%ebx        # 102f860 <iter_>
  403204:	c7 84 24 e4 00 00 00 	movl   $0x1,0xe4(%rsp)
  40320b:	01 00 00 00 
  40320f:	85 db                	test   %ebx,%ebx
  403211:	0f 8e 39 01 00 00    	jle    403350 <MAIN__+0x2e0>
  403217:	48 8d ac 24 e4 00 00 	lea    0xe4(%rsp),%rbp
  40321e:	00 
  40321f:	e9 99 00 00 00       	jmpq   4032bd <MAIN__+0x24d>
  403224:	0f 1f 40 00          	nopl   0x0(%rax)
  403228:	bf 00 78 60 00       	mov    $0x607800,%edi
  40322d:	31 c0                	xor    %eax,%eax
  40322f:	41 b9 68 77 60 00    	mov    $0x607768,%r9d
  403235:	41 b8 64 77 60 00    	mov    $0x607764,%r8d
  40323b:	b9 60 77 60 00       	mov    $0x607760,%ecx
  403240:	ba 60 78 e2 00       	mov    $0xe27860,%edx
  403245:	be 30 78 a1 00       	mov    $0xa17830,%esi
  40324a:	e8 d1 16 00 00       	callq  404920 <evolve_>
  40324f:	8b 3d 23 c6 c2 00    	mov    0xc2c623(%rip),%edi        # 102f878 <dbg_+0x8>
  403255:	85 ff                	test   %edi,%edi
  403257:	0f 85 c3 00 00 00    	jne    403320 <MAIN__+0x2b0>
  40325d:	ba 30 78 a1 00       	mov    $0xa17830,%edx
  403262:	31 c0                	xor    %eax,%eax
  403264:	bf 00 65 40 00       	mov    $0x406500,%edi
  403269:	48 89 d6             	mov    %rdx,%rsi
  40326c:	e8 2f f7 ff ff       	callq  4029a0 <fft_>
  403271:	8b 0d 01 c6 c2 00    	mov    0xc2c601(%rip),%ecx        # 102f878 <dbg_+0x8>
  403277:	85 c9                	test   %ecx,%ecx
  403279:	75 75                	jne    4032f0 <MAIN__+0x280>
  40327b:	31 c0                	xor    %eax,%eax
  40327d:	41 b8 68 77 60 00    	mov    $0x607768,%r8d
  403283:	b9 64 77 60 00       	mov    $0x607764,%ecx
  403288:	ba 60 77 60 00       	mov    $0x607760,%edx
  40328d:	be 30 78 a1 00       	mov    $0xa17830,%esi
  403292:	48 89 ef             	mov    %rbp,%rdi
  403295:	e8 26 20 00 00       	callq  4052c0 <checksum_>
  40329a:	8b 05 d8 c5 c2 00    	mov    0xc2c5d8(%rip),%eax        # 102f878 <dbg_+0x8>
  4032a0:	85 c0                	test   %eax,%eax
  4032a2:	75 3c                	jne    4032e0 <MAIN__+0x270>
  4032a4:	8b 84 24 e4 00 00 00 	mov    0xe4(%rsp),%eax
  4032ab:	8d 50 01             	lea    0x1(%rax),%edx
  4032ae:	39 c3                	cmp    %eax,%ebx
  4032b0:	89 94 24 e4 00 00 00 	mov    %edx,0xe4(%rsp)
  4032b7:	0f 84 93 00 00 00    	je     403350 <MAIN__+0x2e0>
  4032bd:	44 8b 05 b4 c5 c2 00 	mov    0xc2c5b4(%rip),%r8d        # 102f878 <dbg_+0x8>
  4032c4:	45 85 c0             	test   %r8d,%r8d
  4032c7:	0f 84 5b ff ff ff    	je     403228 <MAIN__+0x1b8>
  4032cd:	bf 40 66 40 00       	mov    $0x406640,%edi
  4032d2:	31 c0                	xor    %eax,%eax
  4032d4:	e8 97 2f 00 00       	callq  406270 <timer_start_>
  4032d9:	e9 4a ff ff ff       	jmpq   403228 <MAIN__+0x1b8>
  4032de:	66 90                	xchg   %ax,%ax
  4032e0:	bf 44 66 40 00       	mov    $0x406644,%edi
  4032e5:	31 c0                	xor    %eax,%eax
  4032e7:	e8 44 2f 00 00       	callq  406230 <timer_stop_>
  4032ec:	eb b6                	jmp    4032a4 <MAIN__+0x234>
  4032ee:	66 90                	xchg   %ax,%ax
  4032f0:	31 c0                	xor    %eax,%eax
  4032f2:	bf 3c 66 40 00       	mov    $0x40663c,%edi
  4032f7:	e8 34 2f 00 00       	callq  406230 <timer_stop_>
  4032fc:	8b 15 76 c5 c2 00    	mov    0xc2c576(%rip),%edx        # 102f878 <dbg_+0x8>
  403302:	85 d2                	test   %edx,%edx
  403304:	0f 84 71 ff ff ff    	je     40327b <MAIN__+0x20b>
  40330a:	bf 44 66 40 00       	mov    $0x406644,%edi
  40330f:	31 c0                	xor    %eax,%eax
  403311:	e8 5a 2f 00 00       	callq  406270 <timer_start_>
  403316:	e9 60 ff ff ff       	jmpq   40327b <MAIN__+0x20b>
  40331b:	0f 1f 44 00 00       	nopl   0x0(%rax,%rax,1)
  403320:	31 c0                	xor    %eax,%eax
  403322:	bf 40 66 40 00       	mov    $0x406640,%edi
  403327:	e8 04 2f 00 00       	callq  406230 <timer_stop_>
  40332c:	8b 35 46 c5 c2 00    	mov    0xc2c546(%rip),%esi        # 102f878 <dbg_+0x8>
  403332:	85 f6                	test   %esi,%esi
  403334:	0f 84 23 ff ff ff    	je     40325d <MAIN__+0x1ed>
  40333a:	bf 3c 66 40 00       	mov    $0x40663c,%edi
  40333f:	31 c0                	xor    %eax,%eax
  403341:	e8 2a 2f 00 00       	callq  406270 <timer_start_>
  403346:	e9 12 ff ff ff       	jmpq   40325d <MAIN__+0x1ed>
  40334b:	0f 1f 44 00 00       	nopl   0x0(%rax,%rax,1)
  403350:	48 8d ac 24 ef 00 00 	lea    0xef(%rsp),%rbp
  403357:	00 
  403358:	48 8d 9c 24 e0 00 00 	lea    0xe0(%rsp),%rbx
  40335f:	00 
  403360:	ba e4 65 40 00       	mov    $0x4065e4,%edx
  403365:	48 89 d7             	mov    %rdx,%rdi
  403368:	b9 60 f8 02 01       	mov    $0x102f860,%ecx
  40336d:	48 89 d6             	mov    %rdx,%rsi
  403370:	49 89 e9             	mov    %rbp,%r9
  403373:	49 89 d8             	mov    %rbx,%r8
  403376:	31 c0                	xor    %eax,%eax
  403378:	c7 04 24 01 00 00 00 	movl   $0x1,(%rsp)
  40337f:	e8 7c dc ff ff       	callq  401000 <verify_>
  403384:	31 c0                	xor    %eax,%eax
  403386:	bf fc 64 40 00       	mov    $0x4064fc,%edi
  40338b:	e8 a0 2e 00 00       	callq  406230 <timer_stop_>
  403390:	31 c0                	xor    %eax,%eax
  403392:	bf fc 64 40 00       	mov    $0x4064fc,%edi
  403397:	e8 74 2e 00 00       	callq  406210 <timer_read_>
  40339c:	66 0f 57 c9          	xorpd  %xmm1,%xmm1
  4033a0:	66 0f 2e c1          	ucomisd %xmm1,%xmm0
  4033a4:	7a 06                	jp     4033ac <MAIN__+0x33c>
  4033a6:	0f 84 74 01 00 00    	je     403520 <MAIN__+0x4b0>
  4033ac:	f3 0f 2a 0d ac c4 c2 	cvtsi2ssl 0xc2c4ac(%rip),%xmm1        # 102f860 <iter_>
  4033b3:	00 
  4033b4:	f3 0f 59 0d bc 33 00 	mulss  0x33bc(%rip),%xmm1        # 406778 <options.0.1582+0x78>
  4033bb:	00 
  4033bc:	f3 0f 58 0d b8 33 00 	addss  0x33b8(%rip),%xmm1        # 40677c <options.0.1582+0x7c>
  4033c3:	00 
  4033c4:	0f 14 c9             	unpcklps %xmm1,%xmm1
  4033c7:	0f 5a c9             	cvtps2pd %xmm1,%xmm1
  4033ca:	f2 0f 59 0d 96 33 00 	mulsd  0x3396(%rip),%xmm1        # 406768 <options.0.1582+0x68>
  4033d1:	00 
  4033d2:	f2 0f 5e c8          	divsd  %xmm0,%xmm1
  4033d6:	f2 0f 11 8c 24 d8 00 	movsd  %xmm1,0xd8(%rsp)
  4033dd:	00 00 
  4033df:	48 8d 84 24 d8 00 00 	lea    0xd8(%rsp),%rax
  4033e6:	00 
  4033e7:	41 b8 e4 65 40 00    	mov    $0x4065e4,%r8d
  4033ed:	41 b9 60 f8 02 01    	mov    $0x102f860,%r9d
  4033f3:	4c 89 c1             	mov    %r8,%rcx
  4033f6:	4c 89 c2             	mov    %r8,%rdx
  4033f9:	48 89 ee             	mov    %rbp,%rsi
  4033fc:	48 89 44 24 08       	mov    %rax,0x8(%rsp)
  403401:	48 8d 84 24 d0 00 00 	lea    0xd0(%rsp),%rax
  403408:	00 
  403409:	bf 48 66 40 00       	mov    $0x406648,%edi
  40340e:	f2 0f 11 84 24 d0 00 	movsd  %xmm0,0xd0(%rsp)
  403415:	00 00 
  403417:	c7 84 24 c0 00 00 00 	movl   $0x6,0xc0(%rsp)
  40341e:	06 00 00 00 
  403422:	c7 84 24 b8 00 00 00 	movl   $0xc,0xb8(%rsp)
  403429:	0c 00 00 00 
  40342d:	48 89 04 24          	mov    %rax,(%rsp)
  403431:	31 c0                	xor    %eax,%eax
  403433:	c7 84 24 b0 00 00 00 	movl   $0xc,0xb0(%rsp)
  40343a:	0c 00 00 00 
  40343e:	c7 84 24 a8 00 00 00 	movl   $0x6,0xa8(%rsp)
  403445:	06 00 00 00 
  403449:	c7 84 24 a0 00 00 00 	movl   $0x6,0xa0(%rsp)
  403450:	06 00 00 00 
  403454:	c7 84 24 98 00 00 00 	movl   $0x6,0x98(%rsp)
  40345b:	06 00 00 00 
  40345f:	c7 84 24 90 00 00 00 	movl   $0xd,0x90(%rsp)
  403466:	0d 00 00 00 
  40346a:	c7 84 24 88 00 00 00 	movl   $0xb,0x88(%rsp)
  403471:	0b 00 00 00 
  403475:	c7 84 24 80 00 00 00 	movl   $0x5,0x80(%rsp)
  40347c:	05 00 00 00 
  403480:	c7 44 24 78 18 00 00 	movl   $0x18,0x78(%rsp)
  403487:	00 
  403488:	c7 44 24 70 01 00 00 	movl   $0x1,0x70(%rsp)
  40348f:	00 
  403490:	c7 44 24 68 02 00 00 	movl   $0x2,0x68(%rsp)
  403497:	00 
  403498:	48 c7 44 24 60 4a 66 	movq   $0x40664a,0x60(%rsp)
  40349f:	40 00 
  4034a1:	48 c7 44 24 58 50 66 	movq   $0x406650,0x58(%rsp)
  4034a8:	40 00 
  4034aa:	48 c7 44 24 50 50 66 	movq   $0x406650,0x50(%rsp)
  4034b1:	40 00 
  4034b3:	48 c7 44 24 48 5c 66 	movq   $0x40665c,0x48(%rsp)
  4034ba:	40 00 
  4034bc:	48 c7 44 24 40 5c 66 	movq   $0x40665c,0x40(%rsp)
  4034c3:	40 00 
  4034c5:	48 c7 44 24 38 62 66 	movq   $0x406662,0x38(%rsp)
  4034cc:	40 00 
  4034ce:	48 c7 44 24 30 68 66 	movq   $0x406668,0x30(%rsp)
  4034d5:	40 00 
  4034d7:	48 c7 44 24 28 75 66 	movq   $0x406675,0x28(%rsp)
  4034de:	40 00 
  4034e0:	48 c7 44 24 20 80 66 	movq   $0x406680,0x20(%rsp)
  4034e7:	40 00 
  4034e9:	48 89 5c 24 18       	mov    %rbx,0x18(%rsp)
  4034ee:	48 c7 44 24 10 85 66 	movq   $0x406685,0x10(%rsp)
  4034f5:	40 00 
  4034f7:	e8 04 20 00 00       	callq  405500 <print_results_>
  4034fc:	44 8b 1d 75 c3 c2 00 	mov    0xc2c375(%rip),%r11d        # 102f878 <dbg_+0x8>
  403503:	45 85 db             	test   %r11d,%r11d
  403506:	74 07                	je     40350f <MAIN__+0x49f>
  403508:	31 c0                	xor    %eax,%eax
  40350a:	e8 01 f6 ff ff       	callq  402b10 <print_timers_>
  40350f:	48 81 c4 f8 00 00 00 	add    $0xf8,%rsp
  403516:	5b                   	pop    %rbx
  403517:	5d                   	pop    %rbp
  403518:	c3                   	retq   
  403519:	0f 1f 80 00 00 00 00 	nopl   0x0(%rax)
  403520:	f2 0f 11 8c 24 d8 00 	movsd  %xmm1,0xd8(%rsp)
  403527:	00 00 
  403529:	e9 b1 fe ff ff       	jmpq   4033df <MAIN__+0x36f>
  40352e:	66 90                	xchg   %ax,%ax
  403530:	bf 3c 66 40 00       	mov    $0x40663c,%edi
  403535:	31 c0                	xor    %eax,%eax
  403537:	e8 f4 2c 00 00       	callq  406230 <timer_stop_>
  40353c:	e9 bd fc ff ff       	jmpq   4031fe <MAIN__+0x18e>
  403541:	0f 1f 80 00 00 00 00 	nopl   0x0(%rax)
  403548:	31 c0                	xor    %eax,%eax
  40354a:	bf 38 66 40 00       	mov    $0x406638,%edi
  40354f:	e8 dc 2c 00 00       	callq  406230 <timer_stop_>
  403554:	44 8b 15 1d c3 c2 00 	mov    0xc2c31d(%rip),%r10d        # 102f878 <dbg_+0x8>
  40355b:	45 85 d2             	test   %r10d,%r10d
  40355e:	0f 84 74 fc ff ff    	je     4031d8 <MAIN__+0x168>
  403564:	bf 3c 66 40 00       	mov    $0x40663c,%edi
  403569:	31 c0                	xor    %eax,%eax
  40356b:	e8 00 2d 00 00       	callq  406270 <timer_start_>
  403570:	e9 63 fc ff ff       	jmpq   4031d8 <MAIN__+0x168>
  403575:	0f 1f 00             	nopl   (%rax)
  403578:	bf 38 66 40 00       	mov    $0x406638,%edi
  40357d:	31 c0                	xor    %eax,%eax
  40357f:	e8 ec 2c 00 00       	callq  406270 <timer_start_>
  403584:	e9 fd fb ff ff       	jmpq   403186 <MAIN__+0x116>
  403589:	0f 1f 80 00 00 00 00 	nopl   0x0(%rax)

0000000000403590 <compute_initial_conditions_.omp_fn.5>:
  403590:	41 57                	push   %r15
  403592:	41 56                	push   %r14
  403594:	41 55                	push   %r13
  403596:	49 89 fd             	mov    %rdi,%r13
  403599:	41 54                	push   %r12
  40359b:	55                   	push   %rbp
  40359c:	53                   	push   %rbx
  40359d:	48 83 ec 48          	sub    $0x48,%rsp
  4035a1:	8b 5f 28             	mov    0x28(%rdi),%ebx
  4035a4:	48 8b 47 18          	mov    0x18(%rdi),%rax
  4035a8:	4c 8b 67 20          	mov    0x20(%rdi),%r12
  4035ac:	4c 8b 77 10          	mov    0x10(%rdi),%r14
  4035b0:	48 89 44 24 28       	mov    %rax,0x28(%rsp)
  4035b5:	e8 66 d7 ff ff       	callq  400d20 <omp_get_num_threads@plt>
  4035ba:	89 c5                	mov    %eax,%ebp
  4035bc:	e8 bf d7 ff ff       	callq  400d80 <omp_get_thread_num@plt>
  4035c1:	89 da                	mov    %ebx,%edx
  4035c3:	89 c1                	mov    %eax,%ecx
  4035c5:	89 d8                	mov    %ebx,%eax
  4035c7:	c1 fa 1f             	sar    $0x1f,%edx
  4035ca:	f7 fd                	idiv   %ebp
  4035cc:	31 d2                	xor    %edx,%edx
  4035ce:	0f af e8             	imul   %eax,%ebp
  4035d1:	39 eb                	cmp    %ebp,%ebx
  4035d3:	0f 95 c2             	setne  %dl
  4035d6:	8d 04 02             	lea    (%rdx,%rax,1),%eax
  4035d9:	0f af c8             	imul   %eax,%ecx
  4035dc:	8d 04 01             	lea    (%rcx,%rax,1),%eax
  4035df:	39 d8                	cmp    %ebx,%eax
  4035e1:	0f 4e d8             	cmovle %eax,%ebx
  4035e4:	39 d9                	cmp    %ebx,%ecx
  4035e6:	89 5c 24 24          	mov    %ebx,0x24(%rsp)
  4035ea:	0f 8d a1 00 00 00    	jge    403691 <compute_initial_conditions_.omp_fn.5+0x101>
  4035f0:	83 c1 01             	add    $0x1,%ecx
  4035f3:	4c 8d 7c 24 38       	lea    0x38(%rsp),%r15
  4035f8:	48 63 c1             	movslq %ecx,%rax
  4035fb:	89 4c 24 0c          	mov    %ecx,0xc(%rsp)
  4035ff:	48 8d 50 ff          	lea    -0x1(%rax),%rdx
  403603:	48 0f af 44 24 28    	imul   0x28(%rsp),%rax
  403609:	48 89 54 24 18       	mov    %rdx,0x18(%rsp)
  40360e:	4b 8d 54 26 01       	lea    0x1(%r14,%r12,1),%rdx
  403613:	48 8d 04 02          	lea    (%rdx,%rax,1),%rax
  403617:	48 89 44 24 10       	mov    %rax,0x10(%rsp)
  40361c:	0f 1f 40 00          	nopl   0x0(%rax)
  403620:	49 8b 45 08          	mov    0x8(%r13),%rax
  403624:	48 8b 54 24 18       	mov    0x18(%rsp),%rdx
  403629:	31 db                	xor    %ebx,%ebx
  40362b:	44 8b 25 32 41 20 00 	mov    0x204132(%rip),%r12d        # 607764 <layout_+0x4>
  403632:	48 8b 6c 24 10       	mov    0x10(%rsp),%rbp
  403637:	48 8b 04 d0          	mov    (%rax,%rdx,8),%rax
  40363b:	45 85 e4             	test   %r12d,%r12d
  40363e:	48 89 44 24 38       	mov    %rax,0x38(%rsp)
  403643:	7e 2d                	jle    403672 <compute_initial_conditions_.omp_fn.5+0xe2>
  403645:	0f 1f 00             	nopl   (%rax)
  403648:	48 89 e9             	mov    %rbp,%rcx
  40364b:	31 c0                	xor    %eax,%eax
  40364d:	ba a0 66 40 00       	mov    $0x4066a0,%edx
  403652:	48 c1 e1 04          	shl    $0x4,%rcx
  403656:	49 03 4d 00          	add    0x0(%r13),%rcx
  40365a:	4c 89 fe             	mov    %r15,%rsi
  40365d:	bf a8 66 40 00       	mov    $0x4066a8,%edi
  403662:	83 c3 01             	add    $0x1,%ebx
  403665:	4c 01 f5             	add    %r14,%rbp
  403668:	e8 f3 1d 00 00       	callq  405460 <vranlc_>
  40366d:	44 39 e3             	cmp    %r12d,%ebx
  403670:	75 d6                	jne    403648 <compute_initial_conditions_.omp_fn.5+0xb8>
  403672:	83 44 24 0c 01       	addl   $0x1,0xc(%rsp)
  403677:	48 83 44 24 18 01    	addq   $0x1,0x18(%rsp)
  40367d:	8b 54 24 0c          	mov    0xc(%rsp),%edx
  403681:	48 8b 44 24 28       	mov    0x28(%rsp),%rax
  403686:	48 01 44 24 10       	add    %rax,0x10(%rsp)
  40368b:	39 54 24 24          	cmp    %edx,0x24(%rsp)
  40368f:	7d 8f                	jge    403620 <compute_initial_conditions_.omp_fn.5+0x90>
  403691:	48 83 c4 48          	add    $0x48,%rsp
  403695:	5b                   	pop    %rbx
  403696:	5d                   	pop    %rbp
  403697:	41 5c                	pop    %r12
  403699:	41 5d                	pop    %r13
  40369b:	41 5e                	pop    %r14
  40369d:	41 5f                	pop    %r15
  40369f:	c3                   	retq   

00000000004036a0 <compute_indexmap_.omp_fn.4>:
  4036a0:	41 57                	push   %r15
  4036a2:	41 56                	push   %r14
  4036a4:	41 55                	push   %r13
  4036a6:	41 54                	push   %r12
  4036a8:	55                   	push   %rbp
  4036a9:	53                   	push   %rbx
  4036aa:	48 89 fb             	mov    %rdi,%rbx
  4036ad:	48 83 ec 58          	sub    $0x58,%rsp
  4036b1:	44 8b 67 28          	mov    0x28(%rdi),%r12d
  4036b5:	48 8b 47 18          	mov    0x18(%rdi),%rax
  4036b9:	4c 8b 77 20          	mov    0x20(%rdi),%r14
  4036bd:	48 8b 6f 10          	mov    0x10(%rdi),%rbp
  4036c1:	48 89 44 24 40       	mov    %rax,0x40(%rsp)
  4036c6:	e8 55 d6 ff ff       	callq  400d20 <omp_get_num_threads@plt>
  4036cb:	41 89 c5             	mov    %eax,%r13d
  4036ce:	e8 ad d6 ff ff       	callq  400d80 <omp_get_thread_num@plt>
  4036d3:	44 89 e2             	mov    %r12d,%edx
  4036d6:	89 c1                	mov    %eax,%ecx
  4036d8:	44 89 e0             	mov    %r12d,%eax
  4036db:	c1 fa 1f             	sar    $0x1f,%edx
  4036de:	41 f7 fd             	idiv   %r13d
  4036e1:	31 d2                	xor    %edx,%edx
  4036e3:	44 0f af e8          	imul   %eax,%r13d
  4036e7:	45 39 ec             	cmp    %r13d,%r12d
  4036ea:	0f 95 c2             	setne  %dl
  4036ed:	8d 04 02             	lea    (%rdx,%rax,1),%eax
  4036f0:	0f af c8             	imul   %eax,%ecx
  4036f3:	8d 04 01             	lea    (%rcx,%rax,1),%eax
  4036f6:	44 39 e0             	cmp    %r12d,%eax
  4036f9:	44 0f 4e e0          	cmovle %eax,%r12d
  4036fd:	44 39 e1             	cmp    %r12d,%ecx
  403700:	44 89 64 24 3c       	mov    %r12d,0x3c(%rsp)
  403705:	0f 8d 25 01 00 00    	jge    403830 <compute_indexmap_.omp_fn.4+0x190>
  40370b:	8b 05 53 40 20 00    	mov    0x204053(%rip),%eax        # 607764 <layout_+0x4>
  403711:	83 c1 01             	add    $0x1,%ecx
  403714:	4a 8d 54 35 01       	lea    0x1(%rbp,%r14,1),%rdx
  403719:	89 4c 24 2c          	mov    %ecx,0x2c(%rsp)
  40371d:	48 89 6c 24 20       	mov    %rbp,0x20(%rsp)
  403722:	89 44 24 4c          	mov    %eax,0x4c(%rsp)
  403726:	8b 05 34 40 20 00    	mov    0x204034(%rip),%eax        # 607760 <layout_>
  40372c:	89 44 24 18          	mov    %eax,0x18(%rsp)
  403730:	48 63 c1             	movslq %ecx,%rax
  403733:	44 8b 7c 24 18       	mov    0x18(%rsp),%r15d
  403738:	48 0f af 44 24 40    	imul   0x40(%rsp),%rax
  40373e:	41 83 c7 20          	add    $0x20,%r15d
  403742:	48 8d 04 02          	lea    (%rdx,%rax,1),%rax
  403746:	48 89 44 24 30       	mov    %rax,0x30(%rsp)
  40374b:	8b 44 24 4c          	mov    0x4c(%rsp),%eax
  40374f:	83 c0 20             	add    $0x20,%eax
  403752:	89 44 24 1c          	mov    %eax,0x1c(%rsp)
  403756:	89 c8                	mov    %ecx,%eax
  403758:	0f 1f 84 00 00 00 00 	nopl   0x0(%rax,%rax,1)
  40375f:	00 
  403760:	83 c0 1f             	add    $0x1f,%eax
  403763:	8b 4c 24 4c          	mov    0x4c(%rsp),%ecx
  403767:	bd 20 00 00 00       	mov    $0x20,%ebp
  40376c:	89 c2                	mov    %eax,%edx
  40376e:	c1 fa 1f             	sar    $0x1f,%edx
  403771:	c1 ea 1a             	shr    $0x1a,%edx
  403774:	01 d0                	add    %edx,%eax
  403776:	83 e0 3f             	and    $0x3f,%eax
  403779:	29 d0                	sub    %edx,%eax
  40377b:	83 e8 20             	sub    $0x20,%eax
  40377e:	0f af c0             	imul   %eax,%eax
  403781:	85 c9                	test   %ecx,%ecx
  403783:	89 44 24 14          	mov    %eax,0x14(%rsp)
  403787:	48 8b 44 24 30       	mov    0x30(%rsp),%rax
  40378c:	48 89 44 24 08       	mov    %rax,0x8(%rsp)
  403791:	0f 8e 7c 00 00 00    	jle    403813 <compute_indexmap_.omp_fn.4+0x173>
  403797:	66 0f 1f 84 00 00 00 	nopw   0x0(%rax,%rax,1)
  40379e:	00 00 
  4037a0:	41 89 ee             	mov    %ebp,%r14d
  4037a3:	8b 54 24 18          	mov    0x18(%rsp),%edx
  4037a7:	41 83 e6 3f          	and    $0x3f,%r14d
  4037ab:	41 83 ee 20          	sub    $0x20,%r14d
  4037af:	45 0f af f6          	imul   %r14d,%r14d
  4037b3:	44 03 74 24 14       	add    0x14(%rsp),%r14d
  4037b8:	85 d2                	test   %edx,%edx
  4037ba:	7e 44                	jle    403800 <compute_indexmap_.omp_fn.4+0x160>
  4037bc:	4c 8b 6c 24 08       	mov    0x8(%rsp),%r13
  4037c1:	41 bc 20 00 00 00    	mov    $0x20,%r12d
  4037c7:	49 c1 e5 03          	shl    $0x3,%r13
  4037cb:	4c 03 2b             	add    (%rbx),%r13
  4037ce:	66 90                	xchg   %ax,%ax
  4037d0:	44 89 e0             	mov    %r12d,%eax
  4037d3:	41 83 c4 01          	add    $0x1,%r12d
  4037d7:	83 e0 3f             	and    $0x3f,%eax
  4037da:	83 e8 20             	sub    $0x20,%eax
  4037dd:	0f af c0             	imul   %eax,%eax
  4037e0:	44 01 f0             	add    %r14d,%eax
  4037e3:	f2 0f 2a c0          	cvtsi2sd %eax,%xmm0
  4037e7:	f2 0f 59 43 08       	mulsd  0x8(%rbx),%xmm0
  4037ec:	e8 1f d5 ff ff       	callq  400d10 <exp@plt>
  4037f1:	f2 41 0f 11 45 00    	movsd  %xmm0,0x0(%r13)
  4037f7:	49 83 c5 08          	add    $0x8,%r13
  4037fb:	45 39 fc             	cmp    %r15d,%r12d
  4037fe:	75 d0                	jne    4037d0 <compute_indexmap_.omp_fn.4+0x130>
  403800:	83 c5 01             	add    $0x1,%ebp
  403803:	48 8b 44 24 20       	mov    0x20(%rsp),%rax
  403808:	48 01 44 24 08       	add    %rax,0x8(%rsp)
  40380d:	3b 6c 24 1c          	cmp    0x1c(%rsp),%ebp
  403811:	75 8d                	jne    4037a0 <compute_indexmap_.omp_fn.4+0x100>
  403813:	83 44 24 2c 01       	addl   $0x1,0x2c(%rsp)
  403818:	48 8b 44 24 40       	mov    0x40(%rsp),%rax
  40381d:	48 01 44 24 30       	add    %rax,0x30(%rsp)
  403822:	8b 44 24 2c          	mov    0x2c(%rsp),%eax
  403826:	39 44 24 3c          	cmp    %eax,0x3c(%rsp)
  40382a:	0f 8d 30 ff ff ff    	jge    403760 <compute_indexmap_.omp_fn.4+0xc0>
  403830:	48 83 c4 58          	add    $0x58,%rsp
  403834:	5b                   	pop    %rbx
  403835:	5d                   	pop    %rbp
  403836:	41 5c                	pop    %r12
  403838:	41 5d                	pop    %r13
  40383a:	41 5e                	pop    %r14
  40383c:	41 5f                	pop    %r15
  40383e:	c3                   	retq   
  40383f:	90                   	nop

0000000000403840 <cffts1_.omp_fn.3>:
  403840:	55                   	push   %rbp
  403841:	48 89 e5             	mov    %rsp,%rbp
  403844:	41 57                	push   %r15
  403846:	41 56                	push   %r14
  403848:	41 55                	push   %r13
  40384a:	41 54                	push   %r12
  40384c:	49 89 fc             	mov    %rdi,%r12
  40384f:	53                   	push   %rbx
  403850:	48 81 ec a8 00 00 00 	sub    $0xa8,%rsp
  403857:	49 8b 54 24 38       	mov    0x38(%r12),%rdx
  40385c:	48 8b 47 60          	mov    0x60(%rdi),%rax
  403860:	4c 8b 57 50          	mov    0x50(%rdi),%r10
  403864:	4d 8b 44 24 40       	mov    0x40(%r12),%r8
  403869:	48 8b 7f 48          	mov    0x48(%rdi),%rdi
  40386d:	4d 8b 4c 24 28       	mov    0x28(%r12),%r9
  403872:	48 89 95 60 ff ff ff 	mov    %rdx,-0xa0(%rbp)
  403879:	49 8b 54 24 20       	mov    0x20(%r12),%rdx
  40387e:	48 83 c0 1e          	add    $0x1e,%rax
  403882:	41 8b 9c 24 80 00 00 	mov    0x80(%r12),%ebx
  403889:	00 
  40388a:	48 83 e0 f0          	and    $0xfffffffffffffff0,%rax
  40388e:	4c 89 85 48 ff ff ff 	mov    %r8,-0xb8(%rbp)
  403895:	48 89 bd 40 ff ff ff 	mov    %rdi,-0xc0(%rbp)
  40389c:	4c 89 8d 50 ff ff ff 	mov    %r9,-0xb0(%rbp)
  4038a3:	48 89 95 68 ff ff ff 	mov    %rdx,-0x98(%rbp)
  4038aa:	49 8b 54 24 58       	mov    0x58(%r12),%rdx
  4038af:	4c 89 95 38 ff ff ff 	mov    %r10,-0xc8(%rbp)
  4038b6:	4d 8b 74 24 30       	mov    0x30(%r12),%r14
  4038bb:	4d 8b 7c 24 18       	mov    0x18(%r12),%r15
  4038c0:	48 83 c2 1e          	add    $0x1e,%rdx
  4038c4:	48 83 e2 f0          	and    $0xfffffffffffffff0,%rdx
  4038c8:	48 29 d4             	sub    %rdx,%rsp
  4038cb:	48 8d 54 24 0f       	lea    0xf(%rsp),%rdx
  4038d0:	48 29 c4             	sub    %rax,%rsp
  4038d3:	4c 8d 6c 24 0f       	lea    0xf(%rsp),%r13
  4038d8:	48 83 e2 f0          	and    $0xfffffffffffffff0,%rdx
  4038dc:	48 89 55 90          	mov    %rdx,-0x70(%rbp)
  4038e0:	49 83 e5 f0          	and    $0xfffffffffffffff0,%r13
  4038e4:	e8 37 d4 ff ff       	callq  400d20 <omp_get_num_threads@plt>
  4038e9:	89 85 58 ff ff ff    	mov    %eax,-0xa8(%rbp)
  4038ef:	e8 8c d4 ff ff       	callq  400d80 <omp_get_thread_num@plt>
  4038f4:	8b 8d 58 ff ff ff    	mov    -0xa8(%rbp),%ecx
  4038fa:	89 da                	mov    %ebx,%edx
  4038fc:	89 c6                	mov    %eax,%esi
  4038fe:	c1 fa 1f             	sar    $0x1f,%edx
  403901:	89 d8                	mov    %ebx,%eax
  403903:	48 8b bd 40 ff ff ff 	mov    -0xc0(%rbp),%rdi
  40390a:	4c 8b 85 48 ff ff ff 	mov    -0xb8(%rbp),%r8
  403911:	4c 8b 8d 50 ff ff ff 	mov    -0xb0(%rbp),%r9
  403918:	f7 f9                	idiv   %ecx
  40391a:	31 d2                	xor    %edx,%edx
  40391c:	4c 8b 95 38 ff ff ff 	mov    -0xc8(%rbp),%r10
  403923:	0f af c8             	imul   %eax,%ecx
  403926:	39 cb                	cmp    %ecx,%ebx
  403928:	0f 95 c2             	setne  %dl
  40392b:	8d 04 02             	lea    (%rdx,%rax,1),%eax
  40392e:	0f af f0             	imul   %eax,%esi
  403931:	8d 04 06             	lea    (%rsi,%rax,1),%eax
  403934:	39 d8                	cmp    %ebx,%eax
  403936:	0f 4e d8             	cmovle %eax,%ebx
  403939:	39 de                	cmp    %ebx,%esi
  40393b:	89 9d 74 ff ff ff    	mov    %ebx,-0x8c(%rbp)
  403941:	0f 8d f9 01 00 00    	jge    403b40 <cffts1_.omp_fn.3+0x300>
  403947:	48 8b 95 60 ff ff ff 	mov    -0xa0(%rbp),%rdx
  40394e:	83 c6 01             	add    $0x1,%esi
  403951:	4b 8d 5c 06 01       	lea    0x1(%r14,%r8,1),%rbx
  403956:	48 63 c6             	movslq %esi,%rax
  403959:	4e 8d 54 17 01       	lea    0x1(%rdi,%r10,1),%r10
  40395e:	8b 0d 8c 3e 20 00    	mov    0x203e8c(%rip),%ecx        # 6077f0 <blockinfo_>
  403964:	89 75 8c             	mov    %esi,-0x74(%rbp)
  403967:	48 0f af d0          	imul   %rax,%rdx
  40396b:	4c 89 55 a8          	mov    %r10,-0x58(%rbp)
  40396f:	48 0f af 85 68 ff ff 	imul   -0x98(%rbp),%rax
  403976:	ff 
  403977:	48 8d 14 13          	lea    (%rbx,%rdx,1),%rdx
  40397b:	48 89 fb             	mov    %rdi,%rbx
  40397e:	48 c1 e3 04          	shl    $0x4,%rbx
  403982:	48 89 55 80          	mov    %rdx,-0x80(%rbp)
  403986:	4b 8d 54 0f 01       	lea    0x1(%r15,%r9,1),%rdx
  40398b:	48 8d 04 02          	lea    (%rdx,%rax,1),%rax
  40398f:	48 89 85 78 ff ff ff 	mov    %rax,-0x88(%rbp)
  403996:	49 8b 04 24          	mov    (%r12),%rax
  40399a:	8b 00                	mov    (%rax),%eax
  40399c:	29 c8                	sub    %ecx,%eax
  40399e:	85 c9                	test   %ecx,%ecx
  4039a0:	0f 8e 6a 01 00 00    	jle    403b10 <cffts1_.omp_fn.3+0x2d0>
  4039a6:	85 c0                	test   %eax,%eax
  4039a8:	0f 88 66 01 00 00    	js     403b14 <cffts1_.omp_fn.3+0x2d4>
  4039ae:	31 d2                	xor    %edx,%edx
  4039b0:	f7 f1                	div    %ecx
  4039b2:	89 45 cc             	mov    %eax,-0x34(%rbp)
  4039b5:	48 63 c1             	movslq %ecx,%rax
  4039b8:	48 89 c2             	mov    %rax,%rdx
  4039bb:	49 0f af d6          	imul   %r14,%rdx
  4039bf:	49 0f af c7          	imul   %r15,%rax
  4039c3:	48 89 55 98          	mov    %rdx,-0x68(%rbp)
  4039c7:	48 8b 55 80          	mov    -0x80(%rbp),%rdx
  4039cb:	48 89 45 a0          	mov    %rax,-0x60(%rbp)
  4039cf:	48 8b 85 78 ff ff ff 	mov    -0x88(%rbp),%rax
  4039d6:	48 89 55 b8          	mov    %rdx,-0x48(%rbp)
  4039da:	48 89 45 c0          	mov    %rax,-0x40(%rbp)
  4039de:	66 90                	xchg   %ax,%ax
  4039e0:	85 c9                	test   %ecx,%ecx
  4039e2:	7e 6b                	jle    403a4f <cffts1_.omp_fn.3+0x20f>
  4039e4:	49 8b 44 24 78       	mov    0x78(%r12),%rax
  4039e9:	4c 8b 55 a8          	mov    -0x58(%rbp),%r10
  4039ed:	41 bb 01 00 00 00    	mov    $0x1,%r11d
  4039f3:	4c 8b 4d c0          	mov    -0x40(%rbp),%r9
  4039f7:	44 8b 00             	mov    (%rax),%r8d
  4039fa:	48 89 45 b0          	mov    %rax,-0x50(%rbp)
  4039fe:	66 90                	xchg   %ax,%ax
  403a00:	45 85 c0             	test   %r8d,%r8d
  403a03:	7e 38                	jle    403a3d <cffts1_.omp_fn.3+0x1fd>
  403a05:	4c 89 c8             	mov    %r9,%rax
  403a08:	4c 89 d2             	mov    %r10,%rdx
  403a0b:	31 f6                	xor    %esi,%esi
  403a0d:	48 c1 e0 04          	shl    $0x4,%rax
  403a11:	49 03 44 24 08       	add    0x8(%r12),%rax
  403a16:	48 c1 e2 04          	shl    $0x4,%rdx
  403a1a:	49 8d 54 15 00       	lea    0x0(%r13,%rdx,1),%rdx
  403a1f:	90                   	nop
  403a20:	48 8b 38             	mov    (%rax),%rdi
  403a23:	83 c6 01             	add    $0x1,%esi
  403a26:	48 89 3a             	mov    %rdi,(%rdx)
  403a29:	48 8b 78 08          	mov    0x8(%rax),%rdi
  403a2d:	48 83 c0 10          	add    $0x10,%rax
  403a31:	48 89 7a 08          	mov    %rdi,0x8(%rdx)
  403a35:	48 01 da             	add    %rbx,%rdx
  403a38:	44 39 c6             	cmp    %r8d,%esi
  403a3b:	75 e3                	jne    403a20 <cffts1_.omp_fn.3+0x1e0>
  403a3d:	4d 01 f9             	add    %r15,%r9
  403a40:	49 83 c2 01          	add    $0x1,%r10
  403a44:	41 39 cb             	cmp    %ecx,%r11d
  403a47:	74 0f                	je     403a58 <cffts1_.omp_fn.3+0x218>
  403a49:	41 83 c3 01          	add    $0x1,%r11d
  403a4d:	eb b1                	jmp    403a00 <cffts1_.omp_fn.3+0x1c0>
  403a4f:	49 8b 54 24 78       	mov    0x78(%r12),%rdx
  403a54:	48 89 55 b0          	mov    %rdx,-0x50(%rbp)
  403a58:	49 8b 74 24 70       	mov    0x70(%r12),%rsi
  403a5d:	49 8b 7c 24 68       	mov    0x68(%r12),%rdi
  403a62:	4c 89 e9             	mov    %r13,%rcx
  403a65:	4c 8b 45 90          	mov    -0x70(%rbp),%r8
  403a69:	48 8b 55 b0          	mov    -0x50(%rbp),%rdx
  403a6d:	31 c0                	xor    %eax,%eax
  403a6f:	e8 8c eb ff ff       	callq  402600 <cfftz_>
  403a74:	8b 0d 76 3d 20 00    	mov    0x203d76(%rip),%ecx        # 6077f0 <blockinfo_>
  403a7a:	85 c9                	test   %ecx,%ecx
  403a7c:	7e 72                	jle    403af0 <cffts1_.omp_fn.3+0x2b0>
  403a7e:	49 8b 44 24 78       	mov    0x78(%r12),%rax
  403a83:	4c 8b 55 a8          	mov    -0x58(%rbp),%r10
  403a87:	41 bb 01 00 00 00    	mov    $0x1,%r11d
  403a8d:	4c 8b 4d b8          	mov    -0x48(%rbp),%r9
  403a91:	44 8b 00             	mov    (%rax),%r8d
  403a94:	0f 1f 40 00          	nopl   0x0(%rax)
  403a98:	45 85 c0             	test   %r8d,%r8d
  403a9b:	7e 40                	jle    403add <cffts1_.omp_fn.3+0x29d>
  403a9d:	4c 89 c8             	mov    %r9,%rax
  403aa0:	4c 89 d2             	mov    %r10,%rdx
  403aa3:	31 f6                	xor    %esi,%esi
  403aa5:	48 c1 e0 04          	shl    $0x4,%rax
  403aa9:	49 03 44 24 10       	add    0x10(%r12),%rax
  403aae:	48 c1 e2 04          	shl    $0x4,%rdx
  403ab2:	49 8d 54 15 00       	lea    0x0(%r13,%rdx,1),%rdx
  403ab7:	66 0f 1f 84 00 00 00 	nopw   0x0(%rax,%rax,1)
  403abe:	00 00 
  403ac0:	48 8b 3a             	mov    (%rdx),%rdi
  403ac3:	83 c6 01             	add    $0x1,%esi
  403ac6:	48 89 38             	mov    %rdi,(%rax)
  403ac9:	48 8b 7a 08          	mov    0x8(%rdx),%rdi
  403acd:	48 01 da             	add    %rbx,%rdx
  403ad0:	48 89 78 08          	mov    %rdi,0x8(%rax)
  403ad4:	48 83 c0 10          	add    $0x10,%rax
  403ad8:	44 39 c6             	cmp    %r8d,%esi
  403adb:	75 e3                	jne    403ac0 <cffts1_.omp_fn.3+0x280>
  403add:	49 83 c2 01          	add    $0x1,%r10
  403ae1:	4d 01 f1             	add    %r14,%r9
  403ae4:	41 39 cb             	cmp    %ecx,%r11d
  403ae7:	74 07                	je     403af0 <cffts1_.omp_fn.3+0x2b0>
  403ae9:	41 83 c3 01          	add    $0x1,%r11d
  403aed:	eb a9                	jmp    403a98 <cffts1_.omp_fn.3+0x258>
  403aef:	90                   	nop
  403af0:	8b 75 cc             	mov    -0x34(%rbp),%esi
  403af3:	48 8b 45 98          	mov    -0x68(%rbp),%rax
  403af7:	48 8b 55 a0          	mov    -0x60(%rbp),%rdx
  403afb:	48 01 45 b8          	add    %rax,-0x48(%rbp)
  403aff:	48 01 55 c0          	add    %rdx,-0x40(%rbp)
  403b03:	85 f6                	test   %esi,%esi
  403b05:	74 0d                	je     403b14 <cffts1_.omp_fn.3+0x2d4>
  403b07:	83 6d cc 01          	subl   $0x1,-0x34(%rbp)
  403b0b:	e9 d0 fe ff ff       	jmpq   4039e0 <cffts1_.omp_fn.3+0x1a0>
  403b10:	85 c0                	test   %eax,%eax
  403b12:	7e 3b                	jle    403b4f <cffts1_.omp_fn.3+0x30f>
  403b14:	83 45 8c 01          	addl   $0x1,-0x74(%rbp)
  403b18:	48 8b 85 60 ff ff ff 	mov    -0xa0(%rbp),%rax
  403b1f:	48 8b 95 68 ff ff ff 	mov    -0x98(%rbp),%rdx
  403b26:	48 01 45 80          	add    %rax,-0x80(%rbp)
  403b2a:	48 01 95 78 ff ff ff 	add    %rdx,-0x88(%rbp)
  403b31:	8b 45 8c             	mov    -0x74(%rbp),%eax
  403b34:	39 85 74 ff ff ff    	cmp    %eax,-0x8c(%rbp)
  403b3a:	0f 8d 56 fe ff ff    	jge    403996 <cffts1_.omp_fn.3+0x156>
  403b40:	48 8d 65 d8          	lea    -0x28(%rbp),%rsp
  403b44:	5b                   	pop    %rbx
  403b45:	41 5c                	pop    %r12
  403b47:	41 5d                	pop    %r13
  403b49:	41 5e                	pop    %r14
  403b4b:	41 5f                	pop    %r15
  403b4d:	c9                   	leaveq 
  403b4e:	c3                   	retq   
  403b4f:	89 ce                	mov    %ecx,%esi
  403b51:	f7 d8                	neg    %eax
  403b53:	31 d2                	xor    %edx,%edx
  403b55:	f7 de                	neg    %esi
  403b57:	f7 f6                	div    %esi
  403b59:	89 45 cc             	mov    %eax,-0x34(%rbp)
  403b5c:	e9 54 fe ff ff       	jmpq   4039b5 <cffts1_.omp_fn.3+0x175>
  403b61:	66 66 66 66 66 66 2e 	data32 data32 data32 data32 data32 nopw %cs:0x0(%rax,%rax,1)
  403b68:	0f 1f 84 00 00 00 00 
  403b6f:	00 

0000000000403b70 <cffts2_.omp_fn.2>:
  403b70:	55                   	push   %rbp
  403b71:	48 89 e5             	mov    %rsp,%rbp
  403b74:	41 57                	push   %r15
  403b76:	41 56                	push   %r14
  403b78:	41 55                	push   %r13
  403b7a:	41 54                	push   %r12
  403b7c:	53                   	push   %rbx
  403b7d:	48 89 fb             	mov    %rdi,%rbx
  403b80:	48 81 ec 98 00 00 00 	sub    $0x98,%rsp
  403b87:	48 8b 53 38          	mov    0x38(%rbx),%rdx
  403b8b:	48 8b 47 60          	mov    0x60(%rdi),%rax
  403b8f:	48 8b 4b 20          	mov    0x20(%rbx),%rcx
  403b93:	4c 8b 4f 50          	mov    0x50(%rdi),%r9
  403b97:	4c 8b 43 28          	mov    0x28(%rbx),%r8
  403b9b:	8b b3 80 00 00 00    	mov    0x80(%rbx),%esi
  403ba1:	48 89 95 68 ff ff ff 	mov    %rdx,-0x98(%rbp)
  403ba8:	48 8b 53 18          	mov    0x18(%rbx),%rdx
  403bac:	48 83 c0 1e          	add    $0x1e,%rax
  403bb0:	48 89 8d 70 ff ff ff 	mov    %rcx,-0x90(%rbp)
  403bb7:	4c 8b 67 48          	mov    0x48(%rdi),%r12
  403bbb:	48 83 e0 f0          	and    $0xfffffffffffffff0,%rax
  403bbf:	48 8b 7f 40          	mov    0x40(%rdi),%rdi
  403bc3:	89 b5 60 ff ff ff    	mov    %esi,-0xa0(%rbp)
  403bc9:	48 89 55 c8          	mov    %rdx,-0x38(%rbp)
  403bcd:	48 8b 53 58          	mov    0x58(%rbx),%rdx
  403bd1:	4c 89 85 58 ff ff ff 	mov    %r8,-0xa8(%rbp)
  403bd8:	4c 89 8d 48 ff ff ff 	mov    %r9,-0xb8(%rbp)
  403bdf:	48 89 bd 50 ff ff ff 	mov    %rdi,-0xb0(%rbp)
  403be6:	4c 8b 73 30          	mov    0x30(%rbx),%r14
  403bea:	48 83 c2 1e          	add    $0x1e,%rdx
  403bee:	48 83 e2 f0          	and    $0xfffffffffffffff0,%rdx
  403bf2:	48 29 d4             	sub    %rdx,%rsp
  403bf5:	48 8d 4c 24 0f       	lea    0xf(%rsp),%rcx
  403bfa:	48 29 c4             	sub    %rax,%rsp
  403bfd:	4c 8d 6c 24 0f       	lea    0xf(%rsp),%r13
  403c02:	48 83 e1 f0          	and    $0xfffffffffffffff0,%rcx
  403c06:	48 89 4d 98          	mov    %rcx,-0x68(%rbp)
  403c0a:	49 83 e5 f0          	and    $0xfffffffffffffff0,%r13
  403c0e:	e8 0d d1 ff ff       	callq  400d20 <omp_get_num_threads@plt>
  403c13:	41 89 c7             	mov    %eax,%r15d
  403c16:	e8 65 d1 ff ff       	callq  400d80 <omp_get_thread_num@plt>
  403c1b:	8b b5 60 ff ff ff    	mov    -0xa0(%rbp),%esi
  403c21:	89 c1                	mov    %eax,%ecx
  403c23:	48 8b bd 50 ff ff ff 	mov    -0xb0(%rbp),%rdi
  403c2a:	4c 8b 85 58 ff ff ff 	mov    -0xa8(%rbp),%r8
  403c31:	4c 8b 8d 48 ff ff ff 	mov    -0xb8(%rbp),%r9
  403c38:	89 f2                	mov    %esi,%edx
  403c3a:	89 f0                	mov    %esi,%eax
  403c3c:	c1 fa 1f             	sar    $0x1f,%edx
  403c3f:	41 f7 ff             	idiv   %r15d
  403c42:	31 d2                	xor    %edx,%edx
  403c44:	44 0f af f8          	imul   %eax,%r15d
  403c48:	44 39 fe             	cmp    %r15d,%esi
  403c4b:	0f 95 c2             	setne  %dl
  403c4e:	8d 04 02             	lea    (%rdx,%rax,1),%eax
  403c51:	0f af c8             	imul   %eax,%ecx
  403c54:	8d 04 01             	lea    (%rcx,%rax,1),%eax
  403c57:	39 f0                	cmp    %esi,%eax
  403c59:	0f 4e f0             	cmovle %eax,%esi
  403c5c:	39 f1                	cmp    %esi,%ecx
  403c5e:	89 b5 7c ff ff ff    	mov    %esi,-0x84(%rbp)
  403c64:	0f 8d cf 01 00 00    	jge    403e39 <cffts2_.omp_fn.2+0x2c9>
  403c6a:	48 8b 95 68 ff ff ff 	mov    -0x98(%rbp),%rdx
  403c71:	83 c1 01             	add    $0x1,%ecx
  403c74:	4f 8d 4c 0c 01       	lea    0x1(%r12,%r9,1),%r9
  403c79:	48 63 c1             	movslq %ecx,%rax
  403c7c:	89 4d 94             	mov    %ecx,-0x6c(%rbp)
  403c7f:	49 8d 4c 3e 01       	lea    0x1(%r14,%rdi,1),%rcx
  403c84:	4c 89 4d a0          	mov    %r9,-0x60(%rbp)
  403c88:	48 0f af d0          	imul   %rax,%rdx
  403c8c:	48 0f af 85 70 ff ff 	imul   -0x90(%rbp),%rax
  403c93:	ff 
  403c94:	48 8d 14 11          	lea    (%rcx,%rdx,1),%rdx
  403c98:	48 8b 4d c8          	mov    -0x38(%rbp),%rcx
  403c9c:	48 89 55 88          	mov    %rdx,-0x78(%rbp)
  403ca0:	4a 8d 54 01 01       	lea    0x1(%rcx,%r8,1),%rdx
  403ca5:	48 8d 04 02          	lea    (%rdx,%rax,1),%rax
  403ca9:	48 89 45 80          	mov    %rax,-0x80(%rbp)
  403cad:	48 8b 03             	mov    (%rbx),%rax
  403cb0:	8b 0d 3a 3b 20 00    	mov    0x203b3a(%rip),%ecx        # 6077f0 <blockinfo_>
  403cb6:	8b 00                	mov    (%rax),%eax
  403cb8:	29 c8                	sub    %ecx,%eax
  403cba:	85 c9                	test   %ecx,%ecx
  403cbc:	0f 8e 4a 01 00 00    	jle    403e0c <cffts2_.omp_fn.2+0x29c>
  403cc2:	85 c0                	test   %eax,%eax
  403cc4:	0f 88 46 01 00 00    	js     403e10 <cffts2_.omp_fn.2+0x2a0>
  403cca:	31 d2                	xor    %edx,%edx
  403ccc:	f7 f1                	div    %ecx
  403cce:	89 45 c4             	mov    %eax,-0x3c(%rbp)
  403cd1:	48 8b 55 80          	mov    -0x80(%rbp),%rdx
  403cd5:	48 63 c9             	movslq %ecx,%rcx
  403cd8:	48 89 4d a8          	mov    %rcx,-0x58(%rbp)
  403cdc:	48 8b 4d 88          	mov    -0x78(%rbp),%rcx
  403ce0:	48 89 55 b8          	mov    %rdx,-0x48(%rbp)
  403ce4:	48 8b 53 78          	mov    0x78(%rbx),%rdx
  403ce8:	48 89 4d b0          	mov    %rcx,-0x50(%rbp)
  403cec:	0f 1f 40 00          	nopl   0x0(%rax)
  403cf0:	44 8b 3a             	mov    (%rdx),%r15d
  403cf3:	45 85 ff             	test   %r15d,%r15d
  403cf6:	7e 68                	jle    403d60 <cffts2_.omp_fn.2+0x1f0>
  403cf8:	44 8b 05 f1 3a 20 00 	mov    0x203af1(%rip),%r8d        # 6077f0 <blockinfo_>
  403cff:	4c 8b 55 a0          	mov    -0x60(%rbp),%r10
  403d03:	41 bb 01 00 00 00    	mov    $0x1,%r11d
  403d09:	4c 8b 4d b8          	mov    -0x48(%rbp),%r9
  403d0d:	0f 1f 00             	nopl   (%rax)
  403d10:	45 85 c0             	test   %r8d,%r8d
  403d13:	7e 39                	jle    403d4e <cffts2_.omp_fn.2+0x1de>
  403d15:	4c 89 c8             	mov    %r9,%rax
  403d18:	4c 89 d1             	mov    %r10,%rcx
  403d1b:	31 f6                	xor    %esi,%esi
  403d1d:	48 c1 e0 04          	shl    $0x4,%rax
  403d21:	48 03 43 08          	add    0x8(%rbx),%rax
  403d25:	48 c1 e1 04          	shl    $0x4,%rcx
  403d29:	49 8d 4c 0d 00       	lea    0x0(%r13,%rcx,1),%rcx
  403d2e:	66 90                	xchg   %ax,%ax
  403d30:	48 8b 38             	mov    (%rax),%rdi
  403d33:	83 c6 01             	add    $0x1,%esi
  403d36:	48 89 39             	mov    %rdi,(%rcx)
  403d39:	48 8b 78 08          	mov    0x8(%rax),%rdi
  403d3d:	48 83 c0 10          	add    $0x10,%rax
  403d41:	48 89 79 08          	mov    %rdi,0x8(%rcx)
  403d45:	48 83 c1 10          	add    $0x10,%rcx
  403d49:	44 39 c6             	cmp    %r8d,%esi
  403d4c:	75 e2                	jne    403d30 <cffts2_.omp_fn.2+0x1c0>
  403d4e:	4c 03 4d c8          	add    -0x38(%rbp),%r9
  403d52:	4d 01 e2             	add    %r12,%r10
  403d55:	45 39 fb             	cmp    %r15d,%r11d
  403d58:	74 06                	je     403d60 <cffts2_.omp_fn.2+0x1f0>
  403d5a:	41 83 c3 01          	add    $0x1,%r11d
  403d5e:	eb b0                	jmp    403d10 <cffts2_.omp_fn.2+0x1a0>
  403d60:	48 8b 73 70          	mov    0x70(%rbx),%rsi
  403d64:	48 8b 7b 68          	mov    0x68(%rbx),%rdi
  403d68:	31 c0                	xor    %eax,%eax
  403d6a:	4c 8b 45 98          	mov    -0x68(%rbp),%r8
  403d6e:	4c 89 e9             	mov    %r13,%rcx
  403d71:	e8 8a e8 ff ff       	callq  402600 <cfftz_>
  403d76:	48 8b 53 78          	mov    0x78(%rbx),%rdx
  403d7a:	44 8b 3a             	mov    (%rdx),%r15d
  403d7d:	45 85 ff             	test   %r15d,%r15d
  403d80:	7e 6e                	jle    403df0 <cffts2_.omp_fn.2+0x280>
  403d82:	44 8b 05 67 3a 20 00 	mov    0x203a67(%rip),%r8d        # 6077f0 <blockinfo_>
  403d89:	4c 8b 55 a0          	mov    -0x60(%rbp),%r10
  403d8d:	41 bb 01 00 00 00    	mov    $0x1,%r11d
  403d93:	4c 8b 4d b0          	mov    -0x50(%rbp),%r9
  403d97:	66 0f 1f 84 00 00 00 	nopw   0x0(%rax,%rax,1)
  403d9e:	00 00 
  403da0:	45 85 c0             	test   %r8d,%r8d
  403da3:	7e 39                	jle    403dde <cffts2_.omp_fn.2+0x26e>
  403da5:	4c 89 c8             	mov    %r9,%rax
  403da8:	4c 89 d1             	mov    %r10,%rcx
  403dab:	31 f6                	xor    %esi,%esi
  403dad:	48 c1 e0 04          	shl    $0x4,%rax
  403db1:	48 03 43 10          	add    0x10(%rbx),%rax
  403db5:	48 c1 e1 04          	shl    $0x4,%rcx
  403db9:	49 8d 4c 0d 00       	lea    0x0(%r13,%rcx,1),%rcx
  403dbe:	66 90                	xchg   %ax,%ax
  403dc0:	48 8b 39             	mov    (%rcx),%rdi
  403dc3:	83 c6 01             	add    $0x1,%esi
  403dc6:	48 89 38             	mov    %rdi,(%rax)
  403dc9:	48 8b 79 08          	mov    0x8(%rcx),%rdi
  403dcd:	48 83 c1 10          	add    $0x10,%rcx
  403dd1:	48 89 78 08          	mov    %rdi,0x8(%rax)
  403dd5:	48 83 c0 10          	add    $0x10,%rax
  403dd9:	44 39 c6             	cmp    %r8d,%esi
  403ddc:	75 e2                	jne    403dc0 <cffts2_.omp_fn.2+0x250>
  403dde:	4d 01 e2             	add    %r12,%r10
  403de1:	4d 01 f1             	add    %r14,%r9
  403de4:	45 39 fb             	cmp    %r15d,%r11d
  403de7:	74 07                	je     403df0 <cffts2_.omp_fn.2+0x280>
  403de9:	41 83 c3 01          	add    $0x1,%r11d
  403ded:	eb b1                	jmp    403da0 <cffts2_.omp_fn.2+0x230>
  403def:	90                   	nop
  403df0:	8b 7d c4             	mov    -0x3c(%rbp),%edi
  403df3:	48 8b 45 a8          	mov    -0x58(%rbp),%rax
  403df7:	48 01 45 b0          	add    %rax,-0x50(%rbp)
  403dfb:	48 01 45 b8          	add    %rax,-0x48(%rbp)
  403dff:	85 ff                	test   %edi,%edi
  403e01:	74 0d                	je     403e10 <cffts2_.omp_fn.2+0x2a0>
  403e03:	83 6d c4 01          	subl   $0x1,-0x3c(%rbp)
  403e07:	e9 e4 fe ff ff       	jmpq   403cf0 <cffts2_.omp_fn.2+0x180>
  403e0c:	85 c0                	test   %eax,%eax
  403e0e:	7e 38                	jle    403e48 <cffts2_.omp_fn.2+0x2d8>
  403e10:	83 45 94 01          	addl   $0x1,-0x6c(%rbp)
  403e14:	48 8b 85 68 ff ff ff 	mov    -0x98(%rbp),%rax
  403e1b:	48 8b 95 70 ff ff ff 	mov    -0x90(%rbp),%rdx
  403e22:	48 01 45 88          	add    %rax,-0x78(%rbp)
  403e26:	48 01 55 80          	add    %rdx,-0x80(%rbp)
  403e2a:	8b 4d 94             	mov    -0x6c(%rbp),%ecx
  403e2d:	39 8d 7c ff ff ff    	cmp    %ecx,-0x84(%rbp)
  403e33:	0f 8d 74 fe ff ff    	jge    403cad <cffts2_.omp_fn.2+0x13d>
  403e39:	48 8d 65 d8          	lea    -0x28(%rbp),%rsp
  403e3d:	5b                   	pop    %rbx
  403e3e:	41 5c                	pop    %r12
  403e40:	41 5d                	pop    %r13
  403e42:	41 5e                	pop    %r14
  403e44:	41 5f                	pop    %r15
  403e46:	c9                   	leaveq 
  403e47:	c3                   	retq   
  403e48:	89 ce                	mov    %ecx,%esi
  403e4a:	f7 d8                	neg    %eax
  403e4c:	31 d2                	xor    %edx,%edx
  403e4e:	f7 de                	neg    %esi
  403e50:	f7 f6                	div    %esi
  403e52:	89 45 c4             	mov    %eax,-0x3c(%rbp)
  403e55:	e9 77 fe ff ff       	jmpq   403cd1 <cffts2_.omp_fn.2+0x161>
  403e5a:	66 0f 1f 44 00 00    	nopw   0x0(%rax,%rax,1)

0000000000403e60 <cffts3_.omp_fn.1>:
  403e60:	55                   	push   %rbp
  403e61:	48 89 e5             	mov    %rsp,%rbp
  403e64:	41 57                	push   %r15
  403e66:	41 56                	push   %r14
  403e68:	41 55                	push   %r13
  403e6a:	41 54                	push   %r12
  403e6c:	53                   	push   %rbx
  403e6d:	48 89 fb             	mov    %rdi,%rbx
  403e70:	48 81 ec 98 00 00 00 	sub    $0x98,%rsp
  403e77:	48 8b 53 40          	mov    0x40(%rbx),%rdx
  403e7b:	48 8b 47 70          	mov    0x70(%rdi),%rax
  403e7f:	48 8b 4b 30          	mov    0x30(%rbx),%rcx
  403e83:	4c 8b 4f 60          	mov    0x60(%rdi),%r9
  403e87:	4c 8b 43 38          	mov    0x38(%rbx),%r8
  403e8b:	8b b3 80 00 00 00    	mov    0x80(%rbx),%esi
  403e91:	48 89 95 68 ff ff ff 	mov    %rdx,-0x98(%rbp)
  403e98:	48 8b 53 28          	mov    0x28(%rbx),%rdx
  403e9c:	48 83 c0 1e          	add    $0x1e,%rax
  403ea0:	48 89 4d c8          	mov    %rcx,-0x38(%rbp)
  403ea4:	4c 8b 67 58          	mov    0x58(%rdi),%r12
  403ea8:	48 83 e0 f0          	and    $0xfffffffffffffff0,%rax
  403eac:	48 8b 7f 50          	mov    0x50(%rdi),%rdi
  403eb0:	89 b5 60 ff ff ff    	mov    %esi,-0xa0(%rbp)
  403eb6:	48 89 95 70 ff ff ff 	mov    %rdx,-0x90(%rbp)
  403ebd:	48 8b 53 68          	mov    0x68(%rbx),%rdx
  403ec1:	4c 89 85 58 ff ff ff 	mov    %r8,-0xa8(%rbp)
  403ec8:	4c 89 8d 48 ff ff ff 	mov    %r9,-0xb8(%rbp)
  403ecf:	48 89 bd 50 ff ff ff 	mov    %rdi,-0xb0(%rbp)
  403ed6:	4c 8b 73 48          	mov    0x48(%rbx),%r14
  403eda:	48 83 c2 1e          	add    $0x1e,%rdx
  403ede:	48 83 e2 f0          	and    $0xfffffffffffffff0,%rdx
  403ee2:	48 29 d4             	sub    %rdx,%rsp
  403ee5:	48 8d 4c 24 0f       	lea    0xf(%rsp),%rcx
  403eea:	48 29 c4             	sub    %rax,%rsp
  403eed:	4c 8d 6c 24 0f       	lea    0xf(%rsp),%r13
  403ef2:	48 83 e1 f0          	and    $0xfffffffffffffff0,%rcx
  403ef6:	48 89 4d 98          	mov    %rcx,-0x68(%rbp)
  403efa:	49 83 e5 f0          	and    $0xfffffffffffffff0,%r13
  403efe:	e8 1d ce ff ff       	callq  400d20 <omp_get_num_threads@plt>
  403f03:	41 89 c7             	mov    %eax,%r15d
  403f06:	e8 75 ce ff ff       	callq  400d80 <omp_get_thread_num@plt>
  403f0b:	8b b5 60 ff ff ff    	mov    -0xa0(%rbp),%esi
  403f11:	89 c1                	mov    %eax,%ecx
  403f13:	48 8b bd 50 ff ff ff 	mov    -0xb0(%rbp),%rdi
  403f1a:	4c 8b 85 58 ff ff ff 	mov    -0xa8(%rbp),%r8
  403f21:	4c 8b 8d 48 ff ff ff 	mov    -0xb8(%rbp),%r9
  403f28:	89 f2                	mov    %esi,%edx
  403f2a:	89 f0                	mov    %esi,%eax
  403f2c:	c1 fa 1f             	sar    $0x1f,%edx
  403f2f:	41 f7 ff             	idiv   %r15d
  403f32:	31 d2                	xor    %edx,%edx
  403f34:	44 0f af f8          	imul   %eax,%r15d
  403f38:	44 39 fe             	cmp    %r15d,%esi
  403f3b:	0f 95 c2             	setne  %dl
  403f3e:	8d 04 02             	lea    (%rdx,%rax,1),%eax
  403f41:	0f af c8             	imul   %eax,%ecx
  403f44:	8d 04 01             	lea    (%rcx,%rax,1),%eax
  403f47:	39 f0                	cmp    %esi,%eax
  403f49:	0f 4e f0             	cmovle %eax,%esi
  403f4c:	39 f1                	cmp    %esi,%ecx
  403f4e:	89 b5 7c ff ff ff    	mov    %esi,-0x84(%rbp)
  403f54:	0f 8d d1 01 00 00    	jge    40412b <cffts3_.omp_fn.1+0x2cb>
  403f5a:	48 8b 95 68 ff ff ff 	mov    -0x98(%rbp),%rdx
  403f61:	83 c1 01             	add    $0x1,%ecx
  403f64:	4f 8d 4c 0c 01       	lea    0x1(%r12,%r9,1),%r9
  403f69:	48 63 c1             	movslq %ecx,%rax
  403f6c:	89 4d 94             	mov    %ecx,-0x6c(%rbp)
  403f6f:	49 8d 4c 3e 01       	lea    0x1(%r14,%rdi,1),%rcx
  403f74:	4c 89 4d a0          	mov    %r9,-0x60(%rbp)
  403f78:	48 0f af d0          	imul   %rax,%rdx
  403f7c:	48 0f af 85 70 ff ff 	imul   -0x90(%rbp),%rax
  403f83:	ff 
  403f84:	48 8d 14 11          	lea    (%rcx,%rdx,1),%rdx
  403f88:	48 8b 4d c8          	mov    -0x38(%rbp),%rcx
  403f8c:	48 89 55 88          	mov    %rdx,-0x78(%rbp)
  403f90:	4a 8d 54 01 01       	lea    0x1(%rcx,%r8,1),%rdx
  403f95:	48 8d 04 02          	lea    (%rdx,%rax,1),%rax
  403f99:	48 89 45 80          	mov    %rax,-0x80(%rbp)
  403f9d:	48 8b 03             	mov    (%rbx),%rax
  403fa0:	8b 0d 4a 38 20 00    	mov    0x20384a(%rip),%ecx        # 6077f0 <blockinfo_>
  403fa6:	8b 00                	mov    (%rax),%eax
  403fa8:	29 c8                	sub    %ecx,%eax
  403faa:	85 c9                	test   %ecx,%ecx
  403fac:	0f 8e 4c 01 00 00    	jle    4040fe <cffts3_.omp_fn.1+0x29e>
  403fb2:	85 c0                	test   %eax,%eax
  403fb4:	0f 88 48 01 00 00    	js     404102 <cffts3_.omp_fn.1+0x2a2>
  403fba:	31 d2                	xor    %edx,%edx
  403fbc:	f7 f1                	div    %ecx
  403fbe:	89 45 c4             	mov    %eax,-0x3c(%rbp)
  403fc1:	48 8b 55 80          	mov    -0x80(%rbp),%rdx
  403fc5:	48 63 c9             	movslq %ecx,%rcx
  403fc8:	48 89 4d a8          	mov    %rcx,-0x58(%rbp)
  403fcc:	48 8b 4d 88          	mov    -0x78(%rbp),%rcx
  403fd0:	48 89 55 b8          	mov    %rdx,-0x48(%rbp)
  403fd4:	48 8b 53 08          	mov    0x8(%rbx),%rdx
  403fd8:	48 89 4d b0          	mov    %rcx,-0x50(%rbp)
  403fdc:	0f 1f 40 00          	nopl   0x0(%rax)
  403fe0:	44 8b 3a             	mov    (%rdx),%r15d
  403fe3:	45 85 ff             	test   %r15d,%r15d
  403fe6:	7e 68                	jle    404050 <cffts3_.omp_fn.1+0x1f0>
  403fe8:	44 8b 05 01 38 20 00 	mov    0x203801(%rip),%r8d        # 6077f0 <blockinfo_>
  403fef:	4c 8b 55 a0          	mov    -0x60(%rbp),%r10
  403ff3:	41 bb 01 00 00 00    	mov    $0x1,%r11d
  403ff9:	4c 8b 4d b8          	mov    -0x48(%rbp),%r9
  403ffd:	0f 1f 00             	nopl   (%rax)
  404000:	45 85 c0             	test   %r8d,%r8d
  404003:	7e 39                	jle    40403e <cffts3_.omp_fn.1+0x1de>
  404005:	4c 89 c8             	mov    %r9,%rax
  404008:	4c 89 d1             	mov    %r10,%rcx
  40400b:	31 f6                	xor    %esi,%esi
  40400d:	48 c1 e0 04          	shl    $0x4,%rax
  404011:	48 03 43 10          	add    0x10(%rbx),%rax
  404015:	48 c1 e1 04          	shl    $0x4,%rcx
  404019:	49 8d 4c 0d 00       	lea    0x0(%r13,%rcx,1),%rcx
  40401e:	66 90                	xchg   %ax,%ax
  404020:	48 8b 38             	mov    (%rax),%rdi
  404023:	83 c6 01             	add    $0x1,%esi
  404026:	48 89 39             	mov    %rdi,(%rcx)
  404029:	48 8b 78 08          	mov    0x8(%rax),%rdi
  40402d:	48 83 c0 10          	add    $0x10,%rax
  404031:	48 89 79 08          	mov    %rdi,0x8(%rcx)
  404035:	48 83 c1 10          	add    $0x10,%rcx
  404039:	44 39 c6             	cmp    %r8d,%esi
  40403c:	75 e2                	jne    404020 <cffts3_.omp_fn.1+0x1c0>
  40403e:	4c 03 4d c8          	add    -0x38(%rbp),%r9
  404042:	4d 01 e2             	add    %r12,%r10
  404045:	45 39 fb             	cmp    %r15d,%r11d
  404048:	74 06                	je     404050 <cffts3_.omp_fn.1+0x1f0>
  40404a:	41 83 c3 01          	add    $0x1,%r11d
  40404e:	eb b0                	jmp    404000 <cffts3_.omp_fn.1+0x1a0>
  404050:	48 8b 73 20          	mov    0x20(%rbx),%rsi
  404054:	48 8b 7b 78          	mov    0x78(%rbx),%rdi
  404058:	31 c0                	xor    %eax,%eax
  40405a:	4c 8b 45 98          	mov    -0x68(%rbp),%r8
  40405e:	4c 89 e9             	mov    %r13,%rcx
  404061:	e8 9a e5 ff ff       	callq  402600 <cfftz_>
  404066:	48 8b 53 08          	mov    0x8(%rbx),%rdx
  40406a:	44 8b 3a             	mov    (%rdx),%r15d
  40406d:	45 85 ff             	test   %r15d,%r15d
  404070:	7e 6e                	jle    4040e0 <cffts3_.omp_fn.1+0x280>
  404072:	44 8b 05 77 37 20 00 	mov    0x203777(%rip),%r8d        # 6077f0 <blockinfo_>
  404079:	4c 8b 55 a0          	mov    -0x60(%rbp),%r10
  40407d:	41 bb 01 00 00 00    	mov    $0x1,%r11d
  404083:	4c 8b 4d b0          	mov    -0x50(%rbp),%r9
  404087:	66 0f 1f 84 00 00 00 	nopw   0x0(%rax,%rax,1)
  40408e:	00 00 
  404090:	45 85 c0             	test   %r8d,%r8d
  404093:	7e 39                	jle    4040ce <cffts3_.omp_fn.1+0x26e>
  404095:	4c 89 c8             	mov    %r9,%rax
  404098:	4c 89 d1             	mov    %r10,%rcx
  40409b:	31 f6                	xor    %esi,%esi
  40409d:	48 c1 e0 04          	shl    $0x4,%rax
  4040a1:	48 03 43 18          	add    0x18(%rbx),%rax
  4040a5:	48 c1 e1 04          	shl    $0x4,%rcx
  4040a9:	49 8d 4c 0d 00       	lea    0x0(%r13,%rcx,1),%rcx
  4040ae:	66 90                	xchg   %ax,%ax
  4040b0:	48 8b 39             	mov    (%rcx),%rdi
  4040b3:	83 c6 01             	add    $0x1,%esi
  4040b6:	48 89 38             	mov    %rdi,(%rax)
  4040b9:	48 8b 79 08          	mov    0x8(%rcx),%rdi
  4040bd:	48 83 c1 10          	add    $0x10,%rcx
  4040c1:	48 89 78 08          	mov    %rdi,0x8(%rax)
  4040c5:	48 83 c0 10          	add    $0x10,%rax
  4040c9:	44 39 c6             	cmp    %r8d,%esi
  4040cc:	75 e2                	jne    4040b0 <cffts3_.omp_fn.1+0x250>
  4040ce:	4d 01 e2             	add    %r12,%r10
  4040d1:	4d 01 f1             	add    %r14,%r9
  4040d4:	45 39 fb             	cmp    %r15d,%r11d
  4040d7:	74 07                	je     4040e0 <cffts3_.omp_fn.1+0x280>
  4040d9:	41 83 c3 01          	add    $0x1,%r11d
  4040dd:	eb b1                	jmp    404090 <cffts3_.omp_fn.1+0x230>
  4040df:	90                   	nop
  4040e0:	44 8b 45 c4          	mov    -0x3c(%rbp),%r8d
  4040e4:	48 8b 45 a8          	mov    -0x58(%rbp),%rax
  4040e8:	48 01 45 b0          	add    %rax,-0x50(%rbp)
  4040ec:	48 01 45 b8          	add    %rax,-0x48(%rbp)
  4040f0:	45 85 c0             	test   %r8d,%r8d
  4040f3:	74 0d                	je     404102 <cffts3_.omp_fn.1+0x2a2>
  4040f5:	83 6d c4 01          	subl   $0x1,-0x3c(%rbp)
  4040f9:	e9 e2 fe ff ff       	jmpq   403fe0 <cffts3_.omp_fn.1+0x180>
  4040fe:	85 c0                	test   %eax,%eax
  404100:	7e 38                	jle    40413a <cffts3_.omp_fn.1+0x2da>
  404102:	83 45 94 01          	addl   $0x1,-0x6c(%rbp)
  404106:	48 8b 85 68 ff ff ff 	mov    -0x98(%rbp),%rax
  40410d:	48 8b 95 70 ff ff ff 	mov    -0x90(%rbp),%rdx
  404114:	48 01 45 88          	add    %rax,-0x78(%rbp)
  404118:	48 01 55 80          	add    %rdx,-0x80(%rbp)
  40411c:	8b 4d 94             	mov    -0x6c(%rbp),%ecx
  40411f:	39 8d 7c ff ff ff    	cmp    %ecx,-0x84(%rbp)
  404125:	0f 8d 72 fe ff ff    	jge    403f9d <cffts3_.omp_fn.1+0x13d>
  40412b:	48 8d 65 d8          	lea    -0x28(%rbp),%rsp
  40412f:	5b                   	pop    %rbx
  404130:	41 5c                	pop    %r12
  404132:	41 5d                	pop    %r13
  404134:	41 5e                	pop    %r14
  404136:	41 5f                	pop    %r15
  404138:	c9                   	leaveq 
  404139:	c3                   	retq   
  40413a:	89 ce                	mov    %ecx,%esi
  40413c:	f7 d8                	neg    %eax
  40413e:	31 d2                	xor    %edx,%edx
  404140:	f7 de                	neg    %esi
  404142:	f7 f6                	div    %esi
  404144:	89 45 c4             	mov    %eax,-0x3c(%rbp)
  404147:	e9 75 fe ff ff       	jmpq   403fc1 <cffts3_.omp_fn.1+0x161>
  40414c:	0f 1f 40 00          	nopl   0x0(%rax)

0000000000404150 <evolve_.omp_fn.6>:
  404150:	41 57                	push   %r15
  404152:	41 56                	push   %r14
  404154:	41 55                	push   %r13
  404156:	41 54                	push   %r12
  404158:	55                   	push   %rbp
  404159:	53                   	push   %rbx
  40415a:	48 89 fb             	mov    %rdi,%rbx
  40415d:	48 81 ec d8 00 00 00 	sub    $0xd8,%rsp
  404164:	48 8b 47 60          	mov    0x60(%rdi),%rax
  404168:	48 8b 57 58          	mov    0x58(%rdi),%rdx
  40416c:	48 8b 77 48          	mov    0x48(%rdi),%rsi
  404170:	44 8b 67 70          	mov    0x70(%rdi),%r12d
  404174:	4c 8b 7f 68          	mov    0x68(%rdi),%r15
  404178:	48 8b 6f 50          	mov    0x50(%rdi),%rbp
  40417c:	48 89 84 24 b0 00 00 	mov    %rax,0xb0(%rsp)
  404183:	00 
  404184:	48 89 54 24 40       	mov    %rdx,0x40(%rsp)
  404189:	48 8b 47 40          	mov    0x40(%rdi),%rax
  40418d:	48 8b 57 30          	mov    0x30(%rdi),%rdx
  404191:	48 89 b4 24 a8 00 00 	mov    %rsi,0xa8(%rsp)
  404198:	00 
  404199:	48 8b 77 28          	mov    0x28(%rdi),%rsi
  40419d:	4c 8b 77 38          	mov    0x38(%rdi),%r14
  4041a1:	48 89 94 24 a0 00 00 	mov    %rdx,0xa0(%rsp)
  4041a8:	00 
  4041a9:	48 89 44 24 38       	mov    %rax,0x38(%rsp)
  4041ae:	48 89 74 24 30       	mov    %rsi,0x30(%rsp)
  4041b3:	e8 68 cb ff ff       	callq  400d20 <omp_get_num_threads@plt>
  4041b8:	41 89 c5             	mov    %eax,%r13d
  4041bb:	e8 c0 cb ff ff       	callq  400d80 <omp_get_thread_num@plt>
  4041c0:	44 89 e2             	mov    %r12d,%edx
  4041c3:	89 c1                	mov    %eax,%ecx
  4041c5:	44 89 e0             	mov    %r12d,%eax
  4041c8:	c1 fa 1f             	sar    $0x1f,%edx
  4041cb:	41 f7 fd             	idiv   %r13d
  4041ce:	31 d2                	xor    %edx,%edx
  4041d0:	44 0f af e8          	imul   %eax,%r13d
  4041d4:	45 39 ec             	cmp    %r13d,%r12d
  4041d7:	0f 95 c2             	setne  %dl
  4041da:	8d 04 02             	lea    (%rdx,%rax,1),%eax
  4041dd:	0f af c8             	imul   %eax,%ecx
  4041e0:	8d 04 01             	lea    (%rcx,%rax,1),%eax
  4041e3:	44 39 e0             	cmp    %r12d,%eax
  4041e6:	44 0f 4e e0          	cmovle %eax,%r12d
  4041ea:	44 39 e1             	cmp    %r12d,%ecx
  4041ed:	44 89 a4 24 9c 00 00 	mov    %r12d,0x9c(%rsp)
  4041f4:	00 
  4041f5:	0f 8d ea 03 00 00    	jge    4045e5 <evolve_.omp_fn.6+0x495>
  4041fb:	48 8b 43 20          	mov    0x20(%rbx),%rax
  4041ff:	48 8b 94 24 a8 00 00 	mov    0xa8(%rsp),%rdx
  404206:	00 
  404207:	83 c1 01             	add    $0x1,%ecx
  40420a:	48 03 6c 24 38       	add    0x38(%rsp),%rbp
  40420f:	4c 03 74 24 30       	add    0x30(%rsp),%r14
  404214:	4c 03 7c 24 40       	add    0x40(%rsp),%r15
  404219:	48 8b b4 24 b0 00 00 	mov    0xb0(%rsp),%rsi
  404220:	00 
  404221:	8b 00                	mov    (%rax),%eax
  404223:	89 4c 24 64          	mov    %ecx,0x64(%rsp)
  404227:	48 c1 e6 04          	shl    $0x4,%rsi
  40422b:	89 44 24 2c          	mov    %eax,0x2c(%rsp)
  40422f:	48 63 c1             	movslq %ecx,%rax
  404232:	48 89 b4 24 c0 00 00 	mov    %rsi,0xc0(%rsp)
  404239:	00 
  40423a:	48 0f af d0          	imul   %rax,%rdx
  40423e:	48 8d 54 15 00       	lea    0x0(%rbp,%rdx,1),%rdx
  404243:	48 89 94 24 88 00 00 	mov    %rdx,0x88(%rsp)
  40424a:	00 
  40424b:	48 8b 94 24 a0 00 00 	mov    0xa0(%rsp),%rdx
  404252:	00 
  404253:	48 0f af d0          	imul   %rax,%rdx
  404257:	48 0f af 84 24 b0 00 	imul   0xb0(%rsp),%rax
  40425e:	00 00 
  404260:	49 8d 14 16          	lea    (%r14,%rdx,1),%rdx
  404264:	48 89 94 24 80 00 00 	mov    %rdx,0x80(%rsp)
  40426b:	00 
  40426c:	48 8b 94 24 88 00 00 	mov    0x88(%rsp),%rdx
  404273:	00 
  404274:	48 8b b4 24 80 00 00 	mov    0x80(%rsp),%rsi
  40427b:	00 
  40427c:	49 8d 04 07          	lea    (%r15,%rax,1),%rax
  404280:	48 83 c2 01          	add    $0x1,%rdx
  404284:	48 89 44 24 78       	mov    %rax,0x78(%rsp)
  404289:	48 8b 84 24 a8 00 00 	mov    0xa8(%rsp),%rax
  404290:	00 
  404291:	48 c1 e2 04          	shl    $0x4,%rdx
  404295:	48 89 54 24 70       	mov    %rdx,0x70(%rsp)
  40429a:	48 8b 94 24 a0 00 00 	mov    0xa0(%rsp),%rdx
  4042a1:	00 
  4042a2:	48 8d 34 f5 08 00 00 	lea    0x8(,%rsi,8),%rsi
  4042a9:	00 
  4042aa:	48 c1 e0 04          	shl    $0x4,%rax
  4042ae:	48 89 b4 24 90 00 00 	mov    %rsi,0x90(%rsp)
  4042b5:	00 
  4042b6:	48 8b 74 24 30       	mov    0x30(%rsp),%rsi
  4042bb:	48 89 84 24 c8 00 00 	mov    %rax,0xc8(%rsp)
  4042c2:	00 
  4042c3:	48 8b 44 24 78       	mov    0x78(%rsp),%rax
  4042c8:	48 c1 e2 03          	shl    $0x3,%rdx
  4042cc:	48 89 94 24 b8 00 00 	mov    %rdx,0xb8(%rsp)
  4042d3:	00 
  4042d4:	48 8b 54 24 40       	mov    0x40(%rsp),%rdx
  4042d9:	48 c1 e6 03          	shl    $0x3,%rsi
  4042dd:	48 83 c0 01          	add    $0x1,%rax
  4042e1:	48 89 74 24 58       	mov    %rsi,0x58(%rsp)
  4042e6:	48 c1 e0 04          	shl    $0x4,%rax
  4042ea:	48 c1 e2 04          	shl    $0x4,%rdx
  4042ee:	48 89 44 24 68       	mov    %rax,0x68(%rsp)
  4042f3:	48 8b 44 24 38       	mov    0x38(%rsp),%rax
  4042f8:	48 89 54 24 50       	mov    %rdx,0x50(%rsp)
  4042fd:	48 c1 e0 04          	shl    $0x4,%rax
  404301:	48 89 44 24 48       	mov    %rax,0x48(%rsp)
  404306:	66 2e 0f 1f 84 00 00 	nopw   %cs:0x0(%rax,%rax,1)
  40430d:	00 00 00 
  404310:	8b 54 24 2c          	mov    0x2c(%rsp),%edx
  404314:	85 d2                	test   %edx,%edx
  404316:	0f 8e 5c 02 00 00    	jle    404578 <evolve_.omp_fn.6+0x428>
  40431c:	48 8b 43 18          	mov    0x18(%rbx),%rax
  404320:	48 8b 54 24 78       	mov    0x78(%rsp),%rdx
  404325:	48 8b b4 24 88 00 00 	mov    0x88(%rsp),%rsi
  40432c:	00 
  40432d:	4c 8b b4 24 90 00 00 	mov    0x90(%rsp),%r14
  404334:	00 
  404335:	4c 8b 6c 24 68       	mov    0x68(%rsp),%r13
  40433a:	4c 8b 64 24 70       	mov    0x70(%rsp),%r12
  40433f:	44 8b 10             	mov    (%rax),%r10d
  404342:	4c 8b 9c 24 80 00 00 	mov    0x80(%rsp),%r11
  404349:	00 
  40434a:	48 89 54 24 08       	mov    %rdx,0x8(%rsp)
  40434f:	48 89 34 24          	mov    %rsi,(%rsp)
  404353:	c7 44 24 14 01 00 00 	movl   $0x1,0x14(%rsp)
  40435a:	00 
  40435b:	45 89 d1             	mov    %r10d,%r9d
  40435e:	41 d1 e9             	shr    %r9d
  404361:	43 8d 04 09          	lea    (%r9,%r9,1),%eax
  404365:	89 44 24 28          	mov    %eax,0x28(%rsp)
  404369:	83 c0 01             	add    $0x1,%eax
  40436c:	89 44 24 60          	mov    %eax,0x60(%rsp)
  404370:	45 85 d2             	test   %r10d,%r10d
  404373:	0f 8e c0 01 00 00    	jle    404539 <evolve_.omp_fn.6+0x3e9>
  404379:	48 8b 13             	mov    (%rbx),%rdx
  40437c:	48 8b 73 08          	mov    0x8(%rbx),%rsi
  404380:	4c 8b 7b 10          	mov    0x10(%rbx),%r15
  404384:	48 89 d5             	mov    %rdx,%rbp
  404387:	49 89 f0             	mov    %rsi,%r8
  40438a:	48 89 54 24 20       	mov    %rdx,0x20(%rsp)
  40438f:	4c 01 e5             	add    %r12,%rbp
  404392:	4d 01 e8             	add    %r13,%r8
  404395:	48 89 74 24 18       	mov    %rsi,0x18(%rsp)
  40439a:	48 8d 45 20          	lea    0x20(%rbp),%rax
  40439e:	49 8d 48 20          	lea    0x20(%r8),%rcx
  4043a2:	4b 8d 34 37          	lea    (%r15,%r14,1),%rsi
  4043a6:	49 39 c0             	cmp    %rax,%r8
  4043a9:	40 0f 97 c7          	seta   %dil
  4043ad:	48 39 cd             	cmp    %rcx,%rbp
  4043b0:	0f 97 c2             	seta   %dl
  4043b3:	09 fa                	or     %edi,%edx
  4043b5:	48 8d 7e 10          	lea    0x10(%rsi),%rdi
  4043b9:	83 e2 01             	and    $0x1,%edx
  4043bc:	0f 84 4e 02 00 00    	je     404610 <evolve_.omp_fn.6+0x4c0>
  4043c2:	41 83 fa 11          	cmp    $0x11,%r10d
  4043c6:	0f 86 44 02 00 00    	jbe    404610 <evolve_.omp_fn.6+0x4c0>
  4043cc:	4c 89 c2             	mov    %r8,%rdx
  4043cf:	48 09 ea             	or     %rbp,%rdx
  4043d2:	83 e2 0f             	and    $0xf,%edx
  4043d5:	0f 85 35 02 00 00    	jne    404610 <evolve_.omp_fn.6+0x4c0>
  4043db:	48 39 fd             	cmp    %rdi,%rbp
  4043de:	0f 86 a4 02 00 00    	jbe    404688 <evolve_.omp_fn.6+0x538>
  4043e4:	49 39 f8             	cmp    %rdi,%r8
  4043e7:	0f 86 13 02 00 00    	jbe    404600 <evolve_.omp_fn.6+0x4b0>
  4043ed:	48 39 c5             	cmp    %rax,%rbp
  4043f0:	0f 86 1a 02 00 00    	jbe    404610 <evolve_.omp_fn.6+0x4c0>
  4043f6:	8b 44 24 28          	mov    0x28(%rsp),%eax
  4043fa:	85 c0                	test   %eax,%eax
  4043fc:	0f 84 9b 02 00 00    	je     40469d <evolve_.omp_fn.6+0x54d>
  404402:	48 89 e9             	mov    %rbp,%rcx
  404405:	48 89 ea             	mov    %rbp,%rdx
  404408:	31 c0                	xor    %eax,%eax
  40440a:	31 ff                	xor    %edi,%edi
  40440c:	0f 1f 40 00          	nopl   0x0(%rax)
  404410:	f2 0f 10 01          	movsd  (%rcx),%xmm0
  404414:	83 c7 01             	add    $0x1,%edi
  404417:	f2 0f 10 49 10       	movsd  0x10(%rcx),%xmm1
  40441c:	66 0f 16 41 08       	movhpd 0x8(%rcx),%xmm0
  404421:	66 0f 16 49 18       	movhpd 0x18(%rcx),%xmm1
  404426:	48 83 c1 20          	add    $0x20,%rcx
  40442a:	66 0f 28 d8          	movapd %xmm0,%xmm3
  40442e:	66 0f 28 c1          	movapd %xmm1,%xmm0
  404432:	f2 0f 10 0e          	movsd  (%rsi),%xmm1
  404436:	66 0f 16 4e 08       	movhpd 0x8(%rsi),%xmm1
  40443b:	48 83 c6 10          	add    $0x10,%rsi
  40443f:	66 0f 28 d1          	movapd %xmm1,%xmm2
  404443:	66 0f 28 cb          	movapd %xmm3,%xmm1
  404447:	66 0f 15 d8          	unpckhpd %xmm0,%xmm3
  40444b:	66 0f 14 c8          	unpcklpd %xmm0,%xmm1
  40444f:	66 0f 28 c3          	movapd %xmm3,%xmm0
  404453:	66 0f 59 ca          	mulpd  %xmm2,%xmm1
  404457:	66 0f 59 c2          	mulpd  %xmm2,%xmm0
  40445b:	66 0f 28 d1          	movapd %xmm1,%xmm2
  40445f:	66 0f 15 c8          	unpckhpd %xmm0,%xmm1
  404463:	66 0f 14 d0          	unpcklpd %xmm0,%xmm2
  404467:	66 0f 29 4c 05 10    	movapd %xmm1,0x10(%rbp,%rax,1)
  40446d:	66 0f 29 54 05 00    	movapd %xmm2,0x0(%rbp,%rax,1)
  404473:	f2 0f 10 4a 10       	movsd  0x10(%rdx),%xmm1
  404478:	f2 0f 10 12          	movsd  (%rdx),%xmm2
  40447c:	66 0f 16 4a 18       	movhpd 0x18(%rdx),%xmm1
  404481:	66 0f 16 52 08       	movhpd 0x8(%rdx),%xmm2
  404486:	48 83 c2 20          	add    $0x20,%rdx
  40448a:	66 0f 28 c1          	movapd %xmm1,%xmm0
  40448e:	66 41 0f 29 14 00    	movapd %xmm2,(%r8,%rax,1)
  404494:	66 41 0f 29 44 00 10 	movapd %xmm0,0x10(%r8,%rax,1)
  40449b:	48 83 c0 20          	add    $0x20,%rax
  40449f:	44 39 cf             	cmp    %r9d,%edi
  4044a2:	0f 82 68 ff ff ff    	jb     404410 <evolve_.omp_fn.6+0x2c0>
  4044a8:	44 3b 54 24 28       	cmp    0x28(%rsp),%r10d
  4044ad:	8b 54 24 60          	mov    0x60(%rsp),%edx
  4044b1:	0f 84 82 00 00 00    	je     404539 <evolve_.omp_fn.6+0x3e9>
  4044b7:	48 8b 34 24          	mov    (%rsp),%rsi
  4044bb:	48 63 ca             	movslq %edx,%rcx
  4044be:	48 8d 04 31          	lea    (%rcx,%rsi,1),%rax
  4044c2:	4a 8d 34 19          	lea    (%rcx,%r11,1),%rsi
  4044c6:	48 03 4c 24 08       	add    0x8(%rsp),%rcx
  4044cb:	48 c1 e0 04          	shl    $0x4,%rax
  4044cf:	48 03 44 24 20       	add    0x20(%rsp),%rax
  4044d4:	49 8d 3c f7          	lea    (%r15,%rsi,8),%rdi
  4044d8:	44 89 d6             	mov    %r10d,%esi
  4044db:	48 c1 e1 04          	shl    $0x4,%rcx
  4044df:	48 03 4c 24 18       	add    0x18(%rsp),%rcx
  4044e4:	29 d6                	sub    %edx,%esi
  4044e6:	4c 8d 3c f5 08 00 00 	lea    0x8(,%rsi,8),%r15
  4044ed:	00 
  4044ee:	31 f6                	xor    %esi,%esi
  4044f0:	48 89 c2             	mov    %rax,%rdx
  4044f3:	0f 1f 44 00 00       	nopl   0x0(%rax,%rax,1)
  4044f8:	f2 0f 10 07          	movsd  (%rdi),%xmm0
  4044fc:	48 83 c6 08          	add    $0x8,%rsi
  404500:	f2 0f 10 48 08       	movsd  0x8(%rax),%xmm1
  404505:	48 83 c7 08          	add    $0x8,%rdi
  404509:	f2 0f 59 c8          	mulsd  %xmm0,%xmm1
  40450d:	f2 0f 59 00          	mulsd  (%rax),%xmm0
  404511:	f2 0f 11 48 08       	movsd  %xmm1,0x8(%rax)
  404516:	f2 0f 11 00          	movsd  %xmm0,(%rax)
  40451a:	48 8b 6a 08          	mov    0x8(%rdx),%rbp
  40451e:	4c 8b 02             	mov    (%rdx),%r8
  404521:	48 83 c0 10          	add    $0x10,%rax
  404525:	48 83 c2 10          	add    $0x10,%rdx
  404529:	4c 89 01             	mov    %r8,(%rcx)
  40452c:	48 89 69 08          	mov    %rbp,0x8(%rcx)
  404530:	48 83 c1 10          	add    $0x10,%rcx
  404534:	4c 39 fe             	cmp    %r15,%rsi
  404537:	75 bf                	jne    4044f8 <evolve_.omp_fn.6+0x3a8>
  404539:	48 8b 54 24 38       	mov    0x38(%rsp),%rdx
  40453e:	4c 03 5c 24 30       	add    0x30(%rsp),%r11
  404543:	48 01 14 24          	add    %rdx,(%rsp)
  404547:	48 8b 74 24 40       	mov    0x40(%rsp),%rsi
  40454c:	4c 03 64 24 48       	add    0x48(%rsp),%r12
  404551:	48 01 74 24 08       	add    %rsi,0x8(%rsp)
  404556:	4c 03 6c 24 50       	add    0x50(%rsp),%r13
  40455b:	4c 03 74 24 58       	add    0x58(%rsp),%r14
  404560:	8b 44 24 2c          	mov    0x2c(%rsp),%eax
  404564:	39 44 24 14          	cmp    %eax,0x14(%rsp)
  404568:	74 0e                	je     404578 <evolve_.omp_fn.6+0x428>
  40456a:	83 44 24 14 01       	addl   $0x1,0x14(%rsp)
  40456f:	e9 fc fd ff ff       	jmpq   404370 <evolve_.omp_fn.6+0x220>
  404574:	0f 1f 40 00          	nopl   0x0(%rax)
  404578:	83 44 24 64 01       	addl   $0x1,0x64(%rsp)
  40457d:	48 8b 84 24 a8 00 00 	mov    0xa8(%rsp),%rax
  404584:	00 
  404585:	48 8b 94 24 a0 00 00 	mov    0xa0(%rsp),%rdx
  40458c:	00 
  40458d:	48 01 84 24 88 00 00 	add    %rax,0x88(%rsp)
  404594:	00 
  404595:	48 01 94 24 80 00 00 	add    %rdx,0x80(%rsp)
  40459c:	00 
  40459d:	48 8b b4 24 b0 00 00 	mov    0xb0(%rsp),%rsi
  4045a4:	00 
  4045a5:	48 8b 84 24 c8 00 00 	mov    0xc8(%rsp),%rax
  4045ac:	00 
  4045ad:	48 01 74 24 78       	add    %rsi,0x78(%rsp)
  4045b2:	48 01 44 24 70       	add    %rax,0x70(%rsp)
  4045b7:	48 8b 94 24 c0 00 00 	mov    0xc0(%rsp),%rdx
  4045be:	00 
  4045bf:	48 8b b4 24 b8 00 00 	mov    0xb8(%rsp),%rsi
  4045c6:	00 
  4045c7:	48 01 54 24 68       	add    %rdx,0x68(%rsp)
  4045cc:	48 01 b4 24 90 00 00 	add    %rsi,0x90(%rsp)
  4045d3:	00 
  4045d4:	8b 44 24 64          	mov    0x64(%rsp),%eax
  4045d8:	39 84 24 9c 00 00 00 	cmp    %eax,0x9c(%rsp)
  4045df:	0f 8d 2b fd ff ff    	jge    404310 <evolve_.omp_fn.6+0x1c0>
  4045e5:	48 81 c4 d8 00 00 00 	add    $0xd8,%rsp
  4045ec:	5b                   	pop    %rbx
  4045ed:	5d                   	pop    %rbp
  4045ee:	41 5c                	pop    %r12
  4045f0:	41 5d                	pop    %r13
  4045f2:	41 5e                	pop    %r14
  4045f4:	41 5f                	pop    %r15
  4045f6:	c3                   	retq   
  4045f7:	66 0f 1f 84 00 00 00 	nopw   0x0(%rax,%rax,1)
  4045fe:	00 00 
  404600:	48 39 ce             	cmp    %rcx,%rsi
  404603:	0f 87 e4 fd ff ff    	ja     4043ed <evolve_.omp_fn.6+0x29d>
  404609:	0f 1f 80 00 00 00 00 	nopl   0x0(%rax)
  404610:	48 8b 04 24          	mov    (%rsp),%rax
  404614:	48 8b 54 24 20       	mov    0x20(%rsp),%rdx
  404619:	4b 8d 7c df 08       	lea    0x8(%r15,%r11,8),%rdi
  40461e:	48 8b 74 24 18       	mov    0x18(%rsp),%rsi
  404623:	48 c1 e0 04          	shl    $0x4,%rax
  404627:	48 8d 44 10 10       	lea    0x10(%rax,%rdx,1),%rax
  40462c:	48 8b 54 24 08       	mov    0x8(%rsp),%rdx
  404631:	48 c1 e2 04          	shl    $0x4,%rdx
  404635:	48 8d 4c 32 10       	lea    0x10(%rdx,%rsi,1),%rcx
  40463a:	48 89 c2             	mov    %rax,%rdx
  40463d:	31 f6                	xor    %esi,%esi
  40463f:	90                   	nop
  404640:	f2 0f 10 07          	movsd  (%rdi),%xmm0
  404644:	83 c6 01             	add    $0x1,%esi
  404647:	f2 0f 10 48 08       	movsd  0x8(%rax),%xmm1
  40464c:	48 83 c7 08          	add    $0x8,%rdi
  404650:	f2 0f 59 c8          	mulsd  %xmm0,%xmm1
  404654:	f2 0f 59 00          	mulsd  (%rax),%xmm0
  404658:	f2 0f 11 48 08       	movsd  %xmm1,0x8(%rax)
  40465d:	f2 0f 11 00          	movsd  %xmm0,(%rax)
  404661:	48 8b 6a 08          	mov    0x8(%rdx),%rbp
  404665:	4c 8b 02             	mov    (%rdx),%r8
  404668:	48 83 c0 10          	add    $0x10,%rax
  40466c:	48 83 c2 10          	add    $0x10,%rdx
  404670:	4c 89 01             	mov    %r8,(%rcx)
  404673:	48 89 69 08          	mov    %rbp,0x8(%rcx)
  404677:	48 83 c1 10          	add    $0x10,%rcx
  40467b:	41 39 f2             	cmp    %esi,%r10d
  40467e:	75 c0                	jne    404640 <evolve_.omp_fn.6+0x4f0>
  404680:	e9 b4 fe ff ff       	jmpq   404539 <evolve_.omp_fn.6+0x3e9>
  404685:	0f 1f 00             	nopl   (%rax)
  404688:	48 39 c6             	cmp    %rax,%rsi
  40468b:	0f 87 53 fd ff ff    	ja     4043e4 <evolve_.omp_fn.6+0x294>
  404691:	0f 1f 80 00 00 00 00 	nopl   0x0(%rax)
  404698:	e9 73 ff ff ff       	jmpq   404610 <evolve_.omp_fn.6+0x4c0>
  40469d:	ba 01 00 00 00       	mov    $0x1,%edx
  4046a2:	66 0f 1f 44 00 00    	nopw   0x0(%rax,%rax,1)
  4046a8:	e9 0a fe ff ff       	jmpq   4044b7 <evolve_.omp_fn.6+0x367>
  4046ad:	0f 1f 00             	nopl   (%rax)

00000000004046b0 <init_ui_.omp_fn.7>:
  4046b0:	41 57                	push   %r15
  4046b2:	41 56                	push   %r14
  4046b4:	41 55                	push   %r13
  4046b6:	41 54                	push   %r12
  4046b8:	55                   	push   %rbp
  4046b9:	53                   	push   %rbx
  4046ba:	48 89 fb             	mov    %rdi,%rbx
  4046bd:	48 83 ec 58          	sub    $0x58,%rsp
  4046c1:	48 8b 47 68          	mov    0x68(%rdi),%rax
  4046c5:	48 8b 57 60          	mov    0x60(%rdi),%rdx
  4046c9:	48 8b 4f 48          	mov    0x48(%rdi),%rcx
  4046cd:	44 8b 7f 70          	mov    0x70(%rdi),%r15d
  4046d1:	4c 8b 67 58          	mov    0x58(%rdi),%r12
  4046d5:	4c 8b 77 50          	mov    0x50(%rdi),%r14
  4046d9:	48 89 44 24 20       	mov    %rax,0x20(%rsp)
  4046de:	48 89 54 24 48       	mov    %rdx,0x48(%rsp)
  4046e3:	48 8b 47 38          	mov    0x38(%rdi),%rax
  4046e7:	48 8b 57 30          	mov    0x30(%rdi),%rdx
  4046eb:	48 89 4c 24 40       	mov    %rcx,0x40(%rsp)
  4046f0:	4c 8b 6f 40          	mov    0x40(%rdi),%r13
  4046f4:	48 8b 6f 28          	mov    0x28(%rdi),%rbp
  4046f8:	48 89 54 24 38       	mov    %rdx,0x38(%rsp)
  4046fd:	48 89 44 24 18       	mov    %rax,0x18(%rsp)
  404702:	e8 19 c6 ff ff       	callq  400d20 <omp_get_num_threads@plt>
  404707:	89 44 24 08          	mov    %eax,0x8(%rsp)
  40470b:	e8 70 c6 ff ff       	callq  400d80 <omp_get_thread_num@plt>
  404710:	8b 4c 24 08          	mov    0x8(%rsp),%ecx
  404714:	44 89 fa             	mov    %r15d,%edx
  404717:	89 c6                	mov    %eax,%esi
  404719:	c1 fa 1f             	sar    $0x1f,%edx
  40471c:	44 89 f8             	mov    %r15d,%eax
  40471f:	f7 f9                	idiv   %ecx
  404721:	31 d2                	xor    %edx,%edx
  404723:	0f af c8             	imul   %eax,%ecx
  404726:	41 39 cf             	cmp    %ecx,%r15d
  404729:	0f 95 c2             	setne  %dl
  40472c:	8d 04 02             	lea    (%rdx,%rax,1),%eax
  40472f:	0f af f0             	imul   %eax,%esi
  404732:	8d 04 06             	lea    (%rsi,%rax,1),%eax
  404735:	44 39 f8             	cmp    %r15d,%eax
  404738:	44 0f 4e f8          	cmovle %eax,%r15d
  40473c:	44 39 fe             	cmp    %r15d,%esi
  40473f:	44 89 7c 24 34       	mov    %r15d,0x34(%rsp)
  404744:	0f 8d 27 01 00 00    	jge    404871 <init_ui_.omp_fn.7+0x1c1>
  40474a:	48 8b 43 20          	mov    0x20(%rbx),%rax
  40474e:	48 8b 54 24 40       	mov    0x40(%rsp),%rdx
  404753:	83 c6 01             	add    $0x1,%esi
  404756:	4b 8d 4c 35 01       	lea    0x1(%r13,%r14,1),%rcx
  40475b:	89 74 24 14          	mov    %esi,0x14(%rsp)
  40475f:	44 8b 38             	mov    (%rax),%r15d
  404762:	48 63 c6             	movslq %esi,%rax
  404765:	48 0f af d0          	imul   %rax,%rdx
  404769:	48 8d 14 11          	lea    (%rcx,%rdx,1),%rdx
  40476d:	48 89 54 24 28       	mov    %rdx,0x28(%rsp)
  404772:	48 8b 54 24 20       	mov    0x20(%rsp),%rdx
  404777:	49 8d 4c 14 01       	lea    0x1(%r12,%rdx,1),%rcx
  40477c:	48 8b 54 24 48       	mov    0x48(%rsp),%rdx
  404781:	48 0f af d0          	imul   %rax,%rdx
  404785:	48 0f af 44 24 38    	imul   0x38(%rsp),%rax
  40478b:	48 8d 14 11          	lea    (%rcx,%rdx,1),%rdx
  40478f:	48 8b 4c 24 18       	mov    0x18(%rsp),%rcx
  404794:	48 89 54 24 20       	mov    %rdx,0x20(%rsp)
  404799:	48 8d 54 0d 01       	lea    0x1(%rbp,%rcx,1),%rdx
  40479e:	48 8d 04 02          	lea    (%rdx,%rax,1),%rax
  4047a2:	48 89 44 24 18       	mov    %rax,0x18(%rsp)
  4047a7:	31 c0                	xor    %eax,%eax
  4047a9:	0f 1f 80 00 00 00 00 	nopl   0x0(%rax)
  4047b0:	45 85 ff             	test   %r15d,%r15d
  4047b3:	0f 8e 87 00 00 00    	jle    404840 <init_ui_.omp_fn.7+0x190>
  4047b9:	48 8b 53 18          	mov    0x18(%rbx),%rdx
  4047bd:	4c 8b 5c 24 18       	mov    0x18(%rsp),%r11
  4047c2:	41 be 01 00 00 00    	mov    $0x1,%r14d
  4047c8:	4c 8b 54 24 20       	mov    0x20(%rsp),%r10
  4047cd:	4c 8b 4c 24 28       	mov    0x28(%rsp),%r9
  4047d2:	44 8b 02             	mov    (%rdx),%r8d
  4047d5:	0f 1f 00             	nopl   (%rax)
  4047d8:	45 85 c0             	test   %r8d,%r8d
  4047db:	7e 48                	jle    404825 <init_ui_.omp_fn.7+0x175>
  4047dd:	4c 89 c9             	mov    %r9,%rcx
  4047e0:	4c 89 d2             	mov    %r10,%rdx
  4047e3:	4a 8d 34 dd 00 00 00 	lea    0x0(,%r11,8),%rsi
  4047ea:	00 
  4047eb:	48 c1 e1 04          	shl    $0x4,%rcx
  4047ef:	48 c1 e2 04          	shl    $0x4,%rdx
  4047f3:	48 03 0b             	add    (%rbx),%rcx
  4047f6:	48 03 53 08          	add    0x8(%rbx),%rdx
  4047fa:	48 03 73 10          	add    0x10(%rbx),%rsi
  4047fe:	31 ff                	xor    %edi,%edi
  404800:	83 c7 01             	add    $0x1,%edi
  404803:	48 89 01             	mov    %rax,(%rcx)
  404806:	48 89 41 08          	mov    %rax,0x8(%rcx)
  40480a:	48 89 02             	mov    %rax,(%rdx)
  40480d:	48 89 42 08          	mov    %rax,0x8(%rdx)
  404811:	48 83 c1 10          	add    $0x10,%rcx
  404815:	48 89 06             	mov    %rax,(%rsi)
  404818:	48 83 c2 10          	add    $0x10,%rdx
  40481c:	48 83 c6 08          	add    $0x8,%rsi
  404820:	44 39 c7             	cmp    %r8d,%edi
  404823:	75 db                	jne    404800 <init_ui_.omp_fn.7+0x150>
  404825:	4d 01 e9             	add    %r13,%r9
  404828:	4d 01 e2             	add    %r12,%r10
  40482b:	49 01 eb             	add    %rbp,%r11
  40482e:	45 39 fe             	cmp    %r15d,%r14d
  404831:	74 0d                	je     404840 <init_ui_.omp_fn.7+0x190>
  404833:	41 83 c6 01          	add    $0x1,%r14d
  404837:	eb 9f                	jmp    4047d8 <init_ui_.omp_fn.7+0x128>
  404839:	0f 1f 80 00 00 00 00 	nopl   0x0(%rax)
  404840:	83 44 24 14 01       	addl   $0x1,0x14(%rsp)
  404845:	48 8b 54 24 40       	mov    0x40(%rsp),%rdx
  40484a:	48 8b 4c 24 48       	mov    0x48(%rsp),%rcx
  40484f:	48 01 54 24 28       	add    %rdx,0x28(%rsp)
  404854:	48 01 4c 24 20       	add    %rcx,0x20(%rsp)
  404859:	48 8b 54 24 38       	mov    0x38(%rsp),%rdx
  40485e:	8b 4c 24 14          	mov    0x14(%rsp),%ecx
  404862:	48 01 54 24 18       	add    %rdx,0x18(%rsp)
  404867:	39 4c 24 34          	cmp    %ecx,0x34(%rsp)
  40486b:	0f 8d 3f ff ff ff    	jge    4047b0 <init_ui_.omp_fn.7+0x100>
  404871:	48 83 c4 58          	add    $0x58,%rsp
  404875:	5b                   	pop    %rbx
  404876:	5d                   	pop    %rbp
  404877:	41 5c                	pop    %r12
  404879:	41 5d                	pop    %r13
  40487b:	41 5e                	pop    %r14
  40487d:	41 5f                	pop    %r15
  40487f:	c3                   	retq   

0000000000404880 <init_ui_>:
  404880:	53                   	push   %rbx
  404881:	31 db                	xor    %ebx,%ebx
  404883:	48 83 c4 80          	add    $0xffffffffffffff80,%rsp
  404887:	8b 01                	mov    (%rcx),%eax
  404889:	4d 63 10             	movslq (%r8),%r10
  40488c:	45 8b 09             	mov    (%r9),%r9d
  40488f:	48 89 3c 24          	mov    %rdi,(%rsp)
  404893:	bf b0 46 40 00       	mov    $0x4046b0,%edi
  404898:	48 89 74 24 08       	mov    %rsi,0x8(%rsp)
  40489d:	48 89 54 24 10       	mov    %rdx,0x10(%rsp)
  4048a2:	48 89 e6             	mov    %rsp,%rsi
  4048a5:	83 c0 01             	add    $0x1,%eax
  4048a8:	48 89 4c 24 18       	mov    %rcx,0x18(%rsp)
  4048ad:	4c 89 44 24 20       	mov    %r8,0x20(%rsp)
  4048b2:	48 98                	cltq   
  4048b4:	44 89 4c 24 70       	mov    %r9d,0x70(%rsp)
  4048b9:	48 85 c0             	test   %rax,%rax
  4048bc:	48 0f 48 c3          	cmovs  %rbx,%rax
  4048c0:	4c 0f af d0          	imul   %rax,%r10
  4048c4:	48 89 44 24 58       	mov    %rax,0x58(%rsp)
  4048c9:	48 89 44 24 40       	mov    %rax,0x40(%rsp)
  4048ce:	48 89 44 24 28       	mov    %rax,0x28(%rsp)
  4048d3:	4d 85 d2             	test   %r10,%r10
  4048d6:	4c 0f 48 d3          	cmovs  %rbx,%r10
  4048da:	48 89 c3             	mov    %rax,%rbx
  4048dd:	31 d2                	xor    %edx,%edx
  4048df:	48 f7 d3             	not    %rbx
  4048e2:	4c 89 54 24 60       	mov    %r10,0x60(%rsp)
  4048e7:	4c 89 54 24 48       	mov    %r10,0x48(%rsp)
  4048ec:	4c 29 d3             	sub    %r10,%rbx
  4048ef:	4c 89 54 24 30       	mov    %r10,0x30(%rsp)
  4048f4:	48 89 5c 24 68       	mov    %rbx,0x68(%rsp)
  4048f9:	48 89 5c 24 50       	mov    %rbx,0x50(%rsp)
  4048fe:	48 89 5c 24 38       	mov    %rbx,0x38(%rsp)
  404903:	e8 98 c5 ff ff       	callq  400ea0 <GOMP_parallel_start@plt>
  404908:	48 89 e7             	mov    %rsp,%rdi
  40490b:	e8 a0 fd ff ff       	callq  4046b0 <init_ui_.omp_fn.7>
  404910:	e8 2b c5 ff ff       	callq  400e40 <GOMP_parallel_end@plt>
  404915:	48 83 ec 80          	sub    $0xffffffffffffff80,%rsp
  404919:	5b                   	pop    %rbx
  40491a:	c3                   	retq   
  40491b:	0f 1f 44 00 00       	nopl   0x0(%rax,%rax,1)

0000000000404920 <evolve_>:
  404920:	53                   	push   %rbx
  404921:	31 db                	xor    %ebx,%ebx
  404923:	48 83 c4 80          	add    $0xffffffffffffff80,%rsp
  404927:	8b 01                	mov    (%rcx),%eax
  404929:	4d 63 10             	movslq (%r8),%r10
  40492c:	45 8b 09             	mov    (%r9),%r9d
  40492f:	48 89 3c 24          	mov    %rdi,(%rsp)
  404933:	bf 50 41 40 00       	mov    $0x404150,%edi
  404938:	48 89 74 24 08       	mov    %rsi,0x8(%rsp)
  40493d:	48 89 54 24 10       	mov    %rdx,0x10(%rsp)
  404942:	48 89 e6             	mov    %rsp,%rsi
  404945:	83 c0 01             	add    $0x1,%eax
  404948:	48 89 4c 24 18       	mov    %rcx,0x18(%rsp)
  40494d:	4c 89 44 24 20       	mov    %r8,0x20(%rsp)
  404952:	48 98                	cltq   
  404954:	44 89 4c 24 70       	mov    %r9d,0x70(%rsp)
  404959:	48 85 c0             	test   %rax,%rax
  40495c:	48 0f 48 c3          	cmovs  %rbx,%rax
  404960:	4c 0f af d0          	imul   %rax,%r10
  404964:	48 89 44 24 58       	mov    %rax,0x58(%rsp)
  404969:	48 89 44 24 40       	mov    %rax,0x40(%rsp)
  40496e:	48 89 44 24 28       	mov    %rax,0x28(%rsp)
  404973:	4d 85 d2             	test   %r10,%r10
  404976:	4c 0f 48 d3          	cmovs  %rbx,%r10
  40497a:	48 89 c3             	mov    %rax,%rbx
  40497d:	31 d2                	xor    %edx,%edx
  40497f:	48 f7 d3             	not    %rbx
  404982:	4c 89 54 24 60       	mov    %r10,0x60(%rsp)
  404987:	4c 89 54 24 48       	mov    %r10,0x48(%rsp)
  40498c:	4c 29 d3             	sub    %r10,%rbx
  40498f:	4c 89 54 24 30       	mov    %r10,0x30(%rsp)
  404994:	48 89 5c 24 68       	mov    %rbx,0x68(%rsp)
  404999:	48 89 5c 24 50       	mov    %rbx,0x50(%rsp)
  40499e:	48 89 5c 24 38       	mov    %rbx,0x38(%rsp)
  4049a3:	e8 f8 c4 ff ff       	callq  400ea0 <GOMP_parallel_start@plt>
  4049a8:	48 89 e7             	mov    %rsp,%rdi
  4049ab:	e8 a0 f7 ff ff       	callq  404150 <evolve_.omp_fn.6>
  4049b0:	e8 8b c4 ff ff       	callq  400e40 <GOMP_parallel_end@plt>
  4049b5:	48 83 ec 80          	sub    $0xffffffffffffff80,%rsp
  4049b9:	5b                   	pop    %rbx
  4049ba:	c3                   	retq   
  4049bb:	0f 1f 44 00 00       	nopl   0x0(%rax,%rax,1)

00000000004049c0 <cffts3_>:
  4049c0:	48 89 5c 24 d0       	mov    %rbx,-0x30(%rsp)
  4049c5:	48 89 6c 24 d8       	mov    %rbp,-0x28(%rsp)
  4049ca:	31 c0                	xor    %eax,%eax
  4049cc:	4c 89 64 24 e0       	mov    %r12,-0x20(%rsp)
  4049d1:	4c 89 6c 24 e8       	mov    %r13,-0x18(%rsp)
  4049d6:	49 89 cd             	mov    %rcx,%r13
  4049d9:	4c 89 74 24 f0       	mov    %r14,-0x10(%rsp)
  4049de:	4c 89 7c 24 f8       	mov    %r15,-0x8(%rsp)
  4049e3:	4d 89 c6             	mov    %r8,%r14
  4049e6:	48 81 ec f8 00 00 00 	sub    $0xf8,%rsp
  4049ed:	4c 63 05 00 2e 20 00 	movslq 0x202e00(%rip),%r8        # 6077f4 <blockinfo_+0x4>
  4049f4:	48 63 09             	movslq (%rcx),%rcx
  4049f7:	44 8b 3e             	mov    (%rsi),%r15d
  4049fa:	48 89 f5             	mov    %rsi,%rbp
  4049fd:	48 63 32             	movslq (%rdx),%rsi
  404a00:	49 89 d4             	mov    %rdx,%r12
  404a03:	48 89 fb             	mov    %rdi,%rbx
  404a06:	4c 89 ef             	mov    %r13,%rdi
  404a09:	4c 89 4c 24 08       	mov    %r9,0x8(%rsp)
  404a0e:	4d 85 c0             	test   %r8,%r8
  404a11:	4c 0f 48 c0          	cmovs  %rax,%r8
  404a15:	49 0f af c8          	imul   %r8,%rcx
  404a19:	4c 89 44 24 20       	mov    %r8,0x20(%rsp)
  404a1e:	48 85 c9             	test   %rcx,%rcx
  404a21:	48 0f 48 c8          	cmovs  %rax,%rcx
  404a25:	41 83 c7 01          	add    $0x1,%r15d
  404a29:	4d 63 ff             	movslq %r15d,%r15
  404a2c:	48 c1 e1 04          	shl    $0x4,%rcx
  404a30:	4d 85 ff             	test   %r15,%r15
  404a33:	48 89 4c 24 18       	mov    %rcx,0x18(%rsp)
  404a38:	4c 0f 48 f8          	cmovs  %rax,%r15
  404a3c:	49 0f af f7          	imul   %r15,%rsi
  404a40:	4c 89 fa             	mov    %r15,%rdx
  404a43:	48 f7 d2             	not    %rdx
  404a46:	48 85 f6             	test   %rsi,%rsi
  404a49:	48 0f 48 f0          	cmovs  %rax,%rsi
  404a4d:	48 29 f2             	sub    %rsi,%rdx
  404a50:	48 89 74 24 28       	mov    %rsi,0x28(%rsp)
  404a55:	48 89 54 24 10       	mov    %rdx,0x10(%rsp)
  404a5a:	e8 71 c5 ff ff       	callq  400fd0 <ilog2_>
  404a5f:	8b 35 13 ae c2 00    	mov    0xc2ae13(%rip),%esi        # 102f878 <dbg_+0x8>
  404a65:	89 84 24 bc 00 00 00 	mov    %eax,0xbc(%rsp)
  404a6c:	48 8b 54 24 10       	mov    0x10(%rsp),%rdx
  404a71:	48 8b 4c 24 18       	mov    0x18(%rsp),%rcx
  404a76:	4c 8b 44 24 20       	mov    0x20(%rsp),%r8
  404a7b:	4c 8b 4c 24 08       	mov    0x8(%rsp),%r9
  404a80:	85 f6                	test   %esi,%esi
  404a82:	48 8b 74 24 28       	mov    0x28(%rsp),%rsi
  404a87:	0f 85 f3 00 00 00    	jne    404b80 <cffts3_+0x1c0>
  404a8d:	41 8b 04 24          	mov    (%r12),%eax
  404a91:	48 89 94 24 80 00 00 	mov    %rdx,0x80(%rsp)
  404a98:	00 
  404a99:	bf 60 3e 40 00       	mov    $0x403e60,%edi
  404a9e:	48 89 54 24 68       	mov    %rdx,0x68(%rsp)
  404aa3:	48 89 9c 24 a8 00 00 	mov    %rbx,0xa8(%rsp)
  404aaa:	00 
  404aab:	48 8d 94 24 bc 00 00 	lea    0xbc(%rsp),%rdx
  404ab2:	00 
  404ab3:	48 8d 5c 24 30       	lea    0x30(%rsp),%rbx
  404ab8:	48 89 8c 24 a0 00 00 	mov    %rcx,0xa0(%rsp)
  404abf:	00 
  404ac0:	48 89 8c 24 98 00 00 	mov    %rcx,0x98(%rsp)
  404ac7:	00 
  404ac8:	4c 89 c1             	mov    %r8,%rcx
  404acb:	48 89 74 24 78       	mov    %rsi,0x78(%rsp)
  404ad0:	48 89 74 24 60       	mov    %rsi,0x60(%rsp)
  404ad5:	48 f7 d1             	not    %rcx
  404ad8:	48 89 de             	mov    %rbx,%rsi
  404adb:	48 89 54 24 50       	mov    %rdx,0x50(%rsp)
  404ae0:	31 d2                	xor    %edx,%edx
  404ae2:	48 89 8c 24 90 00 00 	mov    %rcx,0x90(%rsp)
  404ae9:	00 
  404aea:	4c 89 84 24 88 00 00 	mov    %r8,0x88(%rsp)
  404af1:	00 
  404af2:	4c 89 4c 24 48       	mov    %r9,0x48(%rsp)
  404af7:	89 84 24 b0 00 00 00 	mov    %eax,0xb0(%rsp)
  404afe:	4c 89 7c 24 70       	mov    %r15,0x70(%rsp)
  404b03:	4c 89 7c 24 58       	mov    %r15,0x58(%rsp)
  404b08:	48 89 6c 24 30       	mov    %rbp,0x30(%rsp)
  404b0d:	4c 89 6c 24 38       	mov    %r13,0x38(%rsp)
  404b12:	4c 89 74 24 40       	mov    %r14,0x40(%rsp)
  404b17:	e8 84 c3 ff ff       	callq  400ea0 <GOMP_parallel_start@plt>
  404b1c:	48 89 df             	mov    %rbx,%rdi
  404b1f:	e8 3c f3 ff ff       	callq  403e60 <cffts3_.omp_fn.1>
  404b24:	e8 17 c3 ff ff       	callq  400e40 <GOMP_parallel_end@plt>
  404b29:	8b 0d 49 ad c2 00    	mov    0xc2ad49(%rip),%ecx        # 102f878 <dbg_+0x8>
  404b2f:	85 c9                	test   %ecx,%ecx
  404b31:	74 0c                	je     404b3f <cffts3_+0x17f>
  404b33:	bf ac 66 40 00       	mov    $0x4066ac,%edi
  404b38:	31 c0                	xor    %eax,%eax
  404b3a:	e8 f1 16 00 00       	callq  406230 <timer_stop_>
  404b3f:	48 8b 9c 24 c8 00 00 	mov    0xc8(%rsp),%rbx
  404b46:	00 
  404b47:	48 8b ac 24 d0 00 00 	mov    0xd0(%rsp),%rbp
  404b4e:	00 
  404b4f:	4c 8b a4 24 d8 00 00 	mov    0xd8(%rsp),%r12
  404b56:	00 
  404b57:	4c 8b ac 24 e0 00 00 	mov    0xe0(%rsp),%r13
  404b5e:	00 
  404b5f:	4c 8b b4 24 e8 00 00 	mov    0xe8(%rsp),%r14
  404b66:	00 
  404b67:	4c 8b bc 24 f0 00 00 	mov    0xf0(%rsp),%r15
  404b6e:	00 
  404b6f:	48 81 c4 f8 00 00 00 	add    $0xf8,%rsp
  404b76:	c3                   	retq   
  404b77:	66 0f 1f 84 00 00 00 	nopw   0x0(%rax,%rax,1)
  404b7e:	00 00 
  404b80:	bf ac 66 40 00       	mov    $0x4066ac,%edi
  404b85:	31 c0                	xor    %eax,%eax
  404b87:	e8 e4 16 00 00       	callq  406270 <timer_start_>
  404b8c:	4c 8b 4c 24 08       	mov    0x8(%rsp),%r9
  404b91:	4c 8b 44 24 20       	mov    0x20(%rsp),%r8
  404b96:	48 8b 74 24 28       	mov    0x28(%rsp),%rsi
  404b9b:	48 8b 4c 24 18       	mov    0x18(%rsp),%rcx
  404ba0:	48 8b 54 24 10       	mov    0x10(%rsp),%rdx
  404ba5:	e9 e3 fe ff ff       	jmpq   404a8d <cffts3_+0xcd>
  404baa:	66 0f 1f 44 00 00    	nopw   0x0(%rax,%rax,1)

0000000000404bb0 <cffts2_>:
  404bb0:	48 89 5c 24 d0       	mov    %rbx,-0x30(%rsp)
  404bb5:	48 89 6c 24 d8       	mov    %rbp,-0x28(%rsp)
  404bba:	48 89 f5             	mov    %rsi,%rbp
  404bbd:	4c 89 64 24 e0       	mov    %r12,-0x20(%rsp)
  404bc2:	4c 89 6c 24 e8       	mov    %r13,-0x18(%rsp)
  404bc7:	31 c0                	xor    %eax,%eax
  404bc9:	4c 89 74 24 f0       	mov    %r14,-0x10(%rsp)
  404bce:	4c 89 7c 24 f8       	mov    %r15,-0x8(%rsp)
  404bd3:	4d 89 c6             	mov    %r8,%r14
  404bd6:	48 81 ec f8 00 00 00 	sub    $0xf8,%rsp
  404bdd:	4c 63 05 10 2c 20 00 	movslq 0x202c10(%rip),%r8        # 6077f4 <blockinfo_+0x4>
  404be4:	48 63 32             	movslq (%rdx),%rsi
  404be7:	49 89 cd             	mov    %rcx,%r13
  404bea:	44 8b 7d 00          	mov    0x0(%rbp),%r15d
  404bee:	49 89 d4             	mov    %rdx,%r12
  404bf1:	48 89 fb             	mov    %rdi,%rbx
  404bf4:	4c 89 e7             	mov    %r12,%rdi
  404bf7:	4c 89 4c 24 08       	mov    %r9,0x8(%rsp)
  404bfc:	4d 85 c0             	test   %r8,%r8
  404bff:	48 89 f1             	mov    %rsi,%rcx
  404c02:	4c 0f 48 c0          	cmovs  %rax,%r8
  404c06:	49 0f af c8          	imul   %r8,%rcx
  404c0a:	4c 89 44 24 20       	mov    %r8,0x20(%rsp)
  404c0f:	48 85 c9             	test   %rcx,%rcx
  404c12:	48 0f 48 c8          	cmovs  %rax,%rcx
  404c16:	41 83 c7 01          	add    $0x1,%r15d
  404c1a:	4d 63 ff             	movslq %r15d,%r15
  404c1d:	48 c1 e1 04          	shl    $0x4,%rcx
  404c21:	4d 85 ff             	test   %r15,%r15
  404c24:	48 89 4c 24 18       	mov    %rcx,0x18(%rsp)
  404c29:	4c 0f 48 f8          	cmovs  %rax,%r15
  404c2d:	49 0f af f7          	imul   %r15,%rsi
  404c31:	4c 89 fa             	mov    %r15,%rdx
  404c34:	48 f7 d2             	not    %rdx
  404c37:	48 85 f6             	test   %rsi,%rsi
  404c3a:	48 0f 48 f0          	cmovs  %rax,%rsi
  404c3e:	48 29 f2             	sub    %rsi,%rdx
  404c41:	48 89 74 24 28       	mov    %rsi,0x28(%rsp)
  404c46:	48 89 54 24 10       	mov    %rdx,0x10(%rsp)
  404c4b:	e8 80 c3 ff ff       	callq  400fd0 <ilog2_>
  404c50:	44 8b 05 21 ac c2 00 	mov    0xc2ac21(%rip),%r8d        # 102f878 <dbg_+0x8>
  404c57:	89 84 24 bc 00 00 00 	mov    %eax,0xbc(%rsp)
  404c5e:	48 8b 54 24 10       	mov    0x10(%rsp),%rdx
  404c63:	48 8b 4c 24 18       	mov    0x18(%rsp),%rcx
  404c68:	48 8b 74 24 28       	mov    0x28(%rsp),%rsi
  404c6d:	4c 8b 4c 24 08       	mov    0x8(%rsp),%r9
  404c72:	45 85 c0             	test   %r8d,%r8d
  404c75:	4c 8b 44 24 20       	mov    0x20(%rsp),%r8
  404c7a:	0f 85 f0 00 00 00    	jne    404d70 <cffts2_+0x1c0>
  404c80:	41 8b 45 00          	mov    0x0(%r13),%eax
  404c84:	48 89 54 24 70       	mov    %rdx,0x70(%rsp)
  404c89:	bf 70 3b 40 00       	mov    $0x403b70,%edi
  404c8e:	48 89 54 24 58       	mov    %rdx,0x58(%rsp)
  404c93:	48 89 9c 24 98 00 00 	mov    %rbx,0x98(%rsp)
  404c9a:	00 
  404c9b:	48 8d 94 24 bc 00 00 	lea    0xbc(%rsp),%rdx
  404ca2:	00 
  404ca3:	48 8d 5c 24 30       	lea    0x30(%rsp),%rbx
  404ca8:	48 89 8c 24 90 00 00 	mov    %rcx,0x90(%rsp)
  404caf:	00 
  404cb0:	48 89 8c 24 88 00 00 	mov    %rcx,0x88(%rsp)
  404cb7:	00 
  404cb8:	4c 89 c1             	mov    %r8,%rcx
  404cbb:	48 89 74 24 68       	mov    %rsi,0x68(%rsp)
  404cc0:	48 89 74 24 50       	mov    %rsi,0x50(%rsp)
  404cc5:	48 f7 d1             	not    %rcx
  404cc8:	48 89 de             	mov    %rbx,%rsi
  404ccb:	48 89 94 24 a0 00 00 	mov    %rdx,0xa0(%rsp)
  404cd2:	00 
  404cd3:	31 d2                	xor    %edx,%edx
  404cd5:	48 89 8c 24 80 00 00 	mov    %rcx,0x80(%rsp)
  404cdc:	00 
  404cdd:	4c 89 44 24 78       	mov    %r8,0x78(%rsp)
  404ce2:	4c 89 4c 24 40       	mov    %r9,0x40(%rsp)
  404ce7:	89 84 24 b0 00 00 00 	mov    %eax,0xb0(%rsp)
  404cee:	4c 89 7c 24 60       	mov    %r15,0x60(%rsp)
  404cf3:	4c 89 7c 24 48       	mov    %r15,0x48(%rsp)
  404cf8:	48 89 6c 24 30       	mov    %rbp,0x30(%rsp)
  404cfd:	4c 89 74 24 38       	mov    %r14,0x38(%rsp)
  404d02:	4c 89 a4 24 a8 00 00 	mov    %r12,0xa8(%rsp)
  404d09:	00 
  404d0a:	e8 91 c1 ff ff       	callq  400ea0 <GOMP_parallel_start@plt>
  404d0f:	48 89 df             	mov    %rbx,%rdi
  404d12:	e8 59 ee ff ff       	callq  403b70 <cffts2_.omp_fn.2>
  404d17:	e8 24 c1 ff ff       	callq  400e40 <GOMP_parallel_end@plt>
  404d1c:	8b 3d 56 ab c2 00    	mov    0xc2ab56(%rip),%edi        # 102f878 <dbg_+0x8>
  404d22:	85 ff                	test   %edi,%edi
  404d24:	74 0c                	je     404d32 <cffts2_+0x182>
  404d26:	bf b0 66 40 00       	mov    $0x4066b0,%edi
  404d2b:	31 c0                	xor    %eax,%eax
  404d2d:	e8 fe 14 00 00       	callq  406230 <timer_stop_>
  404d32:	48 8b 9c 24 c8 00 00 	mov    0xc8(%rsp),%rbx
  404d39:	00 
  404d3a:	48 8b ac 24 d0 00 00 	mov    0xd0(%rsp),%rbp
  404d41:	00 
  404d42:	4c 8b a4 24 d8 00 00 	mov    0xd8(%rsp),%r12
  404d49:	00 
  404d4a:	4c 8b ac 24 e0 00 00 	mov    0xe0(%rsp),%r13
  404d51:	00 
  404d52:	4c 8b b4 24 e8 00 00 	mov    0xe8(%rsp),%r14
  404d59:	00 
  404d5a:	4c 8b bc 24 f0 00 00 	mov    0xf0(%rsp),%r15
  404d61:	00 
  404d62:	48 81 c4 f8 00 00 00 	add    $0xf8,%rsp
  404d69:	c3                   	retq   
  404d6a:	66 0f 1f 44 00 00    	nopw   0x0(%rax,%rax,1)
  404d70:	bf b0 66 40 00       	mov    $0x4066b0,%edi
  404d75:	31 c0                	xor    %eax,%eax
  404d77:	e8 f4 14 00 00       	callq  406270 <timer_start_>
  404d7c:	4c 8b 4c 24 08       	mov    0x8(%rsp),%r9
  404d81:	4c 8b 44 24 20       	mov    0x20(%rsp),%r8
  404d86:	48 8b 74 24 28       	mov    0x28(%rsp),%rsi
  404d8b:	48 8b 4c 24 18       	mov    0x18(%rsp),%rcx
  404d90:	48 8b 54 24 10       	mov    0x10(%rsp),%rdx
  404d95:	e9 e6 fe ff ff       	jmpq   404c80 <cffts2_+0xd0>
  404d9a:	66 0f 1f 44 00 00    	nopw   0x0(%rax,%rax,1)

0000000000404da0 <cffts1_>:
  404da0:	48 89 5c 24 d0       	mov    %rbx,-0x30(%rsp)
  404da5:	48 89 6c 24 d8       	mov    %rbp,-0x28(%rsp)
  404daa:	31 c0                	xor    %eax,%eax
  404dac:	4c 89 64 24 e0       	mov    %r12,-0x20(%rsp)
  404db1:	4c 89 6c 24 e8       	mov    %r13,-0x18(%rsp)
  404db6:	49 89 cd             	mov    %rcx,%r13
  404db9:	4c 89 74 24 f0       	mov    %r14,-0x10(%rsp)
  404dbe:	4c 89 7c 24 f8       	mov    %r15,-0x8(%rsp)
  404dc3:	4d 89 c6             	mov    %r8,%r14
  404dc6:	48 81 ec f8 00 00 00 	sub    $0xf8,%rsp
  404dcd:	4c 63 05 20 2a 20 00 	movslq 0x202a20(%rip),%r8        # 6077f4 <blockinfo_+0x4>
  404dd4:	44 8b 3e             	mov    (%rsi),%r15d
  404dd7:	48 89 f5             	mov    %rsi,%rbp
  404dda:	48 63 32             	movslq (%rdx),%rsi
  404ddd:	49 89 d4             	mov    %rdx,%r12
  404de0:	48 89 fb             	mov    %rdi,%rbx
  404de3:	48 89 ef             	mov    %rbp,%rdi
  404de6:	4c 89 4c 24 08       	mov    %r9,0x8(%rsp)
  404deb:	49 63 cf             	movslq %r15d,%rcx
  404dee:	4d 85 c0             	test   %r8,%r8
  404df1:	4c 0f 48 c0          	cmovs  %rax,%r8
  404df5:	49 0f af c8          	imul   %r8,%rcx
  404df9:	4c 89 44 24 20       	mov    %r8,0x20(%rsp)
  404dfe:	48 85 c9             	test   %rcx,%rcx
  404e01:	48 0f 48 c8          	cmovs  %rax,%rcx
  404e05:	41 83 c7 01          	add    $0x1,%r15d
  404e09:	4d 63 ff             	movslq %r15d,%r15
  404e0c:	48 c1 e1 04          	shl    $0x4,%rcx
  404e10:	4d 85 ff             	test   %r15,%r15
  404e13:	48 89 4c 24 18       	mov    %rcx,0x18(%rsp)
  404e18:	4c 0f 48 f8          	cmovs  %rax,%r15
  404e1c:	49 0f af f7          	imul   %r15,%rsi
  404e20:	4c 89 fa             	mov    %r15,%rdx
  404e23:	48 f7 d2             	not    %rdx
  404e26:	48 85 f6             	test   %rsi,%rsi
  404e29:	48 0f 48 f0          	cmovs  %rax,%rsi
  404e2d:	48 29 f2             	sub    %rsi,%rdx
  404e30:	48 89 74 24 28       	mov    %rsi,0x28(%rsp)
  404e35:	48 89 54 24 10       	mov    %rdx,0x10(%rsp)
  404e3a:	e8 91 c1 ff ff       	callq  400fd0 <ilog2_>
  404e3f:	44 8b 15 32 aa c2 00 	mov    0xc2aa32(%rip),%r10d        # 102f878 <dbg_+0x8>
  404e46:	89 84 24 bc 00 00 00 	mov    %eax,0xbc(%rsp)
  404e4d:	48 8b 54 24 10       	mov    0x10(%rsp),%rdx
  404e52:	48 8b 4c 24 18       	mov    0x18(%rsp),%rcx
  404e57:	48 8b 74 24 28       	mov    0x28(%rsp),%rsi
  404e5c:	4c 8b 44 24 20       	mov    0x20(%rsp),%r8
  404e61:	45 85 d2             	test   %r10d,%r10d
  404e64:	4c 8b 4c 24 08       	mov    0x8(%rsp),%r9
  404e69:	0f 85 f1 00 00 00    	jne    404f60 <cffts1_+0x1c0>
  404e6f:	41 8b 45 00          	mov    0x0(%r13),%eax
  404e73:	48 89 54 24 70       	mov    %rdx,0x70(%rsp)
  404e78:	bf 40 38 40 00       	mov    $0x403840,%edi
  404e7d:	48 89 54 24 58       	mov    %rdx,0x58(%rsp)
  404e82:	48 89 9c 24 98 00 00 	mov    %rbx,0x98(%rsp)
  404e89:	00 
  404e8a:	48 8d 94 24 bc 00 00 	lea    0xbc(%rsp),%rdx
  404e91:	00 
  404e92:	48 8d 5c 24 30       	lea    0x30(%rsp),%rbx
  404e97:	48 89 8c 24 90 00 00 	mov    %rcx,0x90(%rsp)
  404e9e:	00 
  404e9f:	48 89 8c 24 88 00 00 	mov    %rcx,0x88(%rsp)
  404ea6:	00 
  404ea7:	4c 89 c1             	mov    %r8,%rcx
  404eaa:	48 89 74 24 68       	mov    %rsi,0x68(%rsp)
  404eaf:	48 89 74 24 50       	mov    %rsi,0x50(%rsp)
  404eb4:	48 f7 d1             	not    %rcx
  404eb7:	48 89 de             	mov    %rbx,%rsi
  404eba:	48 89 94 24 a0 00 00 	mov    %rdx,0xa0(%rsp)
  404ec1:	00 
  404ec2:	31 d2                	xor    %edx,%edx
  404ec4:	4c 89 4c 24 40       	mov    %r9,0x40(%rsp)
  404ec9:	48 89 8c 24 80 00 00 	mov    %rcx,0x80(%rsp)
  404ed0:	00 
  404ed1:	4c 89 44 24 78       	mov    %r8,0x78(%rsp)
  404ed6:	89 84 24 b0 00 00 00 	mov    %eax,0xb0(%rsp)
  404edd:	4c 89 7c 24 60       	mov    %r15,0x60(%rsp)
  404ee2:	4c 89 7c 24 48       	mov    %r15,0x48(%rsp)
  404ee7:	4c 89 64 24 30       	mov    %r12,0x30(%rsp)
  404eec:	4c 89 74 24 38       	mov    %r14,0x38(%rsp)
  404ef1:	48 89 ac 24 a8 00 00 	mov    %rbp,0xa8(%rsp)
  404ef8:	00 
  404ef9:	e8 a2 bf ff ff       	callq  400ea0 <GOMP_parallel_start@plt>
  404efe:	48 89 df             	mov    %rbx,%rdi
  404f01:	e8 3a e9 ff ff       	callq  403840 <cffts1_.omp_fn.3>
  404f06:	e8 35 bf ff ff       	callq  400e40 <GOMP_parallel_end@plt>
  404f0b:	44 8b 0d 66 a9 c2 00 	mov    0xc2a966(%rip),%r9d        # 102f878 <dbg_+0x8>
  404f12:	45 85 c9             	test   %r9d,%r9d
  404f15:	74 0c                	je     404f23 <cffts1_+0x183>
  404f17:	bf b4 66 40 00       	mov    $0x4066b4,%edi
  404f1c:	31 c0                	xor    %eax,%eax
  404f1e:	e8 0d 13 00 00       	callq  406230 <timer_stop_>
  404f23:	48 8b 9c 24 c8 00 00 	mov    0xc8(%rsp),%rbx
  404f2a:	00 
  404f2b:	48 8b ac 24 d0 00 00 	mov    0xd0(%rsp),%rbp
  404f32:	00 
  404f33:	4c 8b a4 24 d8 00 00 	mov    0xd8(%rsp),%r12
  404f3a:	00 
  404f3b:	4c 8b ac 24 e0 00 00 	mov    0xe0(%rsp),%r13
  404f42:	00 
  404f43:	4c 8b b4 24 e8 00 00 	mov    0xe8(%rsp),%r14
  404f4a:	00 
  404f4b:	4c 8b bc 24 f0 00 00 	mov    0xf0(%rsp),%r15
  404f52:	00 
  404f53:	48 81 c4 f8 00 00 00 	add    $0xf8,%rsp
  404f5a:	c3                   	retq   
  404f5b:	0f 1f 44 00 00       	nopl   0x0(%rax,%rax,1)
  404f60:	bf b4 66 40 00       	mov    $0x4066b4,%edi
  404f65:	31 c0                	xor    %eax,%eax
  404f67:	e8 04 13 00 00       	callq  406270 <timer_start_>
  404f6c:	4c 8b 4c 24 08       	mov    0x8(%rsp),%r9
  404f71:	4c 8b 44 24 20       	mov    0x20(%rsp),%r8
  404f76:	48 8b 74 24 28       	mov    0x28(%rsp),%rsi
  404f7b:	48 8b 4c 24 18       	mov    0x18(%rsp),%rcx
  404f80:	48 8b 54 24 10       	mov    0x10(%rsp),%rdx
  404f85:	e9 e5 fe ff ff       	jmpq   404e6f <cffts1_+0xcf>
  404f8a:	66 0f 1f 44 00 00    	nopw   0x0(%rax,%rax,1)

0000000000404f90 <compute_indexmap_>:
  404f90:	53                   	push   %rbx
  404f91:	31 db                	xor    %ebx,%ebx
  404f93:	49 bb 9a 14 9e 19 b4 	mov    $0xbf04b2b4199e149a,%r11
  404f9a:	b2 04 bf 
  404f9d:	48 83 ec 30          	sub    $0x30,%rsp
  404fa1:	8b 06                	mov    (%rsi),%eax
  404fa3:	48 63 0a             	movslq (%rdx),%rcx
  404fa6:	48 89 e6             	mov    %rsp,%rsi
  404fa9:	48 89 3c 24          	mov    %rdi,(%rsp)
  404fad:	bf a0 36 40 00       	mov    $0x4036a0,%edi
  404fb2:	4c 89 5c 24 08       	mov    %r11,0x8(%rsp)
  404fb7:	83 c0 01             	add    $0x1,%eax
  404fba:	48 98                	cltq   
  404fbc:	48 85 c0             	test   %rax,%rax
  404fbf:	48 0f 48 c3          	cmovs  %rbx,%rax
  404fc3:	48 0f af c8          	imul   %rax,%rcx
  404fc7:	48 89 c2             	mov    %rax,%rdx
  404fca:	48 89 44 24 10       	mov    %rax,0x10(%rsp)
  404fcf:	48 f7 d2             	not    %rdx
  404fd2:	8b 05 90 27 20 00    	mov    0x202790(%rip),%eax        # 607768 <layout_+0x8>
  404fd8:	48 85 c9             	test   %rcx,%rcx
  404fdb:	89 44 24 28          	mov    %eax,0x28(%rsp)
  404fdf:	48 0f 48 cb          	cmovs  %rbx,%rcx
  404fe3:	48 29 ca             	sub    %rcx,%rdx
  404fe6:	48 89 4c 24 18       	mov    %rcx,0x18(%rsp)
  404feb:	48 89 54 24 20       	mov    %rdx,0x20(%rsp)
  404ff0:	31 d2                	xor    %edx,%edx
  404ff2:	e8 a9 be ff ff       	callq  400ea0 <GOMP_parallel_start@plt>
  404ff7:	48 89 e7             	mov    %rsp,%rdi
  404ffa:	e8 a1 e6 ff ff       	callq  4036a0 <compute_indexmap_.omp_fn.4>
  404fff:	e8 3c be ff ff       	callq  400e40 <GOMP_parallel_end@plt>
  405004:	48 83 c4 30          	add    $0x30,%rsp
  405008:	5b                   	pop    %rbx
  405009:	c3                   	retq   
  40500a:	66 0f 1f 44 00 00    	nopw   0x0(%rax,%rax,1)

0000000000405010 <compute_initial_conditions_>:
  405010:	41 57                	push   %r15
  405012:	31 c0                	xor    %eax,%eax
  405014:	49 bf 00 00 00 a1 b0 	mov    $0x41b2b9b0a1000000,%r15
  40501b:	b9 b2 41 
  40501e:	41 56                	push   %r14
  405020:	49 89 fe             	mov    %rdi,%r14
  405023:	bf a0 66 40 00       	mov    $0x4066a0,%edi
  405028:	41 55                	push   %r13
  40502a:	41 54                	push   %r12
  40502c:	55                   	push   %rbp
  40502d:	53                   	push   %rbx
  40502e:	48 81 ec 58 02 00 00 	sub    $0x258,%rsp
  405035:	44 8b 26             	mov    (%rsi),%r12d
  405038:	4c 63 2a             	movslq (%rdx),%r13
  40503b:	48 8d 9c 24 48 02 00 	lea    0x248(%rsp),%rbx
  405042:	00 
  405043:	48 8d ac 24 40 02 00 	lea    0x240(%rsp),%rbp
  40504a:	00 
  40504b:	be b8 66 40 00       	mov    $0x4066b8,%esi
  405050:	4c 89 bc 24 40 02 00 	mov    %r15,0x240(%rsp)
  405057:	00 
  405058:	41 83 c4 01          	add    $0x1,%r12d
  40505c:	48 89 da             	mov    %rbx,%rdx
  40505f:	4d 63 e4             	movslq %r12d,%r12
  405062:	4d 85 e4             	test   %r12,%r12
  405065:	4c 0f 48 e0          	cmovs  %rax,%r12
  405069:	4d 0f af ec          	imul   %r12,%r13
  40506d:	4d 85 ed             	test   %r13,%r13
  405070:	4c 0f 48 e8          	cmovs  %rax,%r13
  405074:	e8 47 df ff ff       	callq  402fc0 <ipow46_>
  405079:	31 c0                	xor    %eax,%eax
  40507b:	48 89 de             	mov    %rbx,%rsi
  40507e:	48 89 ef             	mov    %rbp,%rdi
  405081:	e8 9a 03 00 00       	callq  405420 <randlc_>
  405086:	31 c0                	xor    %eax,%eax
  405088:	48 89 da             	mov    %rbx,%rdx
  40508b:	be bc 66 40 00       	mov    $0x4066bc,%esi
  405090:	bf a0 66 40 00       	mov    $0x4066a0,%edi
  405095:	e8 26 df ff ff       	callq  402fc0 <ipow46_>
  40509a:	48 8b 84 24 40 02 00 	mov    0x240(%rsp),%rax
  4050a1:	00 
  4050a2:	48 89 44 24 10       	mov    %rax,0x10(%rsp)
  4050a7:	8b 05 bb 26 20 00    	mov    0x2026bb(%rip),%eax        # 607768 <layout_+0x8>
  4050ad:	83 f8 01             	cmp    $0x1,%eax
  4050b0:	89 44 24 0c          	mov    %eax,0xc(%rsp)
  4050b4:	7e 4e                	jle    405104 <compute_initial_conditions_+0xf4>
  4050b6:	48 8d 54 24 10       	lea    0x10(%rsp),%rdx
  4050bb:	41 bf 02 00 00 00    	mov    $0x2,%r15d
  4050c1:	48 83 c2 08          	add    $0x8,%rdx
  4050c5:	0f 1f 00             	nopl   (%rax)
  4050c8:	31 c0                	xor    %eax,%eax
  4050ca:	48 89 de             	mov    %rbx,%rsi
  4050cd:	48 89 ef             	mov    %rbp,%rdi
  4050d0:	48 89 14 24          	mov    %rdx,(%rsp)
  4050d4:	41 83 c7 01          	add    $0x1,%r15d
  4050d8:	e8 43 03 00 00       	callq  405420 <randlc_>
  4050dd:	48 8b 84 24 40 02 00 	mov    0x240(%rsp),%rax
  4050e4:	00 
  4050e5:	48 8b 14 24          	mov    (%rsp),%rdx
  4050e9:	48 89 02             	mov    %rax,(%rdx)
  4050ec:	48 83 c2 08          	add    $0x8,%rdx
  4050f0:	41 8d 47 ff          	lea    -0x1(%r15),%eax
  4050f4:	3b 44 24 0c          	cmp    0xc(%rsp),%eax
  4050f8:	75 ce                	jne    4050c8 <compute_initial_conditions_+0xb8>
  4050fa:	8b 05 68 26 20 00    	mov    0x202668(%rip),%eax        # 607768 <layout_+0x8>
  405100:	89 44 24 0c          	mov    %eax,0xc(%rsp)
  405104:	4c 89 e0             	mov    %r12,%rax
  405107:	48 8d 9c 24 10 02 00 	lea    0x210(%rsp),%rbx
  40510e:	00 
  40510f:	31 d2                	xor    %edx,%edx
  405111:	48 f7 d0             	not    %rax
  405114:	bf 90 35 40 00       	mov    $0x403590,%edi
  405119:	4c 89 ac 24 28 02 00 	mov    %r13,0x228(%rsp)
  405120:	00 
  405121:	4c 29 e8             	sub    %r13,%rax
  405124:	48 89 de             	mov    %rbx,%rsi
  405127:	4c 89 a4 24 20 02 00 	mov    %r12,0x220(%rsp)
  40512e:	00 
  40512f:	48 89 84 24 30 02 00 	mov    %rax,0x230(%rsp)
  405136:	00 
  405137:	48 8d 44 24 10       	lea    0x10(%rsp),%rax
  40513c:	4c 89 b4 24 10 02 00 	mov    %r14,0x210(%rsp)
  405143:	00 
  405144:	48 89 84 24 18 02 00 	mov    %rax,0x218(%rsp)
  40514b:	00 
  40514c:	8b 44 24 0c          	mov    0xc(%rsp),%eax
  405150:	89 84 24 38 02 00 00 	mov    %eax,0x238(%rsp)
  405157:	e8 44 bd ff ff       	callq  400ea0 <GOMP_parallel_start@plt>
  40515c:	48 89 df             	mov    %rbx,%rdi
  40515f:	e8 2c e4 ff ff       	callq  403590 <compute_initial_conditions_.omp_fn.5>
  405164:	e8 d7 bc ff ff       	callq  400e40 <GOMP_parallel_end@plt>
  405169:	48 81 c4 58 02 00 00 	add    $0x258,%rsp
  405170:	5b                   	pop    %rbx
  405171:	5d                   	pop    %rbp
  405172:	41 5c                	pop    %r12
  405174:	41 5d                	pop    %r13
  405176:	41 5e                	pop    %r14
  405178:	41 5f                	pop    %r15
  40517a:	c3                   	retq   
  40517b:	0f 1f 44 00 00       	nopl   0x0(%rax,%rax,1)

0000000000405180 <checksum_.omp_fn.0>:
  405180:	41 56                	push   %r14
  405182:	41 55                	push   %r13
  405184:	41 54                	push   %r12
  405186:	55                   	push   %rbp
  405187:	53                   	push   %rbx
  405188:	48 89 fb             	mov    %rdi,%rbx
  40518b:	48 83 ec 20          	sub    $0x20,%rsp
  40518f:	4c 8b 6f 18          	mov    0x18(%rdi),%r13
  405193:	4c 8b 67 10          	mov    0x10(%rdi),%r12
  405197:	48 8b 6f 08          	mov    0x8(%rdi),%rbp
  40519b:	e8 80 bb ff ff       	callq  400d20 <omp_get_num_threads@plt>
  4051a0:	41 89 c6             	mov    %eax,%r14d
  4051a3:	e8 d8 bb ff ff       	callq  400d80 <omp_get_thread_num@plt>
  4051a8:	b9 00 04 00 00       	mov    $0x400,%ecx
  4051ad:	89 c6                	mov    %eax,%esi
  4051af:	89 ca                	mov    %ecx,%edx
  4051b1:	89 c8                	mov    %ecx,%eax
  4051b3:	c1 fa 1f             	sar    $0x1f,%edx
  4051b6:	66 0f 57 c0          	xorpd  %xmm0,%xmm0
  4051ba:	41 f7 fe             	idiv   %r14d
  4051bd:	31 d2                	xor    %edx,%edx
  4051bf:	66 0f 28 c8          	movapd %xmm0,%xmm1
  4051c3:	44 0f af f0          	imul   %eax,%r14d
  4051c7:	41 81 fe 00 04 00 00 	cmp    $0x400,%r14d
  4051ce:	0f 95 c2             	setne  %dl
  4051d1:	8d 04 02             	lea    (%rdx,%rax,1),%eax
  4051d4:	0f af f0             	imul   %eax,%esi
  4051d7:	8d 04 06             	lea    (%rsi,%rax,1),%eax
  4051da:	3d 00 04 00 00       	cmp    $0x400,%eax
  4051df:	0f 4f c1             	cmovg  %ecx,%eax
  4051e2:	39 c6                	cmp    %eax,%esi
  4051e4:	0f 8d 8c 00 00 00    	jge    405276 <checksum_.omp_fn.0+0xf6>
  4051ea:	66 0f 57 c0          	xorpd  %xmm0,%xmm0
  4051ee:	83 c6 01             	add    $0x1,%esi
  4051f1:	4c 8b 0b             	mov    (%rbx),%r9
  4051f4:	44 8d 04 76          	lea    (%rsi,%rsi,2),%r8d
  4051f8:	8d 3c b6             	lea    (%rsi,%rsi,4),%edi
  4051fb:	66 0f 28 c8          	movapd %xmm0,%xmm1
  4051ff:	90                   	nop
  405200:	89 f1                	mov    %esi,%ecx
  405202:	c1 f9 1f             	sar    $0x1f,%ecx
  405205:	c1 e9 1a             	shr    $0x1a,%ecx
  405208:	8d 14 0e             	lea    (%rsi,%rcx,1),%edx
  40520b:	83 c6 01             	add    $0x1,%esi
  40520e:	83 e2 3f             	and    $0x3f,%edx
  405211:	29 ca                	sub    %ecx,%edx
  405213:	89 f9                	mov    %edi,%ecx
  405215:	c1 f9 1f             	sar    $0x1f,%ecx
  405218:	44 8d 52 01          	lea    0x1(%rdx),%r10d
  40521c:	c1 e9 1a             	shr    $0x1a,%ecx
  40521f:	8d 14 0f             	lea    (%rdi,%rcx,1),%edx
  405222:	4d 63 d2             	movslq %r10d,%r10
  405225:	83 c7 05             	add    $0x5,%edi
  405228:	4d 01 ea             	add    %r13,%r10
  40522b:	83 e2 3f             	and    $0x3f,%edx
  40522e:	29 ca                	sub    %ecx,%edx
  405230:	44 89 c1             	mov    %r8d,%ecx
  405233:	83 c2 01             	add    $0x1,%edx
  405236:	c1 f9 1f             	sar    $0x1f,%ecx
  405239:	48 63 d2             	movslq %edx,%rdx
  40523c:	c1 e9 1a             	shr    $0x1a,%ecx
  40523f:	49 0f af d4          	imul   %r12,%rdx
  405243:	49 01 d2             	add    %rdx,%r10
  405246:	41 8d 14 08          	lea    (%r8,%rcx,1),%edx
  40524a:	41 83 c0 03          	add    $0x3,%r8d
  40524e:	83 e2 3f             	and    $0x3f,%edx
  405251:	29 ca                	sub    %ecx,%edx
  405253:	83 c2 01             	add    $0x1,%edx
  405256:	48 63 d2             	movslq %edx,%rdx
  405259:	48 0f af d5          	imul   %rbp,%rdx
  40525d:	49 8d 14 12          	lea    (%r10,%rdx,1),%rdx
  405261:	48 c1 e2 04          	shl    $0x4,%rdx
  405265:	39 f0                	cmp    %esi,%eax
  405267:	f2 42 0f 58 0c 0a    	addsd  (%rdx,%r9,1),%xmm1
  40526d:	f2 42 0f 58 44 0a 08 	addsd  0x8(%rdx,%r9,1),%xmm0
  405274:	7d 8a                	jge    405200 <checksum_.omp_fn.0+0x80>
  405276:	f2 0f 11 44 24 10    	movsd  %xmm0,0x10(%rsp)
  40527c:	f2 0f 11 0c 24       	movsd  %xmm1,(%rsp)
  405281:	e8 7a bb ff ff       	callq  400e00 <GOMP_atomic_start@plt>
  405286:	f2 0f 10 44 24 10    	movsd  0x10(%rsp),%xmm0
  40528c:	f2 0f 10 0c 24       	movsd  (%rsp),%xmm1
  405291:	f2 0f 58 43 28       	addsd  0x28(%rbx),%xmm0
  405296:	f2 0f 58 4b 20       	addsd  0x20(%rbx),%xmm1
  40529b:	f2 0f 11 43 28       	movsd  %xmm0,0x28(%rbx)
  4052a0:	f2 0f 11 4b 20       	movsd  %xmm1,0x20(%rbx)
  4052a5:	48 83 c4 20          	add    $0x20,%rsp
  4052a9:	5b                   	pop    %rbx
  4052aa:	5d                   	pop    %rbp
  4052ab:	41 5c                	pop    %r12
  4052ad:	41 5d                	pop    %r13
  4052af:	41 5e                	pop    %r14
  4052b1:	e9 fa ba ff ff       	jmpq   400db0 <GOMP_atomic_end@plt>
  4052b6:	66 2e 0f 1f 84 00 00 	nopw   %cs:0x0(%rax,%rax,1)
  4052bd:	00 00 00 

00000000004052c0 <checksum_>:
  4052c0:	55                   	push   %rbp
  4052c1:	31 c0                	xor    %eax,%eax
  4052c3:	53                   	push   %rbx
  4052c4:	48 89 fb             	mov    %rdi,%rbx
  4052c7:	bf 80 51 40 00       	mov    $0x405180,%edi
  4052cc:	48 81 ec 28 02 00 00 	sub    $0x228,%rsp
  4052d3:	8b 12                	mov    (%rdx),%edx
  4052d5:	48 63 09             	movslq (%rcx),%rcx
  4052d8:	48 8d ac 24 e0 01 00 	lea    0x1e0(%rsp),%rbp
  4052df:	00 
  4052e0:	48 89 b4 24 e0 01 00 	mov    %rsi,0x1e0(%rsp)
  4052e7:	00 
  4052e8:	83 c2 01             	add    $0x1,%edx
  4052eb:	48 89 ee             	mov    %rbp,%rsi
  4052ee:	48 63 d2             	movslq %edx,%rdx
  4052f1:	48 85 d2             	test   %rdx,%rdx
  4052f4:	48 0f 48 d0          	cmovs  %rax,%rdx
  4052f8:	48 0f af ca          	imul   %rdx,%rcx
  4052fc:	48 89 94 24 e8 01 00 	mov    %rdx,0x1e8(%rsp)
  405303:	00 
  405304:	48 85 c9             	test   %rcx,%rcx
  405307:	48 0f 48 c8          	cmovs  %rax,%rcx
  40530b:	31 c0                	xor    %eax,%eax
  40530d:	48 89 84 24 10 02 00 	mov    %rax,0x210(%rsp)
  405314:	00 
  405315:	48 89 84 24 18 02 00 	mov    %rax,0x218(%rsp)
  40531c:	00 
  40531d:	48 89 84 24 00 02 00 	mov    %rax,0x200(%rsp)
  405324:	00 
  405325:	48 89 84 24 08 02 00 	mov    %rax,0x208(%rsp)
  40532c:	00 
  40532d:	48 89 d0             	mov    %rdx,%rax
  405330:	48 f7 d0             	not    %rax
  405333:	31 d2                	xor    %edx,%edx
  405335:	48 89 8c 24 f0 01 00 	mov    %rcx,0x1f0(%rsp)
  40533c:	00 
  40533d:	48 29 c8             	sub    %rcx,%rax
  405340:	48 89 84 24 f8 01 00 	mov    %rax,0x1f8(%rsp)
  405347:	00 
  405348:	e8 53 bb ff ff       	callq  400ea0 <GOMP_parallel_start@plt>
  40534d:	48 89 ef             	mov    %rbp,%rdi
  405350:	e8 2b fe ff ff       	callq  405180 <checksum_.omp_fn.0>
  405355:	e8 e6 ba ff ff       	callq  400e40 <GOMP_parallel_end@plt>
  40535a:	f2 0f 10 05 0e 14 00 	movsd  0x140e(%rip),%xmm0        # 406770 <options.0.1582+0x70>
  405361:	00 
  405362:	48 89 e7             	mov    %rsp,%rdi
  405365:	f2 0f 10 8c 24 08 02 	movsd  0x208(%rsp),%xmm1
  40536c:	00 00 
  40536e:	48 c7 44 24 08 24 64 	movq   $0x406424,0x8(%rsp)
  405375:	40 00 
  405377:	c7 44 24 10 68 03 00 	movl   $0x368,0x10(%rsp)
  40537e:	00 
  40537f:	48 c7 44 24 48 c0 66 	movq   $0x4066c0,0x48(%rsp)
  405386:	40 00 
  405388:	f2 0f 59 c8          	mulsd  %xmm0,%xmm1
  40538c:	c7 44 24 50 25 00 00 	movl   $0x25,0x50(%rsp)
  405393:	00 
  405394:	c7 04 24 00 10 00 00 	movl   $0x1000,(%rsp)
  40539b:	f2 0f 59 84 24 00 02 	mulsd  0x200(%rsp),%xmm0
  4053a2:	00 00 
  4053a4:	c7 44 24 04 06 00 00 	movl   $0x6,0x4(%rsp)
  4053ab:	00 
  4053ac:	f2 0f 11 8c 24 18 02 	movsd  %xmm1,0x218(%rsp)
  4053b3:	00 00 
  4053b5:	f2 0f 11 84 24 10 02 	movsd  %xmm0,0x210(%rsp)
  4053bc:	00 00 
  4053be:	e8 8d ba ff ff       	callq  400e50 <_gfortran_st_write@plt>
  4053c3:	48 89 de             	mov    %rbx,%rsi
  4053c6:	48 89 e7             	mov    %rsp,%rdi
  4053c9:	ba 04 00 00 00       	mov    $0x4,%edx
  4053ce:	e8 fd b9 ff ff       	callq  400dd0 <_gfortran_transfer_integer@plt>
  4053d3:	48 8d b4 24 10 02 00 	lea    0x210(%rsp),%rsi
  4053da:	00 
  4053db:	ba 08 00 00 00       	mov    $0x8,%edx
  4053e0:	48 89 e7             	mov    %rsp,%rdi
  4053e3:	e8 88 b9 ff ff       	callq  400d70 <_gfortran_transfer_complex@plt>
  4053e8:	48 89 e7             	mov    %rsp,%rdi
  4053eb:	e8 50 b9 ff ff       	callq  400d40 <_gfortran_st_write_done@plt>
  4053f0:	48 63 03             	movslq (%rbx),%rax
  4053f3:	48 8b 94 24 10 02 00 	mov    0x210(%rsp),%rdx
  4053fa:	00 
  4053fb:	48 c1 e0 04          	shl    $0x4,%rax
  4053ff:	48 89 90 80 77 60 00 	mov    %rdx,0x607780(%rax)
  405406:	48 8b 94 24 18 02 00 	mov    0x218(%rsp),%rdx
  40540d:	00 
  40540e:	48 89 90 88 77 60 00 	mov    %rdx,0x607788(%rax)
  405415:	48 81 c4 28 02 00 00 	add    $0x228,%rsp
  40541c:	5b                   	pop    %rbx
  40541d:	5d                   	pop    %rbp
  40541e:	c3                   	retq   
  40541f:	90                   	nop

0000000000405420 <randlc_>:
  405420:	f2 0f 10 07          	movsd  (%rdi),%xmm0
  405424:	f2 0f 10 0e          	movsd  (%rsi),%xmm1
  405428:	f2 48 0f 2c d0       	cvttsd2si %xmm0,%rdx
  40542d:	f2 48 0f 2c c1       	cvttsd2si %xmm1,%rax
  405432:	48 0f af c2          	imul   %rdx,%rax
  405436:	48 ba ff ff ff ff ff 	mov    $0x3fffffffffff,%rdx
  40543d:	3f 00 00 
  405440:	48 21 d0             	and    %rdx,%rax
  405443:	f2 48 0f 2a c0       	cvtsi2sd %rax,%xmm0
  405448:	f2 0f 11 07          	movsd  %xmm0,(%rdi)
  40544c:	f2 0f 59 05 2c 13 00 	mulsd  0x132c(%rip),%xmm0        # 406780 <options.0.1582+0x80>
  405453:	00 
  405454:	c3                   	retq   
  405455:	66 66 2e 0f 1f 84 00 	data32 nopw %cs:0x0(%rax,%rax,1)
  40545c:	00 00 00 00 

0000000000405460 <vranlc_>:
  405460:	f2 0f 10 12          	movsd  (%rdx),%xmm2
  405464:	8b 17                	mov    (%rdi),%edx
  405466:	f2 0f 10 1e          	movsd  (%rsi),%xmm3
  40546a:	f2 4c 0f 2c c2       	cvttsd2si %xmm2,%r8
  40546f:	85 d2                	test   %edx,%edx
  405471:	f2 48 0f 2c c3       	cvttsd2si %xmm3,%rax
  405476:	7e 58                	jle    4054d0 <vranlc_+0x70>
  405478:	83 ea 01             	sub    $0x1,%edx
  40547b:	f2 0f 10 15 fd 12 00 	movsd  0x12fd(%rip),%xmm2        # 406780 <options.0.1582+0x80>
  405482:	00 
  405483:	4c 8d 0c d5 08 00 00 	lea    0x8(,%rdx,8),%r9
  40548a:	00 
  40548b:	48 bf ff ff ff ff ff 	mov    $0x3fffffffffff,%rdi
  405492:	3f 00 00 
  405495:	31 d2                	xor    %edx,%edx
  405497:	66 0f 1f 84 00 00 00 	nopw   0x0(%rax,%rax,1)
  40549e:	00 00 
  4054a0:	49 0f af c0          	imul   %r8,%rax
  4054a4:	48 21 f8             	and    %rdi,%rax
  4054a7:	f2 48 0f 2a c0       	cvtsi2sd %rax,%xmm0
  4054ac:	66 0f 28 c8          	movapd %xmm0,%xmm1
  4054b0:	f2 0f 59 ca          	mulsd  %xmm2,%xmm1
  4054b4:	f2 0f 11 0c 11       	movsd  %xmm1,(%rcx,%rdx,1)
  4054b9:	48 83 c2 08          	add    $0x8,%rdx
  4054bd:	4c 39 ca             	cmp    %r9,%rdx
  4054c0:	75 de                	jne    4054a0 <vranlc_+0x40>
  4054c2:	f2 0f 11 06          	movsd  %xmm0,(%rsi)
  4054c6:	c3                   	retq   
  4054c7:	66 0f 1f 84 00 00 00 	nopw   0x0(%rax,%rax,1)
  4054ce:	00 00 
  4054d0:	f2 48 0f 2a c0       	cvtsi2sd %rax,%xmm0
  4054d5:	f2 0f 11 06          	movsd  %xmm0,(%rsi)
  4054d9:	c3                   	retq   
  4054da:	90                   	nop
  4054db:	90                   	nop
  4054dc:	90                   	nop
  4054dd:	90                   	nop
  4054de:	90                   	nop
  4054df:	90                   	nop

00000000004054e0 <print_results_.omp_fn.0>:
  4054e0:	53                   	push   %rbx
  4054e1:	48 89 fb             	mov    %rdi,%rbx
  4054e4:	e8 97 b8 ff ff       	callq  400d80 <omp_get_thread_num@plt>
  4054e9:	85 c0                	test   %eax,%eax
  4054eb:	74 03                	je     4054f0 <print_results_.omp_fn.0+0x10>
  4054ed:	5b                   	pop    %rbx
  4054ee:	c3                   	retq   
  4054ef:	90                   	nop
  4054f0:	e8 cb b8 ff ff       	callq  400dc0 <omp_get_num_threads_@plt>
  4054f5:	48 8b 13             	mov    (%rbx),%rdx
  4054f8:	89 02                	mov    %eax,(%rdx)
  4054fa:	5b                   	pop    %rbx
  4054fb:	c3                   	retq   
  4054fc:	0f 1f 40 00          	nopl   0x0(%rax)

0000000000405500 <print_results_>:
  405500:	41 57                	push   %r15
  405502:	31 c0                	xor    %eax,%eax
  405504:	49 89 ff             	mov    %rdi,%r15
  405507:	41 56                	push   %r14
  405509:	4d 89 ce             	mov    %r9,%r14
  40550c:	41 55                	push   %r13
  40550e:	4d 89 c5             	mov    %r8,%r13
  405511:	41 54                	push   %r12
  405513:	55                   	push   %rbp
  405514:	53                   	push   %rbx
  405515:	48 89 cb             	mov    %rcx,%rbx
  405518:	48 81 ec 18 31 00 00 	sub    $0x3118,%rsp
  40551f:	48 89 74 24 10       	mov    %rsi,0x10(%rsp)
  405524:	48 89 54 24 18       	mov    %rdx,0x18(%rsp)
  405529:	4c 8d a4 24 08 31 00 	lea    0x3108(%rsp),%r12
  405530:	00 
  405531:	48 8b ac 24 58 31 00 	mov    0x3158(%rsp),%rbp
  405538:	00 
  405539:	c7 84 24 0c 31 00 00 	movl   $0x1,0x310c(%rsp)
  405540:	01 00 00 00 
  405544:	e8 27 b9 ff ff       	callq  400e70 <omp_get_max_threads_@plt>
  405549:	89 84 24 0c 31 00 00 	mov    %eax,0x310c(%rsp)
  405550:	48 8d 84 24 f0 30 00 	lea    0x30f0(%rsp),%rax
  405557:	00 
  405558:	31 d2                	xor    %edx,%edx
  40555a:	bf e0 54 40 00       	mov    $0x4054e0,%edi
  40555f:	c7 84 24 08 31 00 00 	movl   $0x1,0x3108(%rsp)
  405566:	01 00 00 00 
  40556a:	4c 89 a4 24 f0 30 00 	mov    %r12,0x30f0(%rsp)
  405571:	00 
  405572:	48 89 c6             	mov    %rax,%rsi
  405575:	48 89 44 24 08       	mov    %rax,0x8(%rsp)
  40557a:	e8 21 b9 ff ff       	callq  400ea0 <GOMP_parallel_start@plt>
  40557f:	48 8b 44 24 08       	mov    0x8(%rsp),%rax
  405584:	48 89 c7             	mov    %rax,%rdi
  405587:	e8 54 ff ff ff       	callq  4054e0 <print_results_.omp_fn.0>
  40558c:	e8 af b8 ff ff       	callq  400e40 <GOMP_parallel_end@plt>
  405591:	48 8d bc 24 00 2f 00 	lea    0x2f00(%rsp),%rdi
  405598:	00 
  405599:	48 c7 84 24 08 2f 00 	movq   $0x406788,0x2f08(%rsp)
  4055a0:	00 88 67 40 00 
  4055a5:	c7 84 24 10 2f 00 00 	movl   $0x20,0x2f10(%rsp)
  4055ac:	20 00 00 00 
  4055b0:	48 c7 84 24 48 2f 00 	movq   $0x406798,0x2f48(%rsp)
  4055b7:	00 98 67 40 00 
  4055bc:	c7 84 24 50 2f 00 00 	movl   $0x25,0x2f50(%rsp)
  4055c3:	25 00 00 00 
  4055c7:	c7 84 24 00 2f 00 00 	movl   $0x1000,0x2f00(%rsp)
  4055ce:	00 10 00 00 
  4055d2:	c7 84 24 04 2f 00 00 	movl   $0x6,0x2f04(%rsp)
  4055d9:	06 00 00 00 
  4055dd:	e8 6e b8 ff ff       	callq  400e50 <_gfortran_st_write@plt>
  4055e2:	8b 94 24 b8 31 00 00 	mov    0x31b8(%rsp),%edx
  4055e9:	48 8d bc 24 00 2f 00 	lea    0x2f00(%rsp),%rdi
  4055f0:	00 
  4055f1:	4c 89 fe             	mov    %r15,%rsi
  4055f4:	e8 17 b8 ff ff       	callq  400e10 <_gfortran_transfer_character@plt>
  4055f9:	48 8d bc 24 00 2f 00 	lea    0x2f00(%rsp),%rdi
  405600:	00 
  405601:	e8 3a b7 ff ff       	callq  400d40 <_gfortran_st_write_done@plt>
  405606:	48 8d bc 24 20 2d 00 	lea    0x2d20(%rsp),%rdi
  40560d:	00 
  40560e:	48 c7 84 24 28 2d 00 	movq   $0x406788,0x2d28(%rsp)
  405615:	00 88 67 40 00 
  40561a:	c7 84 24 30 2d 00 00 	movl   $0x23,0x2d30(%rsp)
  405621:	23 00 00 00 
  405625:	48 c7 84 24 68 2d 00 	movq   $0x4067c0,0x2d68(%rsp)
  40562c:	00 c0 67 40 00 
  405631:	c7 84 24 70 2d 00 00 	movl   $0x21,0x2d70(%rsp)
  405638:	21 00 00 00 
  40563c:	c7 84 24 20 2d 00 00 	movl   $0x1000,0x2d20(%rsp)
  405643:	00 10 00 00 
  405647:	c7 84 24 24 2d 00 00 	movl   $0x6,0x2d24(%rsp)
  40564e:	06 00 00 00 
  405652:	e8 f9 b7 ff ff       	callq  400e50 <_gfortran_st_write@plt>
  405657:	48 8b 74 24 10       	mov    0x10(%rsp),%rsi
  40565c:	48 8d bc 24 20 2d 00 	lea    0x2d20(%rsp),%rdi
  405663:	00 
  405664:	ba 01 00 00 00       	mov    $0x1,%edx
  405669:	e8 a2 b7 ff ff       	callq  400e10 <_gfortran_transfer_character@plt>
  40566e:	48 8d bc 24 20 2d 00 	lea    0x2d20(%rsp),%rdi
  405675:	00 
  405676:	e8 c5 b6 ff ff       	callq  400d40 <_gfortran_st_write_done@plt>
  40567b:	8b 0b                	mov    (%rbx),%ecx
  40567d:	85 c9                	test   %ecx,%ecx
  40567f:	75 0c                	jne    40568d <print_results_+0x18d>
  405681:	41 8b 55 00          	mov    0x0(%r13),%edx
  405685:	85 d2                	test   %edx,%edx
  405687:	0f 84 83 09 00 00    	je     406010 <print_results_+0xb10>
  40568d:	4c 8d bc 24 a0 25 00 	lea    0x25a0(%rsp),%r15
  405694:	00 
  405695:	48 c7 84 24 a8 25 00 	movq   $0x406788,0x25a8(%rsp)
  40569c:	00 88 67 40 00 
  4056a1:	c7 84 24 b0 25 00 00 	movl   $0x37,0x25b0(%rsp)
  4056a8:	37 00 00 00 
  4056ac:	48 c7 84 24 e8 25 00 	movq   $0x406830,0x25e8(%rsp)
  4056b3:	00 30 68 40 00 
  4056b8:	c7 84 24 f0 25 00 00 	movl   $0x2d,0x25f0(%rsp)
  4056bf:	2d 00 00 00 
  4056c3:	4c 89 ff             	mov    %r15,%rdi
  4056c6:	c7 84 24 a0 25 00 00 	movl   $0x1000,0x25a0(%rsp)
  4056cd:	00 10 00 00 
  4056d1:	c7 84 24 a4 25 00 00 	movl   $0x6,0x25a4(%rsp)
  4056d8:	06 00 00 00 
  4056dc:	e8 6f b7 ff ff       	callq  400e50 <_gfortran_st_write@plt>
  4056e1:	48 8b 74 24 18       	mov    0x18(%rsp),%rsi
  4056e6:	ba 04 00 00 00       	mov    $0x4,%edx
  4056eb:	4c 89 ff             	mov    %r15,%rdi
  4056ee:	e8 dd b6 ff ff       	callq  400dd0 <_gfortran_transfer_integer@plt>
  4056f3:	ba 04 00 00 00       	mov    $0x4,%edx
  4056f8:	48 89 de             	mov    %rbx,%rsi
  4056fb:	4c 89 ff             	mov    %r15,%rdi
  4056fe:	e8 cd b6 ff ff       	callq  400dd0 <_gfortran_transfer_integer@plt>
  405703:	4c 89 ff             	mov    %r15,%rdi
  405706:	ba 04 00 00 00       	mov    $0x4,%edx
  40570b:	4c 89 ee             	mov    %r13,%rsi
  40570e:	e8 bd b6 ff ff       	callq  400dd0 <_gfortran_transfer_integer@plt>
  405713:	4c 89 ff             	mov    %r15,%rdi
  405716:	e8 25 b6 ff ff       	callq  400d40 <_gfortran_st_write_done@plt>
  40571b:	48 8d 9c 24 c0 23 00 	lea    0x23c0(%rsp),%rbx
  405722:	00 
  405723:	48 c7 84 24 c8 23 00 	movq   $0x406788,0x23c8(%rsp)
  40572a:	00 88 67 40 00 
  40572f:	c7 84 24 d0 23 00 00 	movl   $0x3b,0x23d0(%rsp)
  405736:	3b 00 00 00 
  40573a:	48 c7 84 24 08 24 00 	movq   $0x406860,0x2408(%rsp)
  405741:	00 60 68 40 00 
  405746:	c7 84 24 10 24 00 00 	movl   $0x21,0x2410(%rsp)
  40574d:	21 00 00 00 
  405751:	48 89 df             	mov    %rbx,%rdi
  405754:	c7 84 24 c0 23 00 00 	movl   $0x1000,0x23c0(%rsp)
  40575b:	00 10 00 00 
  40575f:	c7 84 24 c4 23 00 00 	movl   $0x6,0x23c4(%rsp)
  405766:	06 00 00 00 
  40576a:	e8 e1 b6 ff ff       	callq  400e50 <_gfortran_st_write@plt>
  40576f:	ba 04 00 00 00       	mov    $0x4,%edx
  405774:	4c 89 f6             	mov    %r14,%rsi
  405777:	48 89 df             	mov    %rbx,%rdi
  40577a:	e8 51 b6 ff ff       	callq  400dd0 <_gfortran_transfer_integer@plt>
  40577f:	48 89 df             	mov    %rbx,%rdi
  405782:	48 8d 9c 24 e0 21 00 	lea    0x21e0(%rsp),%rbx
  405789:	00 
  40578a:	e8 b1 b5 ff ff       	callq  400d40 <_gfortran_st_write_done@plt>
  40578f:	48 89 df             	mov    %rbx,%rdi
  405792:	48 c7 84 24 e8 21 00 	movq   $0x406788,0x21e8(%rsp)
  405799:	00 88 67 40 00 
  40579e:	c7 84 24 f0 21 00 00 	movl   $0x3e,0x21f0(%rsp)
  4057a5:	3e 00 00 00 
  4057a9:	48 c7 84 24 28 22 00 	movq   $0x406888,0x2228(%rsp)
  4057b0:	00 88 68 40 00 
  4057b5:	c7 84 24 30 22 00 00 	movl   $0x22,0x2230(%rsp)
  4057bc:	22 00 00 00 
  4057c0:	c7 84 24 e0 21 00 00 	movl   $0x1000,0x21e0(%rsp)
  4057c7:	00 10 00 00 
  4057cb:	c7 84 24 e4 21 00 00 	movl   $0x6,0x21e4(%rsp)
  4057d2:	06 00 00 00 
  4057d6:	e8 75 b6 ff ff       	callq  400e50 <_gfortran_st_write@plt>
  4057db:	48 8b b4 24 50 31 00 	mov    0x3150(%rsp),%rsi
  4057e2:	00 
  4057e3:	ba 08 00 00 00       	mov    $0x8,%edx
  4057e8:	48 89 df             	mov    %rbx,%rdi
  4057eb:	e8 90 b6 ff ff       	callq  400e80 <_gfortran_transfer_real@plt>
  4057f0:	48 89 df             	mov    %rbx,%rdi
  4057f3:	48 8d 9c 24 00 20 00 	lea    0x2000(%rsp),%rbx
  4057fa:	00 
  4057fb:	e8 40 b5 ff ff       	callq  400d40 <_gfortran_st_write_done@plt>
  405800:	48 89 df             	mov    %rbx,%rdi
  405803:	48 c7 84 24 08 20 00 	movq   $0x406788,0x2008(%rsp)
  40580a:	00 88 67 40 00 
  40580f:	c7 84 24 10 20 00 00 	movl   $0x41,0x2010(%rsp)
  405816:	41 00 00 00 
  40581a:	48 c7 84 24 48 20 00 	movq   $0x4068b0,0x2048(%rsp)
  405821:	00 b0 68 40 00 
  405826:	c7 84 24 50 20 00 00 	movl   $0x21,0x2050(%rsp)
  40582d:	21 00 00 00 
  405831:	c7 84 24 00 20 00 00 	movl   $0x1000,0x2000(%rsp)
  405838:	00 10 00 00 
  40583c:	c7 84 24 04 20 00 00 	movl   $0x6,0x2004(%rsp)
  405843:	06 00 00 00 
  405847:	e8 04 b6 ff ff       	callq  400e50 <_gfortran_st_write@plt>
  40584c:	ba 04 00 00 00       	mov    $0x4,%edx
  405851:	4c 89 e6             	mov    %r12,%rsi
  405854:	48 89 df             	mov    %rbx,%rdi
  405857:	e8 74 b5 ff ff       	callq  400dd0 <_gfortran_transfer_integer@plt>
  40585c:	48 89 df             	mov    %rbx,%rdi
  40585f:	48 8d 9c 24 20 1e 00 	lea    0x1e20(%rsp),%rbx
  405866:	00 
  405867:	e8 d4 b4 ff ff       	callq  400d40 <_gfortran_st_write_done@plt>
  40586c:	48 89 df             	mov    %rbx,%rdi
  40586f:	48 c7 84 24 28 1e 00 	movq   $0x406788,0x1e28(%rsp)
  405876:	00 88 67 40 00 
  40587b:	c7 84 24 30 1e 00 00 	movl   $0x44,0x1e30(%rsp)
  405882:	44 00 00 00 
  405886:	48 c7 84 24 68 1e 00 	movq   $0x4068d8,0x1e68(%rsp)
  40588d:	00 d8 68 40 00 
  405892:	c7 84 24 70 1e 00 00 	movl   $0x21,0x1e70(%rsp)
  405899:	21 00 00 00 
  40589d:	c7 84 24 20 1e 00 00 	movl   $0x1000,0x1e20(%rsp)
  4058a4:	00 10 00 00 
  4058a8:	c7 84 24 24 1e 00 00 	movl   $0x6,0x1e24(%rsp)
  4058af:	06 00 00 00 
  4058b3:	e8 98 b5 ff ff       	callq  400e50 <_gfortran_st_write@plt>
  4058b8:	48 8d b4 24 0c 31 00 	lea    0x310c(%rsp),%rsi
  4058bf:	00 
  4058c0:	ba 04 00 00 00       	mov    $0x4,%edx
  4058c5:	48 89 df             	mov    %rbx,%rdi
  4058c8:	e8 03 b5 ff ff       	callq  400dd0 <_gfortran_transfer_integer@plt>
  4058cd:	48 89 df             	mov    %rbx,%rdi
  4058d0:	e8 6b b4 ff ff       	callq  400d40 <_gfortran_st_write_done@plt>
  4058d5:	8b 84 24 08 31 00 00 	mov    0x3108(%rsp),%eax
  4058dc:	3b 84 24 0c 31 00 00 	cmp    0x310c(%rsp),%eax
  4058e3:	74 5c                	je     405941 <print_results_+0x441>
  4058e5:	48 8d 9c 24 40 1c 00 	lea    0x1c40(%rsp),%rbx
  4058ec:	00 
  4058ed:	48 c7 84 24 48 1c 00 	movq   $0x406788,0x1c48(%rsp)
  4058f4:	00 88 67 40 00 
  4058f9:	c7 84 24 50 1c 00 00 	movl   $0x47,0x1c50(%rsp)
  405900:	47 00 00 00 
  405904:	48 c7 84 24 88 1c 00 	movq   $0x406900,0x1c88(%rsp)
  40590b:	00 00 69 40 00 
  405910:	c7 84 24 90 1c 00 00 	movl   $0x38,0x1c90(%rsp)
  405917:	38 00 00 00 
  40591b:	48 89 df             	mov    %rbx,%rdi
  40591e:	c7 84 24 40 1c 00 00 	movl   $0x1000,0x1c40(%rsp)
  405925:	00 10 00 00 
  405929:	c7 84 24 44 1c 00 00 	movl   $0x6,0x1c44(%rsp)
  405930:	06 00 00 00 
  405934:	e8 17 b5 ff ff       	callq  400e50 <_gfortran_st_write@plt>
  405939:	48 89 df             	mov    %rbx,%rdi
  40593c:	e8 ff b3 ff ff       	callq  400d40 <_gfortran_st_write_done@plt>
  405941:	48 8d 9c 24 60 1a 00 	lea    0x1a60(%rsp),%rbx
  405948:	00 
  405949:	48 c7 84 24 68 1a 00 	movq   $0x406788,0x1a68(%rsp)
  405950:	00 88 67 40 00 
  405955:	c7 84 24 70 1a 00 00 	movl   $0x4a,0x1a70(%rsp)
  40595c:	4a 00 00 00 
  405960:	48 c7 84 24 a8 1a 00 	movq   $0x406938,0x1aa8(%rsp)
  405967:	00 38 69 40 00 
  40596c:	c7 84 24 b0 1a 00 00 	movl   $0x22,0x1ab0(%rsp)
  405973:	22 00 00 00 
  405977:	48 89 df             	mov    %rbx,%rdi
  40597a:	c7 84 24 60 1a 00 00 	movl   $0x1000,0x1a60(%rsp)
  405981:	00 10 00 00 
  405985:	c7 84 24 64 1a 00 00 	movl   $0x6,0x1a64(%rsp)
  40598c:	06 00 00 00 
  405990:	e8 bb b4 ff ff       	callq  400e50 <_gfortran_st_write@plt>
  405995:	ba 08 00 00 00       	mov    $0x8,%edx
  40599a:	48 89 ee             	mov    %rbp,%rsi
  40599d:	48 89 df             	mov    %rbx,%rdi
  4059a0:	e8 db b4 ff ff       	callq  400e80 <_gfortran_transfer_real@plt>
  4059a5:	48 89 df             	mov    %rbx,%rdi
  4059a8:	48 8d 9c 24 80 18 00 	lea    0x1880(%rsp),%rbx
  4059af:	00 
  4059b0:	e8 8b b3 ff ff       	callq  400d40 <_gfortran_st_write_done@plt>
  4059b5:	48 89 df             	mov    %rbx,%rdi
  4059b8:	48 c7 84 24 88 18 00 	movq   $0x406788,0x1888(%rsp)
  4059bf:	00 88 67 40 00 
  4059c4:	c7 84 24 90 18 00 00 	movl   $0x4d,0x1890(%rsp)
  4059cb:	4d 00 00 00 
  4059cf:	48 c7 84 24 c8 18 00 	movq   $0x406960,0x18c8(%rsp)
  4059d6:	00 60 69 40 00 
  4059db:	c7 84 24 d0 18 00 00 	movl   $0x23,0x18d0(%rsp)
  4059e2:	23 00 00 00 
  4059e6:	c7 84 24 80 18 00 00 	movl   $0x1000,0x1880(%rsp)
  4059ed:	00 10 00 00 
  4059f1:	c7 84 24 84 18 00 00 	movl   $0x6,0x1884(%rsp)
  4059f8:	06 00 00 00 
  4059fc:	e8 4f b4 ff ff       	callq  400e50 <_gfortran_st_write@plt>
  405a01:	f3 0f 2a 8c 24 08 31 	cvtsi2ssl 0x3108(%rsp),%xmm1
  405a08:	00 00 
  405a0a:	0f 14 c9             	unpcklps %xmm1,%xmm1
  405a0d:	48 8d b4 24 f8 30 00 	lea    0x30f8(%rsp),%rsi
  405a14:	00 
  405a15:	f2 0f 10 45 00       	movsd  0x0(%rbp),%xmm0
  405a1a:	ba 08 00 00 00       	mov    $0x8,%edx
  405a1f:	48 89 df             	mov    %rbx,%rdi
  405a22:	0f 5a c9             	cvtps2pd %xmm1,%xmm1
  405a25:	f2 0f 5e c1          	divsd  %xmm1,%xmm0
  405a29:	f2 0f 11 84 24 f8 30 	movsd  %xmm0,0x30f8(%rsp)
  405a30:	00 00 
  405a32:	e8 49 b4 ff ff       	callq  400e80 <_gfortran_transfer_real@plt>
  405a37:	48 89 df             	mov    %rbx,%rdi
  405a3a:	48 8d 9c 24 a0 16 00 	lea    0x16a0(%rsp),%rbx
  405a41:	00 
  405a42:	e8 f9 b2 ff ff       	callq  400d40 <_gfortran_st_write_done@plt>
  405a47:	48 89 df             	mov    %rbx,%rdi
  405a4a:	48 c7 84 24 a8 16 00 	movq   $0x406788,0x16a8(%rsp)
  405a51:	00 88 67 40 00 
  405a56:	c7 84 24 b0 16 00 00 	movl   $0x50,0x16b0(%rsp)
  405a5d:	50 00 00 00 
  405a61:	48 c7 84 24 e8 16 00 	movq   $0x406983,0x16e8(%rsp)
  405a68:	00 83 69 40 00 
  405a6d:	c7 84 24 f0 16 00 00 	movl   $0x1c,0x16f0(%rsp)
  405a74:	1c 00 00 00 
  405a78:	c7 84 24 a0 16 00 00 	movl   $0x1000,0x16a0(%rsp)
  405a7f:	00 10 00 00 
  405a83:	c7 84 24 a4 16 00 00 	movl   $0x6,0x16a4(%rsp)
  405a8a:	06 00 00 00 
  405a8e:	e8 bd b3 ff ff       	callq  400e50 <_gfortran_st_write@plt>
  405a93:	48 8b b4 24 60 31 00 	mov    0x3160(%rsp),%rsi
  405a9a:	00 
  405a9b:	ba 18 00 00 00       	mov    $0x18,%edx
  405aa0:	48 89 df             	mov    %rbx,%rdi
  405aa3:	e8 68 b3 ff ff       	callq  400e10 <_gfortran_transfer_character@plt>
  405aa8:	48 89 df             	mov    %rbx,%rdi
  405aab:	e8 90 b2 ff ff       	callq  400d40 <_gfortran_st_write_done@plt>
  405ab0:	48 8b 84 24 68 31 00 	mov    0x3168(%rsp),%rax
  405ab7:	00 
  405ab8:	8b 00                	mov    (%rax),%eax
  405aba:	85 c0                	test   %eax,%eax
  405abc:	0f 85 d6 04 00 00    	jne    405f98 <print_results_+0xa98>
  405ac2:	48 8d 9c 24 e0 12 00 	lea    0x12e0(%rsp),%rbx
  405ac9:	00 
  405aca:	48 c7 84 24 e8 12 00 	movq   $0x406788,0x12e8(%rsp)
  405ad1:	00 88 67 40 00 
  405ad6:	c7 84 24 f0 12 00 00 	movl   $0x56,0x12f0(%rsp)
  405add:	56 00 00 00 
  405ae1:	48 c7 84 24 28 13 00 	movq   $0x4069a0,0x1328(%rsp)
  405ae8:	00 a0 69 40 00 
  405aed:	c7 84 24 30 13 00 00 	movl   $0x1f,0x1330(%rsp)
  405af4:	1f 00 00 00 
  405af8:	48 89 df             	mov    %rbx,%rdi
  405afb:	c7 84 24 e0 12 00 00 	movl   $0x1000,0x12e0(%rsp)
  405b02:	00 10 00 00 
  405b06:	c7 84 24 e4 12 00 00 	movl   $0x6,0x12e4(%rsp)
  405b0d:	06 00 00 00 
  405b11:	e8 3a b3 ff ff       	callq  400e50 <_gfortran_st_write@plt>
  405b16:	48 89 df             	mov    %rbx,%rdi
  405b19:	ba 0c 00 00 00       	mov    $0xc,%edx
  405b1e:	be cb 69 40 00       	mov    $0x4069cb,%esi
  405b23:	e8 e8 b2 ff ff       	callq  400e10 <_gfortran_transfer_character@plt>
  405b28:	48 89 df             	mov    %rbx,%rdi
  405b2b:	e8 10 b2 ff ff       	callq  400d40 <_gfortran_st_write_done@plt>
  405b30:	48 8d 9c 24 00 11 00 	lea    0x1100(%rsp),%rbx
  405b37:	00 
  405b38:	48 c7 84 24 08 11 00 	movq   $0x406788,0x1108(%rsp)
  405b3f:	00 88 67 40 00 
  405b44:	c7 84 24 10 11 00 00 	movl   $0x5a,0x1110(%rsp)
  405b4b:	5a 00 00 00 
  405b4f:	48 c7 84 24 48 11 00 	movq   $0x4069d8,0x1148(%rsp)
  405b56:	00 d8 69 40 00 
  405b5b:	c7 84 24 50 11 00 00 	movl   $0x21,0x1150(%rsp)
  405b62:	21 00 00 00 
  405b66:	48 89 df             	mov    %rbx,%rdi
  405b69:	c7 84 24 00 11 00 00 	movl   $0x1000,0x1100(%rsp)
  405b70:	00 10 00 00 
  405b74:	c7 84 24 04 11 00 00 	movl   $0x6,0x1104(%rsp)
  405b7b:	06 00 00 00 
  405b7f:	e8 cc b2 ff ff       	callq  400e50 <_gfortran_st_write@plt>
  405b84:	8b 94 24 d0 31 00 00 	mov    0x31d0(%rsp),%edx
  405b8b:	48 8b b4 24 70 31 00 	mov    0x3170(%rsp),%rsi
  405b92:	00 
  405b93:	48 89 df             	mov    %rbx,%rdi
  405b96:	e8 75 b2 ff ff       	callq  400e10 <_gfortran_transfer_character@plt>
  405b9b:	48 89 df             	mov    %rbx,%rdi
  405b9e:	48 8d 9c 24 20 0f 00 	lea    0xf20(%rsp),%rbx
  405ba5:	00 
  405ba6:	e8 95 b1 ff ff       	callq  400d40 <_gfortran_st_write_done@plt>
  405bab:	48 89 df             	mov    %rbx,%rdi
  405bae:	48 c7 84 24 28 0f 00 	movq   $0x406788,0xf28(%rsp)
  405bb5:	00 88 67 40 00 
  405bba:	c7 84 24 30 0f 00 00 	movl   $0x5d,0xf30(%rsp)
  405bc1:	5d 00 00 00 
  405bc5:	48 c7 84 24 68 0f 00 	movq   $0x406a00,0xf68(%rsp)
  405bcc:	00 00 6a 40 00 
  405bd1:	c7 84 24 70 0f 00 00 	movl   $0x21,0xf70(%rsp)
  405bd8:	21 00 00 00 
  405bdc:	c7 84 24 20 0f 00 00 	movl   $0x1000,0xf20(%rsp)
  405be3:	00 10 00 00 
  405be7:	c7 84 24 24 0f 00 00 	movl   $0x6,0xf24(%rsp)
  405bee:	06 00 00 00 
  405bf2:	e8 59 b2 ff ff       	callq  400e50 <_gfortran_st_write@plt>
  405bf7:	8b 94 24 d8 31 00 00 	mov    0x31d8(%rsp),%edx
  405bfe:	48 8b b4 24 78 31 00 	mov    0x3178(%rsp),%rsi
  405c05:	00 
  405c06:	48 89 df             	mov    %rbx,%rdi
  405c09:	e8 02 b2 ff ff       	callq  400e10 <_gfortran_transfer_character@plt>
  405c0e:	48 89 df             	mov    %rbx,%rdi
  405c11:	48 8d 9c 24 40 0d 00 	lea    0xd40(%rsp),%rbx
  405c18:	00 
  405c19:	e8 22 b1 ff ff       	callq  400d40 <_gfortran_st_write_done@plt>
  405c1e:	48 89 df             	mov    %rbx,%rdi
  405c21:	48 c7 84 24 48 0d 00 	movq   $0x406788,0xd48(%rsp)
  405c28:	00 88 67 40 00 
  405c2d:	c7 84 24 50 0d 00 00 	movl   $0x61,0xd50(%rsp)
  405c34:	61 00 00 00 
  405c38:	48 c7 84 24 88 0d 00 	movq   $0x406a28,0xd88(%rsp)
  405c3f:	00 28 6a 40 00 
  405c44:	c7 84 24 90 0d 00 00 	movl   $0x5c,0xd90(%rsp)
  405c4b:	5c 00 00 00 
  405c4f:	c7 84 24 40 0d 00 00 	movl   $0x1000,0xd40(%rsp)
  405c56:	00 10 00 00 
  405c5a:	c7 84 24 44 0d 00 00 	movl   $0x6,0xd44(%rsp)
  405c61:	06 00 00 00 
  405c65:	e8 e6 b1 ff ff       	callq  400e50 <_gfortran_st_write@plt>
  405c6a:	8b 94 24 e0 31 00 00 	mov    0x31e0(%rsp),%edx
  405c71:	48 8b b4 24 80 31 00 	mov    0x3180(%rsp),%rsi
  405c78:	00 
  405c79:	48 89 df             	mov    %rbx,%rdi
  405c7c:	e8 8f b1 ff ff       	callq  400e10 <_gfortran_transfer_character@plt>
  405c81:	48 89 df             	mov    %rbx,%rdi
  405c84:	48 8d 9c 24 60 0b 00 	lea    0xb60(%rsp),%rbx
  405c8b:	00 
  405c8c:	e8 af b0 ff ff       	callq  400d40 <_gfortran_st_write_done@plt>
  405c91:	48 89 df             	mov    %rbx,%rdi
  405c94:	48 c7 84 24 68 0b 00 	movq   $0x406788,0xb68(%rsp)
  405c9b:	00 88 67 40 00 
  405ca0:	c7 84 24 70 0b 00 00 	movl   $0x65,0xb70(%rsp)
  405ca7:	65 00 00 00 
  405cab:	48 c7 84 24 a8 0b 00 	movq   $0x406a84,0xba8(%rsp)
  405cb2:	00 84 6a 40 00 
  405cb7:	c7 84 24 b0 0b 00 00 	movl   $0x1a,0xbb0(%rsp)
  405cbe:	1a 00 00 00 
  405cc2:	c7 84 24 60 0b 00 00 	movl   $0x1000,0xb60(%rsp)
  405cc9:	00 10 00 00 
  405ccd:	c7 84 24 64 0b 00 00 	movl   $0x6,0xb64(%rsp)
  405cd4:	06 00 00 00 
  405cd8:	e8 73 b1 ff ff       	callq  400e50 <_gfortran_st_write@plt>
  405cdd:	8b 94 24 e8 31 00 00 	mov    0x31e8(%rsp),%edx
  405ce4:	48 8b b4 24 88 31 00 	mov    0x3188(%rsp),%rsi
  405ceb:	00 
  405cec:	48 89 df             	mov    %rbx,%rdi
  405cef:	e8 1c b1 ff ff       	callq  400e10 <_gfortran_transfer_character@plt>
  405cf4:	48 89 df             	mov    %rbx,%rdi
  405cf7:	48 8d 9c 24 80 09 00 	lea    0x980(%rsp),%rbx
  405cfe:	00 
  405cff:	e8 3c b0 ff ff       	callq  400d40 <_gfortran_st_write_done@plt>
  405d04:	48 89 df             	mov    %rbx,%rdi
  405d07:	48 c7 84 24 88 09 00 	movq   $0x406788,0x988(%rsp)
  405d0e:	00 88 67 40 00 
  405d13:	c7 84 24 90 09 00 00 	movl   $0x68,0x990(%rsp)
  405d1a:	68 00 00 00 
  405d1e:	48 c7 84 24 c8 09 00 	movq   $0x406a9e,0x9c8(%rsp)
  405d25:	00 9e 6a 40 00 
  405d2a:	c7 84 24 d0 09 00 00 	movl   $0x1a,0x9d0(%rsp)
  405d31:	1a 00 00 00 
  405d35:	c7 84 24 80 09 00 00 	movl   $0x1000,0x980(%rsp)
  405d3c:	00 10 00 00 
  405d40:	c7 84 24 84 09 00 00 	movl   $0x6,0x984(%rsp)
  405d47:	06 00 00 00 
  405d4b:	e8 00 b1 ff ff       	callq  400e50 <_gfortran_st_write@plt>
  405d50:	8b 94 24 f0 31 00 00 	mov    0x31f0(%rsp),%edx
  405d57:	48 8b b4 24 90 31 00 	mov    0x3190(%rsp),%rsi
  405d5e:	00 
  405d5f:	48 89 df             	mov    %rbx,%rdi
  405d62:	e8 a9 b0 ff ff       	callq  400e10 <_gfortran_transfer_character@plt>
  405d67:	48 89 df             	mov    %rbx,%rdi
  405d6a:	48 8d 9c 24 a0 07 00 	lea    0x7a0(%rsp),%rbx
  405d71:	00 
  405d72:	e8 c9 af ff ff       	callq  400d40 <_gfortran_st_write_done@plt>
  405d77:	48 89 df             	mov    %rbx,%rdi
  405d7a:	48 c7 84 24 a8 07 00 	movq   $0x406788,0x7a8(%rsp)
  405d81:	00 88 67 40 00 
  405d86:	c7 84 24 b0 07 00 00 	movl   $0x6b,0x7b0(%rsp)
  405d8d:	6b 00 00 00 
  405d91:	48 c7 84 24 e8 07 00 	movq   $0x406ab8,0x7e8(%rsp)
  405d98:	00 b8 6a 40 00 
  405d9d:	c7 84 24 f0 07 00 00 	movl   $0x1a,0x7f0(%rsp)
  405da4:	1a 00 00 00 
  405da8:	c7 84 24 a0 07 00 00 	movl   $0x1000,0x7a0(%rsp)
  405daf:	00 10 00 00 
  405db3:	c7 84 24 a4 07 00 00 	movl   $0x6,0x7a4(%rsp)
  405dba:	06 00 00 00 
  405dbe:	e8 8d b0 ff ff       	callq  400e50 <_gfortran_st_write@plt>
  405dc3:	8b 94 24 f8 31 00 00 	mov    0x31f8(%rsp),%edx
  405dca:	48 8b b4 24 98 31 00 	mov    0x3198(%rsp),%rsi
  405dd1:	00 
  405dd2:	48 89 df             	mov    %rbx,%rdi
  405dd5:	e8 36 b0 ff ff       	callq  400e10 <_gfortran_transfer_character@plt>
  405dda:	48 89 df             	mov    %rbx,%rdi
  405ddd:	48 8d 9c 24 c0 05 00 	lea    0x5c0(%rsp),%rbx
  405de4:	00 
  405de5:	e8 56 af ff ff       	callq  400d40 <_gfortran_st_write_done@plt>
  405dea:	48 89 df             	mov    %rbx,%rdi
  405ded:	48 c7 84 24 c8 05 00 	movq   $0x406788,0x5c8(%rsp)
  405df4:	00 88 67 40 00 
  405df9:	c7 84 24 d0 05 00 00 	movl   $0x6e,0x5d0(%rsp)
  405e00:	6e 00 00 00 
  405e04:	48 c7 84 24 08 06 00 	movq   $0x406ad2,0x608(%rsp)
  405e0b:	00 d2 6a 40 00 
  405e10:	c7 84 24 10 06 00 00 	movl   $0x1a,0x610(%rsp)
  405e17:	1a 00 00 00 
  405e1b:	c7 84 24 c0 05 00 00 	movl   $0x1000,0x5c0(%rsp)
  405e22:	00 10 00 00 
  405e26:	c7 84 24 c4 05 00 00 	movl   $0x6,0x5c4(%rsp)
  405e2d:	06 00 00 00 
  405e31:	e8 1a b0 ff ff       	callq  400e50 <_gfortran_st_write@plt>
  405e36:	8b 94 24 00 32 00 00 	mov    0x3200(%rsp),%edx
  405e3d:	48 8b b4 24 a0 31 00 	mov    0x31a0(%rsp),%rsi
  405e44:	00 
  405e45:	48 89 df             	mov    %rbx,%rdi
  405e48:	e8 c3 af ff ff       	callq  400e10 <_gfortran_transfer_character@plt>
  405e4d:	48 89 df             	mov    %rbx,%rdi
  405e50:	48 8d 9c 24 e0 03 00 	lea    0x3e0(%rsp),%rbx
  405e57:	00 
  405e58:	e8 e3 ae ff ff       	callq  400d40 <_gfortran_st_write_done@plt>
  405e5d:	48 89 df             	mov    %rbx,%rdi
  405e60:	48 c7 84 24 e8 03 00 	movq   $0x406788,0x3e8(%rsp)
  405e67:	00 88 67 40 00 
  405e6c:	c7 84 24 f0 03 00 00 	movl   $0x71,0x3f0(%rsp)
  405e73:	71 00 00 00 
  405e77:	48 c7 84 24 28 04 00 	movq   $0x406aec,0x428(%rsp)
  405e7e:	00 ec 6a 40 00 
  405e83:	c7 84 24 30 04 00 00 	movl   $0x1a,0x430(%rsp)
  405e8a:	1a 00 00 00 
  405e8e:	c7 84 24 e0 03 00 00 	movl   $0x1000,0x3e0(%rsp)
  405e95:	00 10 00 00 
  405e99:	c7 84 24 e4 03 00 00 	movl   $0x6,0x3e4(%rsp)
  405ea0:	06 00 00 00 
  405ea4:	e8 a7 af ff ff       	callq  400e50 <_gfortran_st_write@plt>
  405ea9:	8b 94 24 08 32 00 00 	mov    0x3208(%rsp),%edx
  405eb0:	48 8b b4 24 a8 31 00 	mov    0x31a8(%rsp),%rsi
  405eb7:	00 
  405eb8:	48 89 df             	mov    %rbx,%rdi
  405ebb:	e8 50 af ff ff       	callq  400e10 <_gfortran_transfer_character@plt>
  405ec0:	48 89 df             	mov    %rbx,%rdi
  405ec3:	48 8d 9c 24 00 02 00 	lea    0x200(%rsp),%rbx
  405eca:	00 
  405ecb:	e8 70 ae ff ff       	callq  400d40 <_gfortran_st_write_done@plt>
  405ed0:	48 89 df             	mov    %rbx,%rdi
  405ed3:	48 c7 84 24 08 02 00 	movq   $0x406788,0x208(%rsp)
  405eda:	00 88 67 40 00 
  405edf:	c7 84 24 10 02 00 00 	movl   $0x74,0x210(%rsp)
  405ee6:	74 00 00 00 
  405eea:	48 c7 84 24 48 02 00 	movq   $0x406b06,0x248(%rsp)
  405ef1:	00 06 6b 40 00 
  405ef6:	c7 84 24 50 02 00 00 	movl   $0x1a,0x250(%rsp)
  405efd:	1a 00 00 00 
  405f01:	c7 84 24 00 02 00 00 	movl   $0x1000,0x200(%rsp)
  405f08:	00 10 00 00 
  405f0c:	c7 84 24 04 02 00 00 	movl   $0x6,0x204(%rsp)
  405f13:	06 00 00 00 
  405f17:	e8 34 af ff ff       	callq  400e50 <_gfortran_st_write@plt>
  405f1c:	8b 94 24 10 32 00 00 	mov    0x3210(%rsp),%edx
  405f23:	48 8b b4 24 b0 31 00 	mov    0x31b0(%rsp),%rsi
  405f2a:	00 
  405f2b:	48 89 df             	mov    %rbx,%rdi
  405f2e:	e8 dd ae ff ff       	callq  400e10 <_gfortran_transfer_character@plt>
  405f33:	48 89 df             	mov    %rbx,%rdi
  405f36:	48 8d 5c 24 20       	lea    0x20(%rsp),%rbx
  405f3b:	e8 00 ae ff ff       	callq  400d40 <_gfortran_st_write_done@plt>
  405f40:	48 89 df             	mov    %rbx,%rdi
  405f43:	48 c7 44 24 28 88 67 	movq   $0x406788,0x28(%rsp)
  405f4a:	40 00 
  405f4c:	c7 44 24 30 77 00 00 	movl   $0x77,0x30(%rsp)
  405f53:	00 
  405f54:	48 c7 44 24 68 20 6b 	movq   $0x406b20,0x68(%rsp)
  405f5b:	40 00 
  405f5d:	c7 44 24 70 9d 00 00 	movl   $0x9d,0x70(%rsp)
  405f64:	00 
  405f65:	c7 44 24 20 00 10 00 	movl   $0x1000,0x20(%rsp)
  405f6c:	00 
  405f6d:	c7 44 24 24 06 00 00 	movl   $0x6,0x24(%rsp)
  405f74:	00 
  405f75:	e8 d6 ae ff ff       	callq  400e50 <_gfortran_st_write@plt>
  405f7a:	48 89 df             	mov    %rbx,%rdi
  405f7d:	e8 be ad ff ff       	callq  400d40 <_gfortran_st_write_done@plt>
  405f82:	48 81 c4 18 31 00 00 	add    $0x3118,%rsp
  405f89:	5b                   	pop    %rbx
  405f8a:	5d                   	pop    %rbp
  405f8b:	41 5c                	pop    %r12
  405f8d:	41 5d                	pop    %r13
