
ft.S.16:     file format elf64-x86-64


Disassembly of section .init:

0000000000402c28 <_init>:
  402c28:	48 83 ec 08          	sub    $0x8,%rsp
  402c2c:	e8 7b 03 00 00       	callq  402fac <call_gmon_start>
  402c31:	e8 0a 04 00 00       	callq  403040 <frame_dummy>
  402c36:	e8 a5 9a 00 00       	callq  40c6e0 <__do_global_ctors_aux>
  402c3b:	48 83 c4 08          	add    $0x8,%rsp
  402c3f:	c3                   	retq   

Disassembly of section .plt:

0000000000402c40 <PMPI_Irecv@plt-0x10>:
  402c40:	ff 35 42 b6 20 00    	pushq  0x20b642(%rip)        # 60e288 <_GLOBAL_OFFSET_TABLE_+0x8>
  402c46:	ff 25 44 b6 20 00    	jmpq   *0x20b644(%rip)        # 60e290 <_GLOBAL_OFFSET_TABLE_+0x10>
  402c4c:	0f 1f 40 00          	nopl   0x0(%rax)

0000000000402c50 <PMPI_Irecv@plt>:
  402c50:	ff 25 42 b6 20 00    	jmpq   *0x20b642(%rip)        # 60e298 <_GLOBAL_OFFSET_TABLE_+0x18>
  402c56:	68 00 00 00 00       	pushq  $0x0
  402c5b:	e9 e0 ff ff ff       	jmpq   402c40 <_init+0x18>

0000000000402c60 <PMPI_Finalize@plt>:
  402c60:	ff 25 3a b6 20 00    	jmpq   *0x20b63a(%rip)        # 60e2a0 <_GLOBAL_OFFSET_TABLE_+0x20>
  402c66:	68 01 00 00 00       	pushq  $0x1
  402c6b:	e9 d0 ff ff ff       	jmpq   402c40 <_init+0x18>

0000000000402c70 <_gfortran_transfer_real@plt>:
  402c70:	ff 25 32 b6 20 00    	jmpq   *0x20b632(%rip)        # 60e2a8 <_GLOBAL_OFFSET_TABLE_+0x28>
  402c76:	68 02 00 00 00       	pushq  $0x2
  402c7b:	e9 c0 ff ff ff       	jmpq   402c40 <_init+0x18>

0000000000402c80 <PMPI_Waitall@plt>:
  402c80:	ff 25 2a b6 20 00    	jmpq   *0x20b62a(%rip)        # 60e2b0 <_GLOBAL_OFFSET_TABLE_+0x30>
  402c86:	68 03 00 00 00       	pushq  $0x3
  402c8b:	e9 b0 ff ff ff       	jmpq   402c40 <_init+0x18>

0000000000402c90 <mpi_abort_@plt>:
  402c90:	ff 25 22 b6 20 00    	jmpq   *0x20b622(%rip)        # 60e2b8 <_GLOBAL_OFFSET_TABLE_+0x38>
  402c96:	68 04 00 00 00       	pushq  $0x4
  402c9b:	e9 a0 ff ff ff       	jmpq   402c40 <_init+0x18>

0000000000402ca0 <PMPI_Send@plt>:
  402ca0:	ff 25 1a b6 20 00    	jmpq   *0x20b61a(%rip)        # 60e2c0 <_GLOBAL_OFFSET_TABLE_+0x40>
  402ca6:	68 05 00 00 00       	pushq  $0x5
  402cab:	e9 90 ff ff ff       	jmpq   402c40 <_init+0x18>

0000000000402cb0 <PMPI_Allreduce@plt>:
  402cb0:	ff 25 12 b6 20 00    	jmpq   *0x20b612(%rip)        # 60e2c8 <_GLOBAL_OFFSET_TABLE_+0x48>
  402cb6:	68 06 00 00 00       	pushq  $0x6
  402cbb:	e9 80 ff ff ff       	jmpq   402c40 <_init+0x18>

0000000000402cc0 <mpi_bcast_@plt>:
  402cc0:	ff 25 0a b6 20 00    	jmpq   *0x20b60a(%rip)        # 60e2d0 <_GLOBAL_OFFSET_TABLE_+0x50>
  402cc6:	68 07 00 00 00       	pushq  $0x7
  402ccb:	e9 70 ff ff ff       	jmpq   402c40 <_init+0x18>

0000000000402cd0 <PMPI_Reduce@plt>:
  402cd0:	ff 25 02 b6 20 00    	jmpq   *0x20b602(%rip)        # 60e2d8 <_GLOBAL_OFFSET_TABLE_+0x58>
  402cd6:	68 08 00 00 00       	pushq  $0x8
  402cdb:	e9 60 ff ff ff       	jmpq   402c40 <_init+0x18>

0000000000402ce0 <mpi_alltoall_@plt>:
  402ce0:	ff 25 fa b5 20 00    	jmpq   *0x20b5fa(%rip)        # 60e2e0 <_GLOBAL_OFFSET_TABLE_+0x60>
  402ce6:	68 09 00 00 00       	pushq  $0x9
  402ceb:	e9 50 ff ff ff       	jmpq   402c40 <_init+0x18>

0000000000402cf0 <_gfortran_compare_string@plt>:
  402cf0:	ff 25 f2 b5 20 00    	jmpq   *0x20b5f2(%rip)        # 60e2e8 <_GLOBAL_OFFSET_TABLE_+0x68>
  402cf6:	68 0a 00 00 00       	pushq  $0xa
  402cfb:	e9 40 ff ff ff       	jmpq   402c40 <_init+0x18>

0000000000402d00 <PMPI_Init@plt>:
  402d00:	ff 25 ea b5 20 00    	jmpq   *0x20b5ea(%rip)        # 60e2f0 <_GLOBAL_OFFSET_TABLE_+0x70>
  402d06:	68 0b 00 00 00       	pushq  $0xb
  402d0b:	e9 30 ff ff ff       	jmpq   402c40 <_init+0x18>

0000000000402d10 <sincos@plt>:
  402d10:	ff 25 e2 b5 20 00    	jmpq   *0x20b5e2(%rip)        # 60e2f8 <_GLOBAL_OFFSET_TABLE_+0x78>
  402d16:	68 0c 00 00 00       	pushq  $0xc
  402d1b:	e9 20 ff ff ff       	jmpq   402c40 <_init+0x18>

0000000000402d20 <mpi_comm_size_@plt>:
  402d20:	ff 25 da b5 20 00    	jmpq   *0x20b5da(%rip)        # 60e300 <_GLOBAL_OFFSET_TABLE_+0x80>
  402d26:	68 0d 00 00 00       	pushq  $0xd
  402d2b:	e9 10 ff ff ff       	jmpq   402c40 <_init+0x18>

0000000000402d30 <mpi_barrier_@plt>:
  402d30:	ff 25 d2 b5 20 00    	jmpq   *0x20b5d2(%rip)        # 60e308 <_GLOBAL_OFFSET_TABLE_+0x88>
  402d36:	68 0e 00 00 00       	pushq  $0xe
  402d3b:	e9 00 ff ff ff       	jmpq   402c40 <_init+0x18>

0000000000402d40 <mpi_init_@plt>:
  402d40:	ff 25 ca b5 20 00    	jmpq   *0x20b5ca(%rip)        # 60e310 <_GLOBAL_OFFSET_TABLE_+0x90>
  402d46:	68 0f 00 00 00       	pushq  $0xf
  402d4b:	e9 f0 fe ff ff       	jmpq   402c40 <_init+0x18>

0000000000402d50 <mpi_wtime_@plt>:
  402d50:	ff 25 c2 b5 20 00    	jmpq   *0x20b5c2(%rip)        # 60e318 <_GLOBAL_OFFSET_TABLE_+0x98>
  402d56:	68 10 00 00 00       	pushq  $0x10
  402d5b:	e9 e0 fe ff ff       	jmpq   402c40 <_init+0x18>

0000000000402d60 <_gfortran_transfer_complex@plt>:
  402d60:	ff 25 ba b5 20 00    	jmpq   *0x20b5ba(%rip)        # 60e320 <_GLOBAL_OFFSET_TABLE_+0xa0>
  402d66:	68 11 00 00 00       	pushq  $0x11
  402d6b:	e9 d0 fe ff ff       	jmpq   402c40 <_init+0x18>

0000000000402d70 <_gfortran_set_args@plt>:
  402d70:	ff 25 b2 b5 20 00    	jmpq   *0x20b5b2(%rip)        # 60e328 <_GLOBAL_OFFSET_TABLE_+0xa8>
  402d76:	68 12 00 00 00       	pushq  $0x12
  402d7b:	e9 c0 fe ff ff       	jmpq   402c40 <_init+0x18>

0000000000402d80 <_gfortran_transfer_integer@plt>:
  402d80:	ff 25 aa b5 20 00    	jmpq   *0x20b5aa(%rip)        # 60e330 <_GLOBAL_OFFSET_TABLE_+0xb0>
  402d86:	68 13 00 00 00       	pushq  $0x13
  402d8b:	e9 b0 fe ff ff       	jmpq   402c40 <_init+0x18>

0000000000402d90 <_gfortran_st_read_done@plt>:
  402d90:	ff 25 a2 b5 20 00    	jmpq   *0x20b5a2(%rip)        # 60e338 <_GLOBAL_OFFSET_TABLE_+0xb8>
  402d96:	68 14 00 00 00       	pushq  $0x14
  402d9b:	e9 a0 fe ff ff       	jmpq   402c40 <_init+0x18>

0000000000402da0 <PMPI_Barrier@plt>:
  402da0:	ff 25 9a b5 20 00    	jmpq   *0x20b59a(%rip)        # 60e340 <_GLOBAL_OFFSET_TABLE_+0xc0>
  402da6:	68 15 00 00 00       	pushq  $0x15
  402dab:	e9 90 fe ff ff       	jmpq   402c40 <_init+0x18>

0000000000402db0 <mpi_comm_split_@plt>:
  402db0:	ff 25 92 b5 20 00    	jmpq   *0x20b592(%rip)        # 60e348 <_GLOBAL_OFFSET_TABLE_+0xc8>
  402db6:	68 16 00 00 00       	pushq  $0x16
  402dbb:	e9 80 fe ff ff       	jmpq   402c40 <_init+0x18>

0000000000402dc0 <_gfortran_st_write@plt>:
  402dc0:	ff 25 8a b5 20 00    	jmpq   *0x20b58a(%rip)        # 60e350 <_GLOBAL_OFFSET_TABLE_+0xd0>
  402dc6:	68 17 00 00 00       	pushq  $0x17
  402dcb:	e9 70 fe ff ff       	jmpq   402c40 <_init+0x18>

0000000000402dd0 <PMPI_Allgather@plt>:
  402dd0:	ff 25 82 b5 20 00    	jmpq   *0x20b582(%rip)        # 60e358 <_GLOBAL_OFFSET_TABLE_+0xd8>
  402dd6:	68 18 00 00 00       	pushq  $0x18
  402ddb:	e9 60 fe ff ff       	jmpq   402c40 <_init+0x18>

0000000000402de0 <PMPI_Wait@plt>:
  402de0:	ff 25 7a b5 20 00    	jmpq   *0x20b57a(%rip)        # 60e360 <_GLOBAL_OFFSET_TABLE_+0xe0>
  402de6:	68 19 00 00 00       	pushq  $0x19
  402deb:	e9 50 fe ff ff       	jmpq   402c40 <_init+0x18>

0000000000402df0 <mpi_finalize_@plt>:
  402df0:	ff 25 72 b5 20 00    	jmpq   *0x20b572(%rip)        # 60e368 <_GLOBAL_OFFSET_TABLE_+0xe8>
  402df6:	68 1a 00 00 00       	pushq  $0x1a
  402dfb:	e9 40 fe ff ff       	jmpq   402c40 <_init+0x18>

0000000000402e00 <MPI_Comm_size@plt>:
  402e00:	ff 25 6a b5 20 00    	jmpq   *0x20b56a(%rip)        # 60e370 <_GLOBAL_OFFSET_TABLE_+0xf0>
  402e06:	68 1b 00 00 00       	pushq  $0x1b
  402e0b:	e9 30 fe ff ff       	jmpq   402c40 <_init+0x18>

0000000000402e10 <exit@plt>:
  402e10:	ff 25 62 b5 20 00    	jmpq   *0x20b562(%rip)        # 60e378 <_GLOBAL_OFFSET_TABLE_+0xf8>
  402e16:	68 1c 00 00 00       	pushq  $0x1c
  402e1b:	e9 20 fe ff ff       	jmpq   402c40 <_init+0x18>

0000000000402e20 <PMPI_Bcast@plt>:
  402e20:	ff 25 5a b5 20 00    	jmpq   *0x20b55a(%rip)        # 60e380 <_GLOBAL_OFFSET_TABLE_+0x100>
  402e26:	68 1d 00 00 00       	pushq  $0x1d
  402e2b:	e9 10 fe ff ff       	jmpq   402c40 <_init+0x18>

0000000000402e30 <_gfortran_stop_numeric@plt>:
  402e30:	ff 25 52 b5 20 00    	jmpq   *0x20b552(%rip)        # 60e388 <_GLOBAL_OFFSET_TABLE_+0x108>
  402e36:	68 1e 00 00 00       	pushq  $0x1e
  402e3b:	e9 00 fe ff ff       	jmpq   402c40 <_init+0x18>

0000000000402e40 <_gfortran_st_close@plt>:
  402e40:	ff 25 4a b5 20 00    	jmpq   *0x20b54a(%rip)        # 60e390 <_GLOBAL_OFFSET_TABLE_+0x110>
  402e46:	68 1f 00 00 00       	pushq  $0x1f
  402e4b:	e9 f0 fd ff ff       	jmpq   402c40 <_init+0x18>

0000000000402e50 <exp@plt>:
  402e50:	ff 25 42 b5 20 00    	jmpq   *0x20b542(%rip)        # 60e398 <_GLOBAL_OFFSET_TABLE_+0x118>
  402e56:	68 20 00 00 00       	pushq  $0x20
  402e5b:	e9 e0 fd ff ff       	jmpq   402c40 <_init+0x18>

0000000000402e60 <PMPI_Recv@plt>:
  402e60:	ff 25 3a b5 20 00    	jmpq   *0x20b53a(%rip)        # 60e3a0 <_GLOBAL_OFFSET_TABLE_+0x120>
  402e66:	68 21 00 00 00       	pushq  $0x21
  402e6b:	e9 d0 fd ff ff       	jmpq   402c40 <_init+0x18>

0000000000402e70 <_gfortran_st_read@plt>:
  402e70:	ff 25 32 b5 20 00    	jmpq   *0x20b532(%rip)        # 60e3a8 <_GLOBAL_OFFSET_TABLE_+0x128>
  402e76:	68 22 00 00 00       	pushq  $0x22
  402e7b:	e9 c0 fd ff ff       	jmpq   402c40 <_init+0x18>

0000000000402e80 <MPI_Comm_rank@plt>:
  402e80:	ff 25 2a b5 20 00    	jmpq   *0x20b52a(%rip)        # 60e3b0 <_GLOBAL_OFFSET_TABLE_+0x130>
  402e86:	68 23 00 00 00       	pushq  $0x23
  402e8b:	e9 b0 fd ff ff       	jmpq   402c40 <_init+0x18>

0000000000402e90 <fprintf@plt>:
  402e90:	ff 25 22 b5 20 00    	jmpq   *0x20b522(%rip)        # 60e3b8 <_GLOBAL_OFFSET_TABLE_+0x138>
  402e96:	68 24 00 00 00       	pushq  $0x24
  402e9b:	e9 a0 fd ff ff       	jmpq   402c40 <_init+0x18>

0000000000402ea0 <mpi_comm_rank_@plt>:
  402ea0:	ff 25 1a b5 20 00    	jmpq   *0x20b51a(%rip)        # 60e3c0 <_GLOBAL_OFFSET_TABLE_+0x140>
  402ea6:	68 25 00 00 00       	pushq  $0x25
  402eab:	e9 90 fd ff ff       	jmpq   402c40 <_init+0x18>

0000000000402eb0 <mpi_reduce_@plt>:
  402eb0:	ff 25 12 b5 20 00    	jmpq   *0x20b512(%rip)        # 60e3c8 <_GLOBAL_OFFSET_TABLE_+0x148>
  402eb6:	68 26 00 00 00       	pushq  $0x26
  402ebb:	e9 80 fd ff ff       	jmpq   402c40 <_init+0x18>

0000000000402ec0 <_gfortran_pow_i4_i4@plt>:
  402ec0:	ff 25 0a b5 20 00    	jmpq   *0x20b50a(%rip)        # 60e3d0 <_GLOBAL_OFFSET_TABLE_+0x150>
  402ec6:	68 27 00 00 00       	pushq  $0x27
  402ecb:	e9 70 fd ff ff       	jmpq   402c40 <_init+0x18>

0000000000402ed0 <_gfortran_set_options@plt>:
  402ed0:	ff 25 02 b5 20 00    	jmpq   *0x20b502(%rip)        # 60e3d8 <_GLOBAL_OFFSET_TABLE_+0x158>
  402ed6:	68 28 00 00 00       	pushq  $0x28
  402edb:	e9 60 fd ff ff       	jmpq   402c40 <_init+0x18>

0000000000402ee0 <_gfortran_store_exe_path@plt>:
  402ee0:	ff 25 fa b4 20 00    	jmpq   *0x20b4fa(%rip)        # 60e3e0 <_GLOBAL_OFFSET_TABLE_+0x160>
  402ee6:	68 29 00 00 00       	pushq  $0x29
  402eeb:	e9 50 fd ff ff       	jmpq   402c40 <_init+0x18>

0000000000402ef0 <PMPI_Alltoall@plt>:
  402ef0:	ff 25 f2 b4 20 00    	jmpq   *0x20b4f2(%rip)        # 60e3e8 <_GLOBAL_OFFSET_TABLE_+0x168>
  402ef6:	68 2a 00 00 00       	pushq  $0x2a
  402efb:	e9 40 fd ff ff       	jmpq   402c40 <_init+0x18>

0000000000402f00 <_gfortran_transfer_character@plt>:
  402f00:	ff 25 ea b4 20 00    	jmpq   *0x20b4ea(%rip)        # 60e3f0 <_GLOBAL_OFFSET_TABLE_+0x170>
  402f06:	68 2b 00 00 00       	pushq  $0x2b
  402f0b:	e9 30 fd ff ff       	jmpq   402c40 <_init+0x18>

0000000000402f10 <_gfortran_st_write_done@plt>:
  402f10:	ff 25 e2 b4 20 00    	jmpq   *0x20b4e2(%rip)        # 60e3f8 <_GLOBAL_OFFSET_TABLE_+0x178>
  402f16:	68 2c 00 00 00       	pushq  $0x2c
  402f1b:	e9 20 fd ff ff       	jmpq   402c40 <_init+0x18>

0000000000402f20 <_gfortran_st_open@plt>:
  402f20:	ff 25 da b4 20 00    	jmpq   *0x20b4da(%rip)        # 60e400 <_GLOBAL_OFFSET_TABLE_+0x180>
  402f26:	68 2d 00 00 00       	pushq  $0x2d
  402f2b:	e9 10 fd ff ff       	jmpq   402c40 <_init+0x18>

0000000000402f30 <__powidf2@plt>:
  402f30:	ff 25 d2 b4 20 00    	jmpq   *0x20b4d2(%rip)        # 60e408 <_GLOBAL_OFFSET_TABLE_+0x188>
  402f36:	68 2e 00 00 00       	pushq  $0x2e
  402f3b:	e9 00 fd ff ff       	jmpq   402c40 <_init+0x18>

0000000000402f40 <cabs@plt>:
  402f40:	ff 25 ca b4 20 00    	jmpq   *0x20b4ca(%rip)        # 60e410 <_GLOBAL_OFFSET_TABLE_+0x190>
  402f46:	68 2f 00 00 00       	pushq  $0x2f
  402f4b:	e9 f0 fc ff ff       	jmpq   402c40 <_init+0x18>

0000000000402f50 <__libc_start_main@plt>:
  402f50:	ff 25 c2 b4 20 00    	jmpq   *0x20b4c2(%rip)        # 60e418 <_GLOBAL_OFFSET_TABLE_+0x198>
  402f56:	68 30 00 00 00       	pushq  $0x30
  402f5b:	e9 e0 fc ff ff       	jmpq   402c40 <_init+0x18>

0000000000402f60 <fwrite@plt>:
  402f60:	ff 25 ba b4 20 00    	jmpq   *0x20b4ba(%rip)        # 60e420 <_GLOBAL_OFFSET_TABLE_+0x1a0>
  402f66:	68 31 00 00 00       	pushq  $0x31
  402f6b:	e9 d0 fc ff ff       	jmpq   402c40 <_init+0x18>

0000000000402f70 <PMPI_Isend@plt>:
  402f70:	ff 25 b2 b4 20 00    	jmpq   *0x20b4b2(%rip)        # 60e428 <_GLOBAL_OFFSET_TABLE_+0x1a8>
  402f76:	68 32 00 00 00       	pushq  $0x32
  402f7b:	e9 c0 fc ff ff       	jmpq   402c40 <_init+0x18>

Disassembly of section .text:

0000000000402f80 <_start>:
  402f80:	31 ed                	xor    %ebp,%ebp
  402f82:	49 89 d1             	mov    %rdx,%r9
  402f85:	5e                   	pop    %rsi
  402f86:	48 89 e2             	mov    %rsp,%rdx
  402f89:	48 83 e4 f0          	and    $0xfffffffffffffff0,%rsp
  402f8d:	50                   	push   %rax
  402f8e:	54                   	push   %rsp
  402f8f:	49 c7 c0 40 c6 40 00 	mov    $0x40c640,%r8
  402f96:	48 c7 c1 50 c6 40 00 	mov    $0x40c650,%rcx
  402f9d:	48 c7 c7 70 30 40 00 	mov    $0x403070,%rdi
  402fa4:	e8 a7 ff ff ff       	callq  402f50 <__libc_start_main@plt>
  402fa9:	f4                   	hlt    
  402faa:	90                   	nop
  402fab:	90                   	nop

0000000000402fac <call_gmon_start>:
  402fac:	48 83 ec 08          	sub    $0x8,%rsp
  402fb0:	48 8b 05 c1 b2 20 00 	mov    0x20b2c1(%rip),%rax        # 60e278 <_DYNAMIC+0x250>
  402fb7:	48 85 c0             	test   %rax,%rax
  402fba:	74 02                	je     402fbe <call_gmon_start+0x12>
  402fbc:	ff d0                	callq  *%rax
  402fbe:	48 83 c4 08          	add    $0x8,%rsp
  402fc2:	c3                   	retq   
  402fc3:	90                   	nop
  402fc4:	90                   	nop
  402fc5:	90                   	nop
  402fc6:	90                   	nop
  402fc7:	90                   	nop
  402fc8:	90                   	nop
  402fc9:	90                   	nop
  402fca:	90                   	nop
  402fcb:	90                   	nop
  402fcc:	90                   	nop
  402fcd:	90                   	nop
  402fce:	90                   	nop
  402fcf:	90                   	nop

0000000000402fd0 <__do_global_dtors_aux>:
  402fd0:	55                   	push   %rbp
  402fd1:	48 89 e5             	mov    %rsp,%rbp
  402fd4:	53                   	push   %rbx
  402fd5:	48 83 ec 08          	sub    $0x8,%rsp
  402fd9:	80 3d 80 f8 20 00 00 	cmpb   $0x0,0x20f880(%rip)        # 612860 <completed.6312>
  402fe0:	75 4b                	jne    40302d <__do_global_dtors_aux+0x5d>
  402fe2:	bb 18 e0 60 00       	mov    $0x60e018,%ebx
  402fe7:	48 8b 05 7a f8 20 00 	mov    0x20f87a(%rip),%rax        # 612868 <dtor_idx.6314>
  402fee:	48 81 eb 10 e0 60 00 	sub    $0x60e010,%rbx
  402ff5:	48 c1 fb 03          	sar    $0x3,%rbx
  402ff9:	48 83 eb 01          	sub    $0x1,%rbx
  402ffd:	48 39 d8             	cmp    %rbx,%rax
  403000:	73 24                	jae    403026 <__do_global_dtors_aux+0x56>
  403002:	66 0f 1f 44 00 00    	nopw   0x0(%rax,%rax,1)
  403008:	48 83 c0 01          	add    $0x1,%rax
  40300c:	48 89 05 55 f8 20 00 	mov    %rax,0x20f855(%rip)        # 612868 <dtor_idx.6314>
  403013:	ff 14 c5 10 e0 60 00 	callq  *0x60e010(,%rax,8)
  40301a:	48 8b 05 47 f8 20 00 	mov    0x20f847(%rip),%rax        # 612868 <dtor_idx.6314>
  403021:	48 39 d8             	cmp    %rbx,%rax
  403024:	72 e2                	jb     403008 <__do_global_dtors_aux+0x38>
  403026:	c6 05 33 f8 20 00 01 	movb   $0x1,0x20f833(%rip)        # 612860 <completed.6312>
  40302d:	48 83 c4 08          	add    $0x8,%rsp
  403031:	5b                   	pop    %rbx
  403032:	c9                   	leaveq 
  403033:	c3                   	retq   
  403034:	66 66 66 2e 0f 1f 84 	data32 data32 nopw %cs:0x0(%rax,%rax,1)
  40303b:	00 00 00 00 00 

0000000000403040 <frame_dummy>:
  403040:	55                   	push   %rbp
  403041:	48 83 3d d7 af 20 00 	cmpq   $0x0,0x20afd7(%rip)        # 60e020 <__JCR_END__>
  403048:	00 
  403049:	48 89 e5             	mov    %rsp,%rbp
  40304c:	74 12                	je     403060 <frame_dummy+0x20>
  40304e:	b8 00 00 00 00       	mov    $0x0,%eax
  403053:	48 85 c0             	test   %rax,%rax
  403056:	74 08                	je     403060 <frame_dummy+0x20>
  403058:	bf 20 e0 60 00       	mov    $0x60e020,%edi
  40305d:	c9                   	leaveq 
  40305e:	ff e0                	jmpq   *%rax
  403060:	c9                   	leaveq 
  403061:	c3                   	retq   
  403062:	90                   	nop
  403063:	90                   	nop
  403064:	90                   	nop
  403065:	90                   	nop
  403066:	90                   	nop
  403067:	90                   	nop
  403068:	90                   	nop
  403069:	90                   	nop
  40306a:	90                   	nop
  40306b:	90                   	nop
  40306c:	90                   	nop
  40306d:	90                   	nop
  40306e:	90                   	nop
  40306f:	90                   	nop

0000000000403070 <main>:
  403070:	48 89 5c 24 f0       	mov    %rbx,-0x10(%rsp)
  403075:	48 89 6c 24 f8       	mov    %rbp,-0x8(%rsp)
  40307a:	89 fb                	mov    %edi,%ebx
  40307c:	48 83 ec 18          	sub    $0x18,%rsp
  403080:	48 8b 3e             	mov    (%rsi),%rdi
  403083:	48 89 f5             	mov    %rsi,%rbp
  403086:	e8 55 fe ff ff       	callq  402ee0 <_gfortran_store_exe_path@plt>
  40308b:	48 89 ee             	mov    %rbp,%rsi
  40308e:	89 df                	mov    %ebx,%edi
  403090:	e8 db fc ff ff       	callq  402d70 <_gfortran_set_args@plt>
  403095:	e8 c6 64 00 00       	callq  409560 <MAIN__>
  40309a:	31 c0                	xor    %eax,%eax
  40309c:	48 8b 5c 24 08       	mov    0x8(%rsp),%rbx
  4030a1:	48 8b 6c 24 10       	mov    0x10(%rsp),%rbp
  4030a6:	48 83 c4 18          	add    $0x18,%rsp
  4030aa:	c3                   	retq   
  4030ab:	90                   	nop
  4030ac:	90                   	nop
  4030ad:	90                   	nop
  4030ae:	90                   	nop
  4030af:	90                   	nop

00000000004030b0 <evolve_>:
  4030b0:	41 57                	push   %r15
  4030b2:	41 56                	push   %r14
  4030b4:	41 55                	push   %r13
  4030b6:	41 54                	push   %r12
  4030b8:	55                   	push   %rbp
  4030b9:	53                   	push   %rbx
  4030ba:	8b 01                	mov    (%rcx),%eax
  4030bc:	31 c9                	xor    %ecx,%ecx
  4030be:	45 8b 09             	mov    (%r9),%r9d
  4030c1:	48 89 54 24 a8       	mov    %rdx,-0x58(%rsp)
  4030c6:	48 89 7c 24 98       	mov    %rdi,-0x68(%rsp)
  4030cb:	48 63 d0             	movslq %eax,%rdx
  4030ce:	48 89 74 24 a0       	mov    %rsi,-0x60(%rsp)
  4030d3:	48 85 d2             	test   %rdx,%rdx
  4030d6:	44 89 4c 24 f4       	mov    %r9d,-0xc(%rsp)
  4030db:	48 0f 48 d1          	cmovs  %rcx,%rdx
  4030df:	48 89 54 24 88       	mov    %rdx,-0x78(%rsp)
  4030e4:	41 8b 10             	mov    (%r8),%edx
  4030e7:	48 63 da             	movslq %edx,%rbx
  4030ea:	48 0f af 5c 24 88    	imul   -0x78(%rsp),%rbx
  4030f0:	48 85 db             	test   %rbx,%rbx
  4030f3:	48 0f 49 cb          	cmovns %rbx,%rcx
  4030f7:	45 85 c9             	test   %r9d,%r9d
  4030fa:	48 89 4c 24 e8       	mov    %rcx,-0x18(%rsp)
  4030ff:	48 8b 4c 24 88       	mov    -0x78(%rsp),%rcx
  403104:	48 f7 d1             	not    %rcx
  403107:	0f 8e 8e 02 00 00    	jle    40339b <evolve_+0x2eb>
  40310d:	48 8b 5c 24 88       	mov    -0x78(%rsp),%rbx
  403112:	49 89 f3             	mov    %rsi,%r11
  403115:	48 8b 74 24 e8       	mov    -0x18(%rsp),%rsi
  40311a:	89 c5                	mov    %eax,%ebp
  40311c:	4c 8b 74 24 88       	mov    -0x78(%rsp),%r14
  403121:	4c 89 5c 24 c8       	mov    %r11,-0x38(%rsp)
  403126:	d1 ed                	shr    %ebp
  403128:	48 89 7c 24 b8       	mov    %rdi,-0x48(%rsp)
  40312d:	c7 44 24 dc 01 00 00 	movl   $0x1,-0x24(%rsp)
  403134:	00 
  403135:	48 8d 4c 0b 01       	lea    0x1(%rbx,%rcx,1),%rcx
  40313a:	48 c1 e6 04          	shl    $0x4,%rsi
  40313e:	44 8d 7c 2d 00       	lea    0x0(%rbp,%rbp,1),%r15d
  403143:	48 89 74 24 e0       	mov    %rsi,-0x20(%rsp)
  403148:	48 8b 74 24 88       	mov    -0x78(%rsp),%rsi
  40314d:	49 c1 e6 04          	shl    $0x4,%r14
  403151:	48 89 4c 24 d0       	mov    %rcx,-0x30(%rsp)
  403156:	48 8b 4c 24 e8       	mov    -0x18(%rsp),%rcx
  40315b:	45 8d 5f 01          	lea    0x1(%r15),%r11d
  40315f:	48 8b 5c 24 a8       	mov    -0x58(%rsp),%rbx
  403164:	48 c1 e6 03          	shl    $0x3,%rsi
  403168:	44 89 5c 24 b4       	mov    %r11d,-0x4c(%rsp)
  40316d:	48 c1 e1 03          	shl    $0x3,%rcx
  403171:	48 89 74 24 90       	mov    %rsi,-0x70(%rsp)
  403176:	48 89 4c 24 f8       	mov    %rcx,-0x8(%rsp)
  40317b:	48 89 5c 24 c0       	mov    %rbx,-0x40(%rsp)
  403180:	85 d2                	test   %edx,%edx
  403182:	0f 8e 78 01 00 00    	jle    403300 <evolve_+0x250>
  403188:	4c 8b 54 24 c0       	mov    -0x40(%rsp),%r10
  40318d:	4c 8b 4c 24 c8       	mov    -0x38(%rsp),%r9
  403192:	41 bd 01 00 00 00    	mov    $0x1,%r13d
  403198:	4c 8b 44 24 b8       	mov    -0x48(%rsp),%r8
  40319d:	4c 8b 64 24 d0       	mov    -0x30(%rsp),%r12
  4031a2:	66 0f 1f 44 00 00    	nopw   0x0(%rax,%rax,1)
  4031a8:	85 c0                	test   %eax,%eax
  4031aa:	0f 8e 28 01 00 00    	jle    4032d8 <evolve_+0x228>
  4031b0:	83 f8 15             	cmp    $0x15,%eax
  4031b3:	49 8d 7c 24 ff       	lea    -0x1(%r12),%rdi
  4031b8:	0f 86 82 01 00 00    	jbe    403340 <evolve_+0x290>
  4031be:	4c 89 c1             	mov    %r8,%rcx
  4031c1:	4c 09 c9             	or     %r9,%rcx
  4031c4:	83 e1 0f             	and    $0xf,%ecx
  4031c7:	0f 85 73 01 00 00    	jne    403340 <evolve_+0x290>
  4031cd:	45 85 ff             	test   %r15d,%r15d
  4031d0:	0f 84 d0 01 00 00    	je     4033a6 <evolve_+0x2f6>
  4031d6:	4c 89 c3             	mov    %r8,%rbx
  4031d9:	31 c9                	xor    %ecx,%ecx
  4031db:	31 f6                	xor    %esi,%esi
  4031dd:	0f 1f 00             	nopl   (%rax)
  4031e0:	f2 0f 10 03          	movsd  (%rbx),%xmm0
  4031e4:	83 c6 01             	add    $0x1,%esi
  4031e7:	f2 0f 10 4b 10       	movsd  0x10(%rbx),%xmm1
  4031ec:	66 0f 16 43 08       	movhpd 0x8(%rbx),%xmm0
  4031f1:	66 0f 16 4b 18       	movhpd 0x18(%rbx),%xmm1
  4031f6:	48 83 c3 20          	add    $0x20,%rbx
  4031fa:	66 0f 28 d8          	movapd %xmm0,%xmm3
  4031fe:	66 0f 28 c1          	movapd %xmm1,%xmm0
  403202:	f2 42 0f 10 0c 11    	movsd  (%rcx,%r10,1),%xmm1
  403208:	66 41 0f 16 4c 0a 08 	movhpd 0x8(%r10,%rcx,1),%xmm1
  40320f:	66 0f 28 d1          	movapd %xmm1,%xmm2
  403213:	66 0f 28 cb          	movapd %xmm3,%xmm1
  403217:	66 0f 15 d8          	unpckhpd %xmm0,%xmm3
  40321b:	66 0f 14 c8          	unpcklpd %xmm0,%xmm1
  40321f:	66 0f 28 c3          	movapd %xmm3,%xmm0
  403223:	66 0f 59 ca          	mulpd  %xmm2,%xmm1
  403227:	66 0f 59 c2          	mulpd  %xmm2,%xmm0
  40322b:	66 0f 28 d1          	movapd %xmm1,%xmm2
  40322f:	66 0f 15 c8          	unpckhpd %xmm0,%xmm1
  403233:	66 0f 14 d0          	unpcklpd %xmm0,%xmm2
  403237:	66 41 0f 29 4c 48 10 	movapd %xmm1,0x10(%r8,%rcx,2)
  40323e:	66 41 0f 29 14 48    	movapd %xmm2,(%r8,%rcx,2)
  403244:	66 41 0f 29 14 49    	movapd %xmm2,(%r9,%rcx,2)
  40324a:	66 41 0f 29 4c 49 10 	movapd %xmm1,0x10(%r9,%rcx,2)
  403251:	48 83 c1 10          	add    $0x10,%rcx
  403255:	39 ee                	cmp    %ebp,%esi
  403257:	72 87                	jb     4031e0 <evolve_+0x130>
  403259:	44 39 f8             	cmp    %r15d,%eax
  40325c:	8b 74 24 b4          	mov    -0x4c(%rsp),%esi
  403260:	74 76                	je     4032d8 <evolve_+0x228>
  403262:	48 63 ce             	movslq %esi,%rcx
  403265:	4c 8b 5c 24 a8       	mov    -0x58(%rsp),%r11
  40326a:	48 8d 3c 39          	lea    (%rcx,%rdi,1),%rdi
  40326e:	48 8b 4c 24 98       	mov    -0x68(%rsp),%rcx
  403273:	48 89 fb             	mov    %rdi,%rbx
  403276:	49 8d 3c fb          	lea    (%r11,%rdi,8),%rdi
  40327a:	41 89 c3             	mov    %eax,%r11d
  40327d:	48 c1 e3 04          	shl    $0x4,%rbx
  403281:	41 29 f3             	sub    %esi,%r11d
  403284:	31 f6                	xor    %esi,%esi
  403286:	48 01 d9             	add    %rbx,%rcx
  403289:	48 03 5c 24 a0       	add    -0x60(%rsp),%rbx
  40328e:	4e 8d 1c dd 08 00 00 	lea    0x8(,%r11,8),%r11
  403295:	00 
  403296:	66 2e 0f 1f 84 00 00 	nopw   %cs:0x0(%rax,%rax,1)
  40329d:	00 00 00 
  4032a0:	f2 0f 10 07          	movsd  (%rdi),%xmm0
  4032a4:	48 83 c6 08          	add    $0x8,%rsi
  4032a8:	f2 0f 10 09          	movsd  (%rcx),%xmm1
  4032ac:	48 83 c7 08          	add    $0x8,%rdi
  4032b0:	f2 0f 59 c8          	mulsd  %xmm0,%xmm1
  4032b4:	f2 0f 59 41 08       	mulsd  0x8(%rcx),%xmm0
  4032b9:	f2 0f 11 09          	movsd  %xmm1,(%rcx)
  4032bd:	f2 0f 11 41 08       	movsd  %xmm0,0x8(%rcx)
  4032c2:	48 83 c1 10          	add    $0x10,%rcx
  4032c6:	f2 0f 11 0b          	movsd  %xmm1,(%rbx)
  4032ca:	f2 0f 11 43 08       	movsd  %xmm0,0x8(%rbx)
  4032cf:	48 83 c3 10          	add    $0x10,%rbx
  4032d3:	4c 39 de             	cmp    %r11,%rsi
  4032d6:	75 c8                	jne    4032a0 <evolve_+0x1f0>
  4032d8:	4c 03 64 24 88       	add    -0x78(%rsp),%r12
  4032dd:	4d 01 f0             	add    %r14,%r8
  4032e0:	4d 01 f1             	add    %r14,%r9
  4032e3:	4c 03 54 24 90       	add    -0x70(%rsp),%r10
  4032e8:	41 39 d5             	cmp    %edx,%r13d
  4032eb:	74 13                	je     403300 <evolve_+0x250>
  4032ed:	41 83 c5 01          	add    $0x1,%r13d
  4032f1:	e9 b2 fe ff ff       	jmpq   4031a8 <evolve_+0xf8>
  4032f6:	66 2e 0f 1f 84 00 00 	nopw   %cs:0x0(%rax,%rax,1)
  4032fd:	00 00 00 
  403300:	48 8b 4c 24 e0       	mov    -0x20(%rsp),%rcx
  403305:	4c 8b 5c 24 e8       	mov    -0x18(%rsp),%r11
  40330a:	48 01 4c 24 b8       	add    %rcx,-0x48(%rsp)
  40330f:	4c 01 5c 24 d0       	add    %r11,-0x30(%rsp)
  403314:	48 01 4c 24 c8       	add    %rcx,-0x38(%rsp)
  403319:	48 8b 5c 24 f8       	mov    -0x8(%rsp),%rbx
  40331e:	8b 74 24 f4          	mov    -0xc(%rsp),%esi
  403322:	48 01 5c 24 c0       	add    %rbx,-0x40(%rsp)
  403327:	39 74 24 dc          	cmp    %esi,-0x24(%rsp)
  40332b:	74 6e                	je     40339b <evolve_+0x2eb>
  40332d:	83 44 24 dc 01       	addl   $0x1,-0x24(%rsp)
  403332:	e9 49 fe ff ff       	jmpq   403180 <evolve_+0xd0>
  403337:	66 0f 1f 84 00 00 00 	nopw   0x0(%rax,%rax,1)
  40333e:	00 00 
  403340:	48 8b 4c 24 98       	mov    -0x68(%rsp),%rcx
  403345:	4c 89 e3             	mov    %r12,%rbx
  403348:	48 8b 74 24 a8       	mov    -0x58(%rsp),%rsi
  40334d:	48 c1 e3 04          	shl    $0x4,%rbx
  403351:	48 01 d9             	add    %rbx,%rcx
  403354:	48 03 5c 24 a0       	add    -0x60(%rsp),%rbx
  403359:	4a 8d 3c e6          	lea    (%rsi,%r12,8),%rdi
  40335d:	31 f6                	xor    %esi,%esi
  40335f:	90                   	nop
  403360:	f2 0f 10 07          	movsd  (%rdi),%xmm0
  403364:	83 c6 01             	add    $0x1,%esi
  403367:	f2 0f 10 09          	movsd  (%rcx),%xmm1
  40336b:	48 83 c7 08          	add    $0x8,%rdi
  40336f:	f2 0f 59 c8          	mulsd  %xmm0,%xmm1
  403373:	f2 0f 59 41 08       	mulsd  0x8(%rcx),%xmm0
  403378:	f2 0f 11 09          	movsd  %xmm1,(%rcx)
  40337c:	f2 0f 11 41 08       	movsd  %xmm0,0x8(%rcx)
  403381:	48 83 c1 10          	add    $0x10,%rcx
  403385:	f2 0f 11 0b          	movsd  %xmm1,(%rbx)
  403389:	f2 0f 11 43 08       	movsd  %xmm0,0x8(%rbx)
  40338e:	48 83 c3 10          	add    $0x10,%rbx
  403392:	39 f0                	cmp    %esi,%eax
  403394:	75 ca                	jne    403360 <evolve_+0x2b0>
  403396:	e9 3d ff ff ff       	jmpq   4032d8 <evolve_+0x228>
  40339b:	5b                   	pop    %rbx
  40339c:	5d                   	pop    %rbp
  40339d:	41 5c                	pop    %r12
  40339f:	41 5d                	pop    %r13
  4033a1:	41 5e                	pop    %r14
  4033a3:	41 5f                	pop    %r15
  4033a5:	c3                   	retq   
  4033a6:	be 01 00 00 00       	mov    $0x1,%esi
  4033ab:	e9 b2 fe ff ff       	jmpq   403262 <evolve_+0x1b2>

00000000004033b0 <ilog2_>:
  4033b0:	8b 37                	mov    (%rdi),%esi
  4033b2:	31 c0                	xor    %eax,%eax
  4033b4:	83 fe 01             	cmp    $0x1,%esi
  4033b7:	74 22                	je     4033db <ilog2_+0x2b>
  4033b9:	83 fe 02             	cmp    $0x2,%esi
  4033bc:	ba 02 00 00 00       	mov    $0x2,%edx
  4033c1:	b9 01 00 00 00       	mov    $0x1,%ecx
  4033c6:	b0 01                	mov    $0x1,%al
  4033c8:	7e 11                	jle    4033db <ilog2_+0x2b>
  4033ca:	66 0f 1f 44 00 00    	nopw   0x0(%rax,%rax,1)
  4033d0:	01 d2                	add    %edx,%edx
  4033d2:	83 c1 01             	add    $0x1,%ecx
  4033d5:	39 d6                	cmp    %edx,%esi
  4033d7:	7f f7                	jg     4033d0 <ilog2_+0x20>
  4033d9:	89 c8                	mov    %ecx,%eax
  4033db:	f3 c3                	repz retq 
  4033dd:	0f 1f 00             	nopl   (%rax)

00000000004033e0 <verify_>:
  4033e0:	48 89 5c 24 d0       	mov    %rbx,-0x30(%rsp)
  4033e5:	48 89 6c 24 d8       	mov    %rbp,-0x28(%rsp)
  4033ea:	4c 89 c3             	mov    %r8,%rbx
  4033ed:	4c 89 64 24 e0       	mov    %r12,-0x20(%rsp)
  4033f2:	4c 89 6c 24 e8       	mov    %r13,-0x18(%rsp)
  4033f7:	4c 89 cd             	mov    %r9,%rbp
  4033fa:	4c 89 74 24 f0       	mov    %r14,-0x10(%rsp)
  4033ff:	4c 89 7c 24 f8       	mov    %r15,-0x8(%rsp)
  403404:	48 81 ec 18 0d 00 00 	sub    $0xd18,%rsp
  40340b:	8b 05 6f 0c 22 00    	mov    0x220c6f(%rip),%eax        # 624080 <coords_>
  403411:	41 c6 01 55          	movb   $0x55,(%r9)
  403415:	85 c0                	test   %eax,%eax
  403417:	0f 85 5c 02 00 00    	jne    403679 <verify_+0x299>
  40341d:	8b 07                	mov    (%rdi),%eax
  40341f:	41 c7 00 00 00 00 00 	movl   $0x0,(%r8)
  403426:	83 f8 40             	cmp    $0x40,%eax
  403429:	0f 84 79 0a 00 00    	je     403ea8 <verify_+0xac8>
  40342f:	3d 80 00 00 00       	cmp    $0x80,%eax
  403434:	0f 84 4e 0f 00 00    	je     404388 <verify_+0xfa8>
  40343a:	3d 00 01 00 00       	cmp    $0x100,%eax
  40343f:	0f 85 73 02 00 00    	jne    4036b8 <verify_+0x2d8>
  403445:	81 3e 00 01 00 00    	cmpl   $0x100,(%rsi)
  40344b:	0f 1f 44 00 00       	nopl   0x0(%rax,%rax,1)
  403450:	0f 84 3a 10 00 00    	je     404490 <verify_+0x10b0>
  403456:	66 2e 0f 1f 84 00 00 	nopw   %cs:0x0(%rax,%rax,1)
  40345d:	00 00 00 
  403460:	48 8d 94 24 dc 0c 00 	lea    0xcdc(%rsp),%rdx
  403467:	00 
  403468:	48 8d b4 24 d8 0c 00 	lea    0xcd8(%rsp),%rsi
  40346f:	00 
  403470:	31 c0                	xor    %eax,%eax
  403472:	bf 60 c7 40 00       	mov    $0x40c760,%edi
  403477:	e8 a4 f8 ff ff       	callq  402d20 <mpi_comm_size_@plt>
  40347c:	8b 84 24 d8 0c 00 00 	mov    0xcd8(%rsp),%eax
  403483:	3b 05 03 0d 22 00    	cmp    0x220d03(%rip),%eax        # 62418c <procgrid_+0xc>
  403489:	0f 84 2c 01 00 00    	je     4035bb <verify_+0x1db>
  40348f:	4c 8d a4 24 60 09 00 	lea    0x960(%rsp),%r12
  403496:	00 
  403497:	48 c7 84 24 68 09 00 	movq   $0x40ce80,0x968(%rsp)
  40349e:	00 80 ce 40 00 
  4034a3:	c7 84 24 70 09 00 00 	movl   $0x7f9,0x970(%rsp)
  4034aa:	f9 07 00 00 
  4034ae:	48 c7 84 24 a8 09 00 	movq   $0x40c768,0x9a8(%rsp)
  4034b5:	00 68 c7 40 00 
  4034ba:	c7 84 24 b0 09 00 00 	movl   $0x51,0x9b0(%rsp)
  4034c1:	51 00 00 00 
  4034c5:	4c 89 e7             	mov    %r12,%rdi
  4034c8:	c7 84 24 60 09 00 00 	movl   $0x1000,0x960(%rsp)
  4034cf:	00 10 00 00 
  4034d3:	c7 84 24 64 09 00 00 	movl   $0x6,0x964(%rsp)
  4034da:	06 00 00 00 
  4034de:	e8 dd f8 ff ff       	callq  402dc0 <_gfortran_st_write@plt>
  4034e3:	ba 04 00 00 00       	mov    $0x4,%edx
  4034e8:	be 8c 41 62 00       	mov    $0x62418c,%esi
  4034ed:	4c 89 e7             	mov    %r12,%rdi
  4034f0:	e8 8b f8 ff ff       	callq  402d80 <_gfortran_transfer_integer@plt>
  4034f5:	4c 89 e7             	mov    %r12,%rdi
  4034f8:	4c 8d a4 24 80 07 00 	lea    0x780(%rsp),%r12
  4034ff:	00 
  403500:	e8 0b fa ff ff       	callq  402f10 <_gfortran_st_write_done@plt>
  403505:	4c 89 e7             	mov    %r12,%rdi
  403508:	48 c7 84 24 88 07 00 	movq   $0x40ce80,0x788(%rsp)
  40350f:	00 80 ce 40 00 
  403514:	c7 84 24 90 07 00 00 	movl   $0x7fa,0x790(%rsp)
  40351b:	fa 07 00 00 
  40351f:	48 c7 84 24 c8 07 00 	movq   $0x40c7c0,0x7c8(%rsp)
  403526:	00 c0 c7 40 00 
  40352b:	c7 84 24 d0 07 00 00 	movl   $0x54,0x7d0(%rsp)
  403532:	54 00 00 00 
  403536:	c7 84 24 80 07 00 00 	movl   $0x1000,0x780(%rsp)
  40353d:	00 10 00 00 
  403541:	c7 84 24 84 07 00 00 	movl   $0x6,0x784(%rsp)
  403548:	06 00 00 00 
  40354c:	e8 6f f8 ff ff       	callq  402dc0 <_gfortran_st_write@plt>
  403551:	4c 89 e7             	mov    %r12,%rdi
  403554:	4c 8d a4 24 a0 05 00 	lea    0x5a0(%rsp),%r12
  40355b:	00 
  40355c:	e8 af f9 ff ff       	callq  402f10 <_gfortran_st_write_done@plt>
  403561:	4c 89 e7             	mov    %r12,%rdi
  403564:	48 c7 84 24 a8 05 00 	movq   $0x40ce80,0x5a8(%rsp)
  40356b:	00 80 ce 40 00 
  403570:	c7 84 24 b0 05 00 00 	movl   $0x7fb,0x5b0(%rsp)
  403577:	fb 07 00 00 
  40357b:	48 c7 84 24 e8 05 00 	movq   $0x40c818,0x5e8(%rsp)
  403582:	00 18 c8 40 00 
  403587:	c7 84 24 f0 05 00 00 	movl   $0x24,0x5f0(%rsp)
  40358e:	24 00 00 00 
  403592:	c7 84 24 a0 05 00 00 	movl   $0x1000,0x5a0(%rsp)
  403599:	00 10 00 00 
  40359d:	c7 84 24 a4 05 00 00 	movl   $0x6,0x5a4(%rsp)
  4035a4:	06 00 00 00 
  4035a8:	e8 13 f8 ff ff       	callq  402dc0 <_gfortran_st_write@plt>
  4035ad:	4c 89 e7             	mov    %r12,%rdi
  4035b0:	e8 5b f9 ff ff       	callq  402f10 <_gfortran_st_write_done@plt>
  4035b5:	c7 03 00 00 00 00    	movl   $0x0,(%rbx)
  4035bb:	80 7d 00 55          	cmpb   $0x55,0x0(%rbp)
  4035bf:	74 66                	je     403627 <verify_+0x247>
  4035c1:	8b 03                	mov    (%rbx),%eax
  4035c3:	85 c0                	test   %eax,%eax
  4035c5:	0f 84 75 08 00 00    	je     403e40 <verify_+0xa60>
  4035cb:	48 8d 9c 24 c0 03 00 	lea    0x3c0(%rsp),%rbx
  4035d2:	00 
  4035d3:	48 c7 84 24 c8 03 00 	movq   $0x40ce80,0x3c8(%rsp)
  4035da:	00 80 ce 40 00 
  4035df:	c7 84 24 d0 03 00 00 	movl   $0x80a,0x3d0(%rsp)
  4035e6:	0a 08 00 00 
  4035ea:	48 c7 84 24 08 04 00 	movq   $0x40c840,0x408(%rsp)
  4035f1:	00 40 c8 40 00 
  4035f6:	c7 84 24 10 04 00 00 	movl   $0x23,0x410(%rsp)
  4035fd:	23 00 00 00 
  403601:	48 89 df             	mov    %rbx,%rdi
  403604:	c7 84 24 c0 03 00 00 	movl   $0x1000,0x3c0(%rsp)
  40360b:	00 10 00 00 
  40360f:	c7 84 24 c4 03 00 00 	movl   $0x6,0x3c4(%rsp)
  403616:	06 00 00 00 
  40361a:	e8 a1 f7 ff ff       	callq  402dc0 <_gfortran_st_write@plt>
  40361f:	48 89 df             	mov    %rbx,%rdi
  403622:	e8 e9 f8 ff ff       	callq  402f10 <_gfortran_st_write_done@plt>
  403627:	48 89 e7             	mov    %rsp,%rdi
  40362a:	48 c7 44 24 08 80 ce 	movq   $0x40ce80,0x8(%rsp)
  403631:	40 00 
  403633:	c7 44 24 10 11 08 00 	movl   $0x811,0x10(%rsp)
  40363a:	00 
  40363b:	c7 04 24 80 00 00 00 	movl   $0x80,(%rsp)
  403642:	c7 44 24 04 06 00 00 	movl   $0x6,0x4(%rsp)
  403649:	00 
  40364a:	e8 71 f7 ff ff       	callq  402dc0 <_gfortran_st_write@plt>
  40364f:	ba 08 00 00 00       	mov    $0x8,%edx
  403654:	be 87 c8 40 00       	mov    $0x40c887,%esi
  403659:	48 89 e7             	mov    %rsp,%rdi
  40365c:	e8 9f f8 ff ff       	callq  402f00 <_gfortran_transfer_character@plt>
  403661:	48 89 e7             	mov    %rsp,%rdi
  403664:	ba 01 00 00 00       	mov    $0x1,%edx
  403669:	48 89 ee             	mov    %rbp,%rsi
  40366c:	e8 8f f8 ff ff       	callq  402f00 <_gfortran_transfer_character@plt>
  403671:	48 89 e7             	mov    %rsp,%rdi
  403674:	e8 97 f8 ff ff       	callq  402f10 <_gfortran_st_write_done@plt>
  403679:	48 8b 9c 24 e8 0c 00 	mov    0xce8(%rsp),%rbx
  403680:	00 
  403681:	48 8b ac 24 f0 0c 00 	mov    0xcf0(%rsp),%rbp
  403688:	00 
  403689:	4c 8b a4 24 f8 0c 00 	mov    0xcf8(%rsp),%r12
  403690:	00 
  403691:	4c 8b ac 24 00 0d 00 	mov    0xd00(%rsp),%r13
  403698:	00 
  403699:	4c 8b b4 24 08 0d 00 	mov    0xd08(%rsp),%r14
  4036a0:	00 
  4036a1:	4c 8b bc 24 10 0d 00 	mov    0xd10(%rsp),%r15
  4036a8:	00 
  4036a9:	48 81 c4 18 0d 00 00 	add    $0xd18,%rsp
  4036b0:	c3                   	retq   
  4036b1:	0f 1f 80 00 00 00 00 	nopl   0x0(%rax)
  4036b8:	3d 00 02 00 00       	cmp    $0x200,%eax
  4036bd:	0f 84 b5 09 00 00    	je     404078 <verify_+0xc98>
  4036c3:	3d 00 08 00 00       	cmp    $0x800,%eax
  4036c8:	0f 85 b2 03 00 00    	jne    403a80 <verify_+0x6a0>
  4036ce:	81 3e 00 04 00 00    	cmpl   $0x400,(%rsi)
  4036d4:	0f 85 86 fd ff ff    	jne    403460 <verify_+0x80>
  4036da:	81 3a 00 04 00 00    	cmpl   $0x400,(%rdx)
  4036e0:	0f 85 7a fd ff ff    	jne    403460 <verify_+0x80>
  4036e6:	83 39 19             	cmpl   $0x19,(%rcx)
  4036e9:	0f 85 71 fd ff ff    	jne    403460 <verify_+0x80>
  4036ef:	48 bf 3b 24 a5 b7 c8 	mov    $0x408001c8b7a5243b,%rdi
  4036f6:	01 80 40 
  4036f9:	48 be 9c 49 a6 8a a7 	mov    $0x407ffda78aa6499c,%rsi
  403700:	fd 7f 40 
  403703:	41 c6 01 44          	movb   $0x44,(%r9)
  403707:	48 89 bc 24 40 0b 00 	mov    %rdi,0xb40(%rsp)
  40370e:	00 
  40370f:	48 89 b4 24 48 0b 00 	mov    %rsi,0xb48(%rsp)
  403716:	00 
  403717:	48 b9 73 4d b1 05 5f 	mov    $0x4080005f05b14d73,%rcx
  40371e:	00 80 40 
  403721:	48 ba 51 5d 80 42 4c 	mov    $0x407ffb4c42805d51,%rdx
  403728:	fb 7f 40 
  40372b:	49 bf aa e6 9f 04 c9 	mov    $0x407fffc9049fe6aa,%r15
  403732:	ff 7f 40 
  403735:	49 be dc c2 c2 ab 5a 	mov    $0x407ffb5aabc2c2dc,%r14
  40373c:	fb 7f 40 
  40373f:	49 bd 07 1d 78 e6 3a 	mov    $0x407fff3ae6781d07,%r13
  403746:	ff 7f 40 
  403749:	49 bc a5 30 ad 55 cc 	mov    $0x407ffbcc55ad30a5,%r12
  403750:	fb 7f 40 
  403753:	49 bb 70 62 58 9e d4 	mov    $0x407ffed49e586270,%r11
  40375a:	fe 7f 40 
  40375d:	49 ba 29 e2 d1 de 49 	mov    $0x407ffc49ded1e229,%r10
  403764:	fc 7f 40 
  403767:	49 b9 00 16 6f 28 88 	mov    $0x407ffe88286f1600,%r9
  40376e:	fe 7f 40 
  403771:	49 b8 a9 2d 4e a4 bf 	mov    $0x407ffcbfa44e2da9,%r8
  403778:	fc 7f 40 
  40377b:	48 bf b7 12 f0 62 4f 	mov    $0x407ffe4f62f012b7,%rdi
  403782:	fe 7f 40 
  403785:	48 be f7 2b 50 13 29 	mov    $0x407ffd2913502bf7,%rsi
  40378c:	fd 7f 40 
  40378f:	48 89 8c 24 50 0b 00 	mov    %rcx,0xb50(%rsp)
  403796:	00 
  403797:	48 89 94 24 58 0b 00 	mov    %rdx,0xb58(%rsp)
  40379e:	00 
  40379f:	4c 89 bc 24 60 0b 00 	mov    %r15,0xb60(%rsp)
  4037a6:	00 
  4037a7:	48 b9 87 7d 46 d7 25 	mov    $0x407ffe25d7467d87,%rcx
  4037ae:	fe 7f 40 
  4037b1:	4c 89 b4 24 68 0b 00 	mov    %r14,0xb68(%rsp)
  4037b8:	00 
  4037b9:	4c 89 ac 24 70 0b 00 	mov    %r13,0xb70(%rsp)
  4037c0:	00 
  4037c1:	48 ba 1e cc 91 c9 85 	mov    $0x407ffd85c991cc1e,%rdx
  4037c8:	fd 7f 40 
  4037cb:	4c 89 a4 24 78 0b 00 	mov    %r12,0xb78(%rsp)
  4037d2:	00 
  4037d3:	4c 89 9c 24 80 0b 00 	mov    %r11,0xb80(%rsp)
  4037da:	00 
  4037db:	49 bf 1b 46 f9 f5 07 	mov    $0x407ffe07f5f9461b,%r15
  4037e2:	fe 7f 40 
  4037e5:	4c 89 94 24 88 0b 00 	mov    %r10,0xb88(%rsp)
  4037ec:	00 
  4037ed:	4c 89 8c 24 90 0b 00 	mov    %r9,0xb90(%rsp)
  4037f4:	00 
  4037f5:	49 be 2f aa e6 ad d6 	mov    $0x407ffdd6ade6aa2f,%r14
  4037fc:	fd 7f 40 
  4037ff:	4c 89 84 24 98 0b 00 	mov    %r8,0xb98(%rsp)
  403806:	00 
  403807:	48 89 bc 24 a0 0b 00 	mov    %rdi,0xba0(%rsp)
  40380e:	00 
  40380f:	49 bd 75 ce e3 f9 f2 	mov    $0x407ffdf2f9e3ce75,%r13
  403816:	fd 7f 40 
  403819:	48 89 b4 24 a8 0b 00 	mov    %rsi,0xba8(%rsp)
  403820:	00 
  403821:	49 bc 0f 37 52 00 1d 	mov    $0x407ffe1d0052370f,%r12
  403828:	fe 7f 40 
  40382b:	49 bb 49 0f 36 ca e4 	mov    $0x407ffde4ca360f49,%r11
  403832:	fd 7f 40 
  403835:	49 ba 3e 97 b5 05 5a 	mov    $0x407ffe5a05b5973e,%r10
  40383c:	fe 7f 40 
  40383f:	49 b9 11 97 f9 d5 db 	mov    $0x407ffddbd5f99711,%r9
  403846:	fd 7f 40 
  403849:	49 b8 74 a8 ca ea 8e 	mov    $0x407ffe8eeacaa874,%r8
  403850:	fe 7f 40 
  403853:	48 bf 21 3d 03 f2 d6 	mov    $0x407ffdd6f2033d21,%rdi
  40385a:	fd 7f 40 
  40385d:	48 be bf 2e fa bb bc 	mov    $0x407ffebcbbfa2ebf,%rsi
  403864:	fe 7f 40 
  403867:	48 89 8c 24 b0 0b 00 	mov    %rcx,0xbb0(%rsp)
  40386e:	00 
  40386f:	48 89 94 24 b8 0b 00 	mov    %rdx,0xbb8(%rsp)
  403876:	00 
  403877:	4c 89 bc 24 c0 0b 00 	mov    %r15,0xbc0(%rsp)
  40387e:	00 
  40387f:	48 b9 74 dc 74 3d d5 	mov    $0x407ffdd53d74dc74,%rcx
  403886:	fd 7f 40 
  403889:	4c 89 b4 24 c8 0b 00 	mov    %r14,0xbc8(%rsp)
  403890:	00 
  403891:	4c 89 ac 24 d0 0b 00 	mov    %r13,0xbd0(%rsp)
  403898:	00 
  403899:	48 ba 9d 64 11 65 e4 	mov    $0x407ffee46511649d,%rdx
  4038a0:	fe 7f 40 
  4038a3:	4c 89 a4 24 d8 0b 00 	mov    %r12,0xbd8(%rsp)
  4038aa:	00 
  4038ab:	4c 89 9c 24 e0 0b 00 	mov    %r11,0xbe0(%rsp)
  4038b2:	00 
  4038b3:	49 bf d2 b5 2d 0d d6 	mov    $0x407ffdd60d2db5d2,%r15
  4038ba:	fd 7f 40 
  4038bd:	4c 89 94 24 e8 0b 00 	mov    %r10,0xbe8(%rsp)
  4038c4:	00 
  4038c5:	4c 89 8c 24 f0 0b 00 	mov    %r9,0xbf0(%rsp)
  4038cc:	00 
  4038cd:	49 be ea 1a c0 b3 06 	mov    $0x407fff06b3c01aea,%r14
  4038d4:	ff 7f 40 
  4038d7:	4c 89 84 24 f8 0b 00 	mov    %r8,0xbf8(%rsp)
  4038de:	00 
  4038df:	48 89 bc 24 00 0c 00 	mov    %rdi,0xc00(%rsp)
  4038e6:	00 
  4038e7:	49 bd 7d 6a 05 dd d8 	mov    $0x407ffdd8dd056a7d,%r13
  4038ee:	fd 7f 40 
  4038f1:	48 89 b4 24 08 0c 00 	mov    %rsi,0xc08(%rsp)
  4038f8:	00 
  4038f9:	49 bc ce 0b df 5a 24 	mov    $0x407fff245adf0bce,%r12
  403900:	ff 7f 40 
  403903:	49 bb e6 8f 61 45 dd 	mov    $0x407ffddd45618fe6,%r11
  40390a:	fd 7f 40 
  40390d:	49 ba 29 b0 ba f5 3d 	mov    $0x407fff3df5bab029,%r10
  403914:	ff 7f 40 
  403917:	49 b9 b3 50 e6 f3 e2 	mov    $0x407ffde2f3e650b3,%r9
  40391e:	fd 7f 40 
  403921:	49 b8 a1 f5 1c 0b 54 	mov    $0x407fff540b1cf5a1,%r8
  403928:	ff 7f 40 
  40392b:	48 bf 45 12 4e a6 e9 	mov    $0x407ffde9a64e1245,%rdi
  403932:	fd 7f 40 
  403935:	48 be e5 da 02 10 67 	mov    $0x407fff671002dae5,%rsi
  40393c:	ff 7f 40 
  40393f:	48 89 8c 24 10 0c 00 	mov    %rcx,0xc10(%rsp)
  403946:	00 
  403947:	48 89 94 24 18 0c 00 	mov    %rdx,0xc18(%rsp)
  40394e:	00 
  40394f:	4c 89 bc 24 20 0c 00 	mov    %r15,0xc20(%rsp)
  403956:	00 
  403957:	48 b9 21 df ba 26 f1 	mov    $0x407ffdf126badf21,%rcx
  40395e:	fd 7f 40 
  403961:	4c 89 b4 24 28 0c 00 	mov    %r14,0xc28(%rsp)
  403968:	00 
  403969:	4c 89 ac 24 30 0c 00 	mov    %r13,0xc30(%rsp)
  403970:	00 
  403971:	48 ba 32 4d fd 69 77 	mov    $0x407fff7769fd4d32,%rdx
  403978:	ff 7f 40 
  40397b:	4c 89 a4 24 38 0c 00 	mov    %r12,0xc38(%rsp)
  403982:	00 
  403983:	49 bf 13 bb 09 49 f9 	mov    $0x407ffdf94909bb13,%r15
  40398a:	fd 7f 40 
  40398d:	4c 89 9c 24 40 0c 00 	mov    %r11,0xc40(%rsp)
  403994:	00 
  403995:	49 be b2 11 44 71 85 	mov    $0x407fff85714411b2,%r14
  40399c:	ff 7f 40 
  40399f:	4c 89 94 24 48 0c 00 	mov    %r10,0xc48(%rsp)
  4039a6:	00 
  4039a7:	4c 89 8c 24 50 0c 00 	mov    %r9,0xc50(%rsp)
  4039ae:	00 
  4039af:	4c 89 84 24 58 0c 00 	mov    %r8,0xc58(%rsp)
  4039b6:	00 
  4039b7:	48 89 bc 24 60 0c 00 	mov    %rdi,0xc60(%rsp)
  4039be:	00 
  4039bf:	49 bd 62 e9 d7 e8 01 	mov    $0x407ffe01e8d7e962,%r13
  4039c6:	fe 7f 40 
  4039c9:	48 89 b4 24 68 0c 00 	mov    %rsi,0xc68(%rsp)
  4039d0:	00 
  4039d1:	49 bc 20 68 82 72 91 	mov    $0x407fff9172826820,%r12
  4039d8:	ff 7f 40 
  4039db:	49 bb 41 0e 04 e8 0a 	mov    $0x407ffe0ae8040e41,%r11
  4039e2:	fe 7f 40 
  4039e5:	49 ba e0 26 66 b0 9b 	mov    $0x407fff9bb06626e0,%r10
  4039ec:	ff 7f 40 
  4039ef:	49 b9 17 2c 87 2d 14 	mov    $0x407ffe142d872c17,%r9
  4039f6:	fe 7f 40 
  4039f9:	49 b8 ce 9d f8 64 a4 	mov    $0x407fffa464f89dce,%r8
  403a00:	ff 7f 40 
  403a03:	48 bf 6e 38 8d a4 1d 	mov    $0x407ffe1da48d386e,%rdi
  403a0a:	fe 7f 40 
  403a0d:	48 be de 55 c8 c2 ab 	mov    $0x407fffabc2c855de,%rsi
  403a14:	ff 7f 40 
  403a17:	48 89 8c 24 70 0c 00 	mov    %rcx,0xc70(%rsp)
  403a1e:	00 
  403a1f:	48 89 94 24 78 0c 00 	mov    %rdx,0xc78(%rsp)
  403a26:	00 
  403a27:	4c 89 bc 24 80 0c 00 	mov    %r15,0xc80(%rsp)
  403a2e:	00 
  403a2f:	66 b8 19 00          	mov    $0x19,%ax
  403a33:	4c 89 b4 24 88 0c 00 	mov    %r14,0xc88(%rsp)
  403a3a:	00 
  403a3b:	4c 89 ac 24 90 0c 00 	mov    %r13,0xc90(%rsp)
  403a42:	00 
  403a43:	4c 89 a4 24 98 0c 00 	mov    %r12,0xc98(%rsp)
  403a4a:	00 
  403a4b:	4c 89 9c 24 a0 0c 00 	mov    %r11,0xca0(%rsp)
  403a52:	00 
  403a53:	4c 89 94 24 a8 0c 00 	mov    %r10,0xca8(%rsp)
  403a5a:	00 
  403a5b:	4c 89 8c 24 b0 0c 00 	mov    %r9,0xcb0(%rsp)
  403a62:	00 
  403a63:	4c 89 84 24 b8 0c 00 	mov    %r8,0xcb8(%rsp)
  403a6a:	00 
  403a6b:	48 89 bc 24 c0 0c 00 	mov    %rdi,0xcc0(%rsp)
  403a72:	00 
  403a73:	48 89 b4 24 c8 0c 00 	mov    %rsi,0xcc8(%rsp)
  403a7a:	00 
  403a7b:	e9 28 05 00 00       	jmpq   403fa8 <verify_+0xbc8>
  403a80:	3d 00 10 00 00       	cmp    $0x1000,%eax
  403a85:	0f 85 d5 f9 ff ff    	jne    403460 <verify_+0x80>
  403a8b:	81 3e 00 08 00 00    	cmpl   $0x800,(%rsi)
  403a91:	0f 85 c9 f9 ff ff    	jne    403460 <verify_+0x80>
  403a97:	81 3a 00 08 00 00    	cmpl   $0x800,(%rdx)
  403a9d:	0f 1f 00             	nopl   (%rax)
  403aa0:	0f 85 ba f9 ff ff    	jne    403460 <verify_+0x80>
  403aa6:	83 39 19             	cmpl   $0x19,(%rcx)
  403aa9:	0f 85 b1 f9 ff ff    	jne    403460 <verify_+0x80>
  403aaf:	48 b9 63 e0 e2 e4 47 	mov    $0x40800147e4e2e063,%rcx
  403ab6:	01 80 40 
  403ab9:	48 ba fd b5 a0 66 d5 	mov    $0x407ffbd566a0b5fd,%rdx
  403ac0:	fb 7f 40 
  403ac3:	41 c6 01 45          	movb   $0x45,(%r9)
  403ac7:	48 89 8c 24 40 0b 00 	mov    %rcx,0xb40(%rsp)
  403ace:	00 
  403acf:	48 89 94 24 48 0b 00 	mov    %rdx,0xb48(%rsp)
  403ad6:	00 
  403ad7:	49 bf 5a 75 3a 6d b9 	mov    $0x408000b96d3a755a,%r15
  403ade:	00 80 40 
  403ae1:	49 be 9f a9 76 96 c8 	mov    $0x407ffdc89676a99f,%r14
  403ae8:	fd 7f 40 
  403aeb:	49 bd be 25 2a a3 7f 	mov    $0x4080007fa32a25be,%r13
  403af2:	00 80 40 
  403af5:	49 bc f8 10 3a cb 84 	mov    $0x407ffe84cb3a10f8,%r12
  403afc:	fe 7f 40 
  403aff:	49 bb 40 2b c8 c9 59 	mov    $0x40800059c9c82b40,%r11
  403b06:	00 80 40 
  403b09:	49 ba d6 7f b8 14 f4 	mov    $0x407ffef414b87fd6,%r10
  403b10:	fe 7f 40 
  403b13:	49 b9 c8 c9 b7 cc 3f 	mov    $0x4080003fccb7c9c8,%r9
  403b1a:	00 80 40 
  403b1d:	49 b8 1e f1 12 39 48 	mov    $0x407fff483912f11e,%r8
  403b24:	ff 7f 40 
  403b27:	48 bf 84 a0 90 4d 2e 	mov    $0x4080002e4d90a084,%rdi
  403b2e:	00 80 40 
  403b31:	48 be 58 e5 bc 62 8d 	mov    $0x407fff8d62bce558,%rsi
  403b38:	ff 7f 40 
  403b3b:	48 b9 7c 9d 03 ac 22 	mov    $0x40800022ac039d7c,%rcx
  403b42:	00 80 40 
  403b45:	48 ba cd f7 c3 37 c7 	mov    $0x407fffc737c3f7cd,%rdx
  403b4c:	ff 7f 40 
  403b4f:	4c 89 bc 24 50 0b 00 	mov    %r15,0xb50(%rsp)
  403b56:	00 
  403b57:	4c 89 b4 24 58 0b 00 	mov    %r14,0xb58(%rsp)
  403b5e:	00 
  403b5f:	4c 89 ac 24 60 0b 00 	mov    %r13,0xb60(%rsp)
  403b66:	00 
  403b67:	49 bf b9 71 fa df 1a 	mov    $0x4080001adffa71b9,%r15
  403b6e:	00 80 40 
  403b71:	4c 89 a4 24 68 0b 00 	mov    %r12,0xb68(%rsp)
  403b78:	00 
  403b79:	4c 89 9c 24 70 0b 00 	mov    %r11,0xb70(%rsp)
  403b80:	00 
  403b81:	49 be 55 62 33 8c f7 	mov    $0x407ffff78c336255,%r14
  403b88:	ff 7f 40 
  403b8b:	4c 89 94 24 78 0b 00 	mov    %r10,0xb78(%rsp)
  403b92:	00 
  403b93:	4c 89 8c 24 80 0b 00 	mov    %r9,0xb80(%rsp)
  403b9a:	00 
  403b9b:	49 bd 0c 52 d0 74 15 	mov    $0x4080001574d0520c,%r13
  403ba2:	00 80 40 
  403ba5:	4c 89 84 24 88 0b 00 	mov    %r8,0xb88(%rsp)
  403bac:	00 
  403bad:	48 89 bc 24 90 0b 00 	mov    %rdi,0xb90(%rsp)
  403bb4:	00 
  403bb5:	49 bc e9 03 5c e8 0f 	mov    $0x4080000fe85c03e9,%r12
  403bbc:	00 80 40 
  403bbf:	48 89 b4 24 98 0b 00 	mov    %rsi,0xb98(%rsp)
  403bc6:	00 
  403bc7:	48 89 8c 24 a0 0b 00 	mov    %rcx,0xba0(%rsp)
  403bce:	00 
  403bcf:	49 bb 44 42 28 6f 11 	mov    $0x408000116f284244,%r11
  403bd6:	00 80 40 
  403bd9:	48 89 94 24 a8 0b 00 	mov    %rdx,0xba8(%rsp)
  403be0:	00 
  403be1:	49 ba 37 58 69 a7 20 	mov    $0x40800020a7695837,%r10
  403be8:	00 80 40 
  403beb:	49 b9 3f 81 56 2d 0e 	mov    $0x4080000e2d56813f,%r9
  403bf2:	00 80 40 
  403bf5:	49 b8 34 7b 1f 95 2e 	mov    $0x4080002e951f7b34,%r8
  403bfc:	00 80 40 
  403bff:	48 bf 64 58 e0 4b 0b 	mov    $0x4080000b4be05864,%rdi
  403c06:	00 80 40 
  403c09:	48 be 04 84 d0 2e 3a 	mov    $0x4080003a2ed08404,%rsi
  403c10:	00 80 40 
  403c13:	48 b9 2d ac 94 90 08 	mov    $0x408000089094ac2d,%rcx
  403c1a:	00 80 40 
  403c1d:	48 ba f3 c2 87 dd 43 	mov    $0x40800043dd87c2f3,%rdx
  403c24:	00 80 40 
  403c27:	4c 89 bc 24 b0 0b 00 	mov    %r15,0xbb0(%rsp)
  403c2e:	00 
  403c2f:	4c 89 b4 24 b8 0b 00 	mov    %r14,0xbb8(%rsp)
  403c36:	00 
  403c37:	4c 89 ac 24 c0 0b 00 	mov    %r13,0xbc0(%rsp)
  403c3e:	00 
  403c3f:	49 bf dd 34 bf db 05 	mov    $0x40800005dbbf34dd,%r15
  403c46:	00 80 40 
  403c49:	4c 89 a4 24 c8 0b 00 	mov    %r12,0xbc8(%rsp)
  403c50:	00 
  403c51:	4c 89 9c 24 d0 0b 00 	mov    %r11,0xbd0(%rsp)
  403c58:	00 
  403c59:	49 be 1a ac de f7 4b 	mov    $0x4080004bf7deac1a,%r14
  403c60:	00 80 40 
  403c63:	4c 89 94 24 d8 0b 00 	mov    %r10,0xbd8(%rsp)
  403c6a:	00 
  403c6b:	4c 89 8c 24 e0 0b 00 	mov    %r9,0xbe0(%rsp)
  403c72:	00 
  403c73:	49 bd 83 cb 1f 1e 03 	mov    $0x408000031e1fcb83,%r13
  403c7a:	00 80 40 
  403c7d:	4c 89 84 24 e8 0b 00 	mov    %r8,0xbe8(%rsp)
  403c84:	00 
  403c85:	48 89 bc 24 f0 0b 00 	mov    %rdi,0xbf0(%rsp)
  403c8c:	00 
  403c8d:	49 bc c0 91 83 c4 52 	mov    $0x40800052c48391c0,%r12
  403c94:	00 80 40 
  403c97:	48 89 b4 24 f8 0b 00 	mov    %rsi,0xbf8(%rsp)
  403c9e:	00 
  403c9f:	48 89 8c 24 00 0c 00 	mov    %rcx,0xc00(%rsp)
  403ca6:	00 
  403ca7:	49 bb 84 7a 50 52 00 	mov    $0x4080000052507a84,%r11
  403cae:	00 80 40 
  403cb1:	48 89 94 24 08 0c 00 	mov    %rdx,0xc08(%rsp)
  403cb8:	00 
  403cb9:	49 ba a1 c3 d9 7c 58 	mov    $0x408000587cd9c3a1,%r10
  403cc0:	00 80 40 
  403cc3:	49 b9 29 1c 11 f1 fa 	mov    $0x407ffffaf1111c29,%r9
  403cca:	ff 7f 40 
  403ccd:	49 b8 97 8e 64 4f 5d 	mov    $0x4080005d4f648e97,%r8
  403cd4:	00 80 40 
  403cd7:	48 bf b0 92 e7 27 f5 	mov    $0x407ffff527e792b0,%rdi
  403cde:	ff 7f 40 
  403ce1:	48 be 20 7a dd 61 61 	mov    $0x4080006161dd7a20,%rsi
  403ce8:	00 80 40 
  403ceb:	48 b9 58 a6 24 52 ef 	mov    $0x407fffef5224a658,%rcx
  403cf2:	ff 7f 40 
  403cf5:	48 ba fb e0 f0 d2 64 	mov    $0x40800064d2f0e0fb,%rdx
  403cfc:	00 80 40 
  403cff:	4c 89 bc 24 10 0c 00 	mov    %r15,0xc10(%rsp)
  403d06:	00 
  403d07:	4c 89 b4 24 18 0c 00 	mov    %r14,0xc18(%rsp)
  403d0e:	00 
  403d0f:	4c 89 ac 24 20 0c 00 	mov    %r13,0xc20(%rsp)
  403d16:	00 
  403d17:	49 bf 2f 08 85 79 e9 	mov    $0x407fffe97985082f,%r15
  403d1e:	ff 7f 40 
  403d21:	4c 89 a4 24 28 0c 00 	mov    %r12,0xc28(%rsp)
  403d28:	00 
  403d29:	4c 89 9c 24 30 0c 00 	mov    %r11,0xc30(%rsp)
  403d30:	00 
  403d31:	49 be 61 67 a7 bb 67 	mov    $0x40800067bba76761,%r14
  403d38:	00 80 40 
  403d3b:	4c 89 94 24 38 0c 00 	mov    %r10,0xc38(%rsp)
  403d42:	00 
  403d43:	49 bd 98 e1 6c a7 e3 	mov    $0x407fffe3a76ce198,%r13
  403d4a:	ff 7f 40 
  403d4d:	4c 89 8c 24 40 0c 00 	mov    %r9,0xc40(%rsp)
  403d54:	00 
  403d55:	49 bc 3c f5 87 30 6a 	mov    $0x4080006a3087f53c,%r12
  403d5c:	00 80 40 
  403d5f:	4c 89 84 24 48 0c 00 	mov    %r8,0xc48(%rsp)
  403d66:	00 
  403d67:	48 89 bc 24 50 0c 00 	mov    %rdi,0xc50(%rsp)
  403d6e:	00 
  403d6f:	48 89 b4 24 58 0c 00 	mov    %rsi,0xc58(%rsp)
  403d76:	00 
  403d77:	48 89 8c 24 60 0c 00 	mov    %rcx,0xc60(%rsp)
  403d7e:	00 
  403d7f:	49 bb 2a ac 58 e4 dd 	mov    $0x407fffdde458ac2a,%r11
  403d86:	ff 7f 40 
  403d89:	48 89 94 24 68 0c 00 	mov    %rdx,0xc68(%rsp)
  403d90:	00 
  403d91:	49 ba cb 60 7e 42 6c 	mov    $0x4080006c427e60cb,%r10
  403d98:	00 80 40 
  403d9b:	49 b9 90 c1 9e 37 d8 	mov    $0x407fffd8379ec190,%r9
  403da2:	ff 7f 40 
  403da5:	49 b8 bc 35 92 ff 6d 	mov    $0x4080006dff9235bc,%r8
  403dac:	00 80 40 
  403daf:	48 bf a7 13 61 a7 d2 	mov    $0x407fffd2a76113a7,%rdi
  403db6:	ff 7f 40 
  403db9:	48 be 3c 20 77 73 6f 	mov    $0x4080006f7377203c,%rsi
  403dc0:	00 80 40 
  403dc3:	48 b9 bc 47 99 38 cd 	mov    $0x407fffcd389947bc,%rcx
  403dca:	ff 7f 40 
  403dcd:	48 ba fd 2b ff a7 70 	mov    $0x40800070a7ff2bfd,%rdx
  403dd4:	00 80 40 
  403dd7:	4c 89 bc 24 70 0c 00 	mov    %r15,0xc70(%rsp)
  403dde:	00 
  403ddf:	4c 89 b4 24 78 0c 00 	mov    %r14,0xc78(%rsp)
  403de6:	00 
  403de7:	4c 89 ac 24 80 0c 00 	mov    %r13,0xc80(%rsp)
  403dee:	00 
  403def:	66 b8 19 00          	mov    $0x19,%ax
  403df3:	4c 89 a4 24 88 0c 00 	mov    %r12,0xc88(%rsp)
  403dfa:	00 
  403dfb:	4c 89 9c 24 90 0c 00 	mov    %r11,0xc90(%rsp)
  403e02:	00 
  403e03:	4c 89 94 24 98 0c 00 	mov    %r10,0xc98(%rsp)
  403e0a:	00 
  403e0b:	4c 89 8c 24 a0 0c 00 	mov    %r9,0xca0(%rsp)
  403e12:	00 
  403e13:	4c 89 84 24 a8 0c 00 	mov    %r8,0xca8(%rsp)
  403e1a:	00 
  403e1b:	48 89 bc 24 b0 0c 00 	mov    %rdi,0xcb0(%rsp)
  403e22:	00 
  403e23:	48 89 b4 24 b8 0c 00 	mov    %rsi,0xcb8(%rsp)
  403e2a:	00 
  403e2b:	48 89 8c 24 c0 0c 00 	mov    %rcx,0xcc0(%rsp)
  403e32:	00 
  403e33:	48 89 94 24 c8 0c 00 	mov    %rdx,0xcc8(%rsp)
  403e3a:	00 
  403e3b:	e9 68 01 00 00       	jmpq   403fa8 <verify_+0xbc8>
  403e40:	48 8d 9c 24 e0 01 00 	lea    0x1e0(%rsp),%rbx
  403e47:	00 
  403e48:	48 c7 84 24 e8 01 00 	movq   $0x40ce80,0x1e8(%rsp)
  403e4f:	00 80 ce 40 00 
  403e54:	c7 84 24 f0 01 00 00 	movl   $0x80d,0x1f0(%rsp)
  403e5b:	0d 08 00 00 
  403e5f:	48 c7 84 24 28 02 00 	movq   $0x40c868,0x228(%rsp)
  403e66:	00 68 c8 40 00 
  403e6b:	c7 84 24 30 02 00 00 	movl   $0x1f,0x230(%rsp)
  403e72:	1f 00 00 00 
  403e76:	48 89 df             	mov    %rbx,%rdi
  403e79:	c7 84 24 e0 01 00 00 	movl   $0x1000,0x1e0(%rsp)
  403e80:	00 10 00 00 
  403e84:	c7 84 24 e4 01 00 00 	movl   $0x6,0x1e4(%rsp)
  403e8b:	06 00 00 00 
  403e8f:	e8 2c ef ff ff       	callq  402dc0 <_gfortran_st_write@plt>
  403e94:	48 89 df             	mov    %rbx,%rdi
  403e97:	e8 74 f0 ff ff       	callq  402f10 <_gfortran_st_write_done@plt>
  403e9c:	e9 86 f7 ff ff       	jmpq   403627 <verify_+0x247>
  403ea1:	0f 1f 80 00 00 00 00 	nopl   0x0(%rax)
  403ea8:	83 3e 40             	cmpl   $0x40,(%rsi)
  403eab:	0f 85 af f5 ff ff    	jne    403460 <verify_+0x80>
  403eb1:	83 3a 40             	cmpl   $0x40,(%rdx)
  403eb4:	0f 1f 40 00          	nopl   0x0(%rax)
  403eb8:	0f 85 a2 f5 ff ff    	jne    403460 <verify_+0x80>
  403ebe:	83 39 06             	cmpl   $0x6,(%rcx)
  403ec1:	0f 85 99 f5 ff ff    	jne    403460 <verify_+0x80>
  403ec7:	41 c6 01 53          	movb   $0x53,(%r9)
  403ecb:	49 bf c7 a8 5d 9e de 	mov    $0x408154de9e5da8c7,%r15
  403ed2:	54 81 40 
  403ed5:	49 be f6 84 1e d2 94 	mov    $0x407e4894d21e84f6,%r14
  403edc:	48 7e 40 
  403edf:	49 bd ab 5e 57 bb 1b 	mov    $0x4081551bbb575eab,%r13
  403ee6:	55 81 40 
  403ee9:	49 bc 44 7e f8 a0 7c 	mov    $0x407e687ca0f87e44,%r12
  403ef0:	68 7e 40 
  403ef3:	49 bb 93 b5 8e 31 eb 	mov    $0x408154eb318eb593,%r11
  403efa:	54 81 40 
  403efd:	49 ba f9 5a f5 d4 41 	mov    $0x407e8641d4f55af9,%r10
  403f04:	86 7e 40 
  403f07:	49 b9 04 7b 3a c1 56 	mov    $0x40815456c13a7b04,%r9
  403f0e:	54 81 40 
  403f11:	49 b8 c2 57 73 7d 09 	mov    $0x407ea2097d7357c2,%r8
  403f18:	a2 7e 40 
  403f1b:	48 bf 9c 16 9f 6e 67 	mov    $0x408153676e9f169c,%rdi
  403f22:	53 81 40 
  403f25:	48 be 29 ef 86 1c f6 	mov    $0x407ebbf61c86ef29,%rsi
  403f2c:	bb 7e 40 
  403f2f:	48 b9 a1 e0 10 90 25 	mov    $0x408152259010e0a1,%rcx
  403f36:	52 81 40 
  403f39:	48 ba 13 02 df d4 27 	mov    $0x407ed427d4df0213,%rdx
  403f40:	d4 7e 40 
  403f43:	4c 89 bc 24 40 0b 00 	mov    %r15,0xb40(%rsp)
  403f4a:	00 
  403f4b:	4c 89 b4 24 48 0b 00 	mov    %r14,0xb48(%rsp)
  403f52:	00 
  403f53:	4c 89 ac 24 50 0b 00 	mov    %r13,0xb50(%rsp)
  403f5a:	00 
  403f5b:	4c 89 a4 24 58 0b 00 	mov    %r12,0xb58(%rsp)
  403f62:	00 
  403f63:	b0 06                	mov    $0x6,%al
  403f65:	4c 89 9c 24 60 0b 00 	mov    %r11,0xb60(%rsp)
  403f6c:	00 
  403f6d:	4c 89 94 24 68 0b 00 	mov    %r10,0xb68(%rsp)
  403f74:	00 
  403f75:	4c 89 8c 24 70 0b 00 	mov    %r9,0xb70(%rsp)
  403f7c:	00 
  403f7d:	4c 89 84 24 78 0b 00 	mov    %r8,0xb78(%rsp)
  403f84:	00 
  403f85:	48 89 bc 24 80 0b 00 	mov    %rdi,0xb80(%rsp)
  403f8c:	00 
  403f8d:	48 89 b4 24 88 0b 00 	mov    %rsi,0xb88(%rsp)
  403f94:	00 
  403f95:	48 89 8c 24 90 0b 00 	mov    %rcx,0xb90(%rsp)
  403f9c:	00 
  403f9d:	48 89 94 24 98 0b 00 	mov    %rdx,0xb98(%rsp)
  403fa4:	00 
  403fa5:	0f 1f 00             	nopl   (%rax)
  403fa8:	83 e8 01             	sub    $0x1,%eax
  403fab:	4c 8d b4 24 40 0b 00 	lea    0xb40(%rsp),%r14
  403fb2:	00 
  403fb3:	45 31 e4             	xor    %r12d,%r12d
  403fb6:	4c 8d 78 01          	lea    0x1(%rax),%r15
  403fba:	41 bd 01 00 00 00    	mov    $0x1,%r13d
  403fc0:	49 c1 e7 04          	shl    $0x4,%r15
  403fc4:	0f 1f 40 00          	nopl   0x0(%rax)
  403fc8:	f2 43 0f 10 04 26    	movsd  (%r14,%r12,1),%xmm0
  403fce:	f2 43 0f 10 5c 26 08 	movsd  0x8(%r14,%r12,1),%xmm3
  403fd5:	66 0f 28 e0          	movapd %xmm0,%xmm4
  403fd9:	f2 41 0f 10 94 24 70 	movsd  0x704670(%r12),%xmm2
  403fe0:	46 70 00 
  403fe3:	66 0f 28 eb          	movapd %xmm3,%xmm5
  403fe7:	66 0f 54 25 a1 8e 00 	andpd  0x8ea1(%rip),%xmm4        # 40ce90 <options.0.1652+0x30>
  403fee:	00 
  403fef:	f2 0f 5c d0          	subsd  %xmm0,%xmm2
  403ff3:	66 0f 54 2d 95 8e 00 	andpd  0x8e95(%rip),%xmm5        # 40ce90 <options.0.1652+0x30>
  403ffa:	00 
  403ffb:	f2 41 0f 10 8c 24 78 	movsd  0x704678(%r12),%xmm1
  404002:	46 70 00 
  404005:	f2 0f 5c cb          	subsd  %xmm3,%xmm1
  404009:	66 0f 2e ec          	ucomisd %xmm4,%xmm5
  40400d:	0f 86 6f 08 00 00    	jbe    404882 <verify_+0x14a2>
  404013:	66 0f 28 e8          	movapd %xmm0,%xmm5
  404017:	66 0f 28 e0          	movapd %xmm0,%xmm4
  40401b:	f2 0f 5e eb          	divsd  %xmm3,%xmm5
  40401f:	66 0f 28 c5          	movapd %xmm5,%xmm0
  404023:	f2 0f 59 e5          	mulsd  %xmm5,%xmm4
  404027:	f2 0f 59 c2          	mulsd  %xmm2,%xmm0
  40402b:	f2 0f 58 e3          	addsd  %xmm3,%xmm4
  40402f:	f2 0f 58 c1          	addsd  %xmm1,%xmm0
  404033:	f2 0f 59 cd          	mulsd  %xmm5,%xmm1
  404037:	f2 0f 5c ca          	subsd  %xmm2,%xmm1
  40403b:	f2 0f 5e c4          	divsd  %xmm4,%xmm0
  40403f:	f2 0f 5e cc          	divsd  %xmm4,%xmm1
  404043:	e8 f8 ee ff ff       	callq  402f40 <cabs@plt>
  404048:	f2 0f 10 0d 60 8e 00 	movsd  0x8e60(%rip),%xmm1        # 40ceb0 <options.0.1652+0x50>
  40404f:	00 
  404050:	b8 00 00 00 00       	mov    $0x0,%eax
  404055:	66 0f 2e c8          	ucomisd %xmm0,%xmm1
  404059:	44 0f 42 e8          	cmovb  %eax,%r13d
  40405d:	49 83 c4 10          	add    $0x10,%r12
  404061:	4d 39 fc             	cmp    %r15,%r12
  404064:	0f 85 5e ff ff ff    	jne    403fc8 <verify_+0xbe8>
  40406a:	44 89 2b             	mov    %r13d,(%rbx)
  40406d:	e9 ee f3 ff ff       	jmpq   403460 <verify_+0x80>
  404072:	66 0f 1f 44 00 00    	nopw   0x0(%rax,%rax,1)
  404078:	8b 06                	mov    (%rsi),%eax
  40407a:	3d 00 01 00 00       	cmp    $0x100,%eax
  40407f:	0f 84 0b 05 00 00    	je     404590 <verify_+0x11b0>
  404085:	3d 00 02 00 00       	cmp    $0x200,%eax
  40408a:	0f 85 d0 f3 ff ff    	jne    403460 <verify_+0x80>
  404090:	81 3a 00 02 00 00    	cmpl   $0x200,(%rdx)
  404096:	0f 85 c4 f3 ff ff    	jne    403460 <verify_+0x80>
  40409c:	83 39 14             	cmpl   $0x14,(%rcx)
  40409f:	90                   	nop
  4040a0:	0f 85 ba f3 ff ff    	jne    403460 <verify_+0x80>
  4040a6:	41 c6 01 43          	movb   $0x43,(%r9)
  4040aa:	49 bb 03 9b 89 1e 10 	mov    $0x40803c101e899b03,%r11
  4040b1:	3c 80 40 
  4040b4:	49 ba 93 e5 01 3c 37 	mov    $0x408017373c01e593,%r10
  4040bb:	17 80 40 
  4040be:	49 b9 14 0b ed 75 56 	mov    $0x40801c5675ed0b14,%r9
  4040c5:	1c 80 40 
  4040c8:	49 b8 ad 6f 09 04 10 	mov    $0x4080061004096fad,%r8
  4040cf:	06 80 40 
  4040d2:	4c 89 9c 24 40 0b 00 	mov    %r11,0xb40(%rsp)
  4040d9:	00 
  4040da:	4c 89 94 24 48 0b 00 	mov    %r10,0xb48(%rsp)
  4040e1:	00 
  4040e2:	4c 89 8c 24 50 0b 00 	mov    %r9,0xb50(%rsp)
  4040e9:	00 
  4040ea:	48 bf c3 6a 17 0f be 	mov    $0x408013be0f176ac3,%rdi
  4040f1:	13 80 40 
  4040f4:	4c 89 84 24 58 0b 00 	mov    %r8,0xb58(%rsp)
  4040fb:	00 
  4040fc:	48 be 91 b6 a9 2d cd 	mov    $0x408001cd2da9b691,%rsi
  404103:	01 80 40 
  404106:	48 b9 fa da 7a d7 1e 	mov    $0x4080101ed77adafa,%rcx
  40410d:	10 80 40 
  404110:	48 ba 66 7c 8b 4a df 	mov    $0x408000df4a8b7c66,%rdx
  404117:	00 80 40 
  40411a:	49 bf d5 2f d1 53 0a 	mov    $0x40800e0a53d12fd5,%r15
  404121:	0e 80 40 
  404124:	49 be c8 48 13 3a ea 	mov    $0x408000ea3a1348c8,%r14
  40412b:	00 80 40 
  40412e:	49 bd 92 21 bb 1a a6 	mov    $0x40800ca61abb2192,%r13
  404135:	0c 80 40 
  404138:	49 bc 7f f7 91 89 32 	mov    $0x408001328991f77f,%r12
  40413f:	01 80 40 
  404142:	49 bb 4d ce 2d cd a7 	mov    $0x40800ba7cd2dce4d,%r11
  404149:	0b 80 40 
  40414c:	49 ba 0b 93 30 2a 7f 	mov    $0x4080017f2a30930b,%r10
  404153:	01 80 40 
  404156:	49 b9 d4 97 b3 ec eb 	mov    $0x40800aebecb397d4,%r9
  40415d:	0a 80 40 
  404160:	49 b8 f2 83 7b 2d c1 	mov    $0x408001c12d7b83f2,%r8
  404167:	01 80 40 
  40416a:	48 89 bc 24 60 0b 00 	mov    %rdi,0xb60(%rsp)
  404171:	00 
  404172:	48 89 b4 24 68 0b 00 	mov    %rsi,0xb68(%rsp)
  404179:	00 
  40417a:	48 bf ae 68 36 39 5d 	mov    $0x40800a5d393668ae,%rdi
  404181:	0a 80 40 
  404184:	48 89 8c 24 70 0b 00 	mov    %rcx,0xb70(%rsp)
  40418b:	00 
  40418c:	48 89 94 24 78 0b 00 	mov    %rdx,0xb78(%rsp)
  404193:	00 
  404194:	48 be 71 1c da ba f6 	mov    $0x408001f6bada1c71,%rsi
  40419b:	01 80 40 
  40419e:	4c 89 bc 24 80 0b 00 	mov    %r15,0xb80(%rsp)
  4041a5:	00 
  4041a6:	4c 89 b4 24 88 0b 00 	mov    %r14,0xb88(%rsp)
  4041ad:	00 
  4041ae:	48 b9 1d 02 24 aa ed 	mov    $0x408009edaa24021d,%rcx
  4041b5:	09 80 40 
  4041b8:	4c 89 ac 24 90 0b 00 	mov    %r13,0xb90(%rsp)
  4041bf:	00 
  4041c0:	4c 89 a4 24 98 0b 00 	mov    %r12,0xb98(%rsp)
  4041c7:	00 
  4041c8:	48 ba 50 ca f3 83 21 	mov    $0x4080022183f3ca50,%rdx
  4041cf:	02 80 40 
  4041d2:	4c 89 9c 24 a0 0b 00 	mov    %r11,0xba0(%rsp)
  4041d9:	00 
  4041da:	4c 89 94 24 a8 0b 00 	mov    %r10,0xba8(%rsp)
  4041e1:	00 
  4041e2:	49 bf ac c5 97 b0 93 	mov    $0x40800993b097c5ac,%r15
  4041e9:	09 80 40 
  4041ec:	4c 89 8c 24 b0 0b 00 	mov    %r9,0xbb0(%rsp)
  4041f3:	00 
  4041f4:	4c 89 84 24 b8 0b 00 	mov    %r8,0xbb8(%rsp)
  4041fb:	00 
  4041fc:	49 be b2 dc a1 c3 43 	mov    $0x40800243c3a1dcb2,%r14
  404203:	02 80 40 
  404206:	49 bd dc 6a 02 bf 48 	mov    $0x40800948bf026adc,%r13
  40420d:	09 80 40 
  404210:	49 bc 68 82 fd 68 5f 	mov    $0x4080025f68fd8268,%r12
  404217:	02 80 40 
  40421a:	49 bb d9 18 a5 57 08 	mov    $0x4080090857a518d9,%r11
  404221:	09 80 40 
  404224:	49 ba ea 50 2f f3 75 	mov    $0x40800275f32f50ea,%r10
  40422b:	02 80 40 
  40422e:	49 b9 e6 f6 b5 67 cf 	mov    $0x408008cf67b5f6e6,%r9
  404235:	08 80 40 
  404238:	49 b8 b0 16 17 7f 88 	mov    $0x408002887f1716b0,%r8
  40423f:	02 80 40 
  404242:	48 89 bc 24 c0 0b 00 	mov    %rdi,0xbc0(%rsp)
  404249:	00 
  40424a:	48 89 b4 24 c8 0b 00 	mov    %rsi,0xbc8(%rsp)
  404251:	00 
  404252:	48 bf 3a ea 80 d5 9b 	mov    $0x4080089bd580ea3a,%rdi
  404259:	08 80 40 
  40425c:	48 89 8c 24 d0 0b 00 	mov    %rcx,0xbd0(%rsp)
  404263:	00 
  404264:	48 89 94 24 d8 0b 00 	mov    %rdx,0xbd8(%rsp)
  40426b:	00 
  40426c:	48 be 8e 04 24 de 97 	mov    $0x40800297de24048e,%rsi
  404273:	02 80 40 
  404276:	4c 89 bc 24 e0 0b 00 	mov    %r15,0xbe0(%rsp)
  40427d:	00 
  40427e:	4c 89 b4 24 e8 0b 00 	mov    %r14,0xbe8(%rsp)
  404285:	00 
  404286:	48 b9 84 d9 eb 31 6c 	mov    $0x4080086c31ebd984,%rcx
  40428d:	08 80 40 
  404290:	4c 89 ac 24 f0 0b 00 	mov    %r13,0xbf0(%rsp)
  404297:	00 
  404298:	4c 89 a4 24 f8 0b 00 	mov    %r12,0xbf8(%rsp)
  40429f:	00 
  4042a0:	48 ba f8 f9 b9 aa a4 	mov    $0x408002a4aab9f9f8,%rdx
  4042a7:	02 80 40 
  4042aa:	4c 89 9c 24 00 0c 00 	mov    %r11,0xc00(%rsp)
  4042b1:	00 
  4042b2:	4c 89 94 24 08 0c 00 	mov    %r10,0xc08(%rsp)
  4042b9:	00 
  4042ba:	49 bf 9e 12 94 82 3f 	mov    $0x4080083f8294129e,%r15
  4042c1:	08 80 40 
  4042c4:	4c 89 8c 24 10 0c 00 	mov    %r9,0xc10(%rsp)
  4042cb:	00 
  4042cc:	4c 89 84 24 18 0c 00 	mov    %r8,0xc18(%rsp)
  4042d3:	00 
  4042d4:	49 be 71 0d dc 57 af 	mov    $0x408002af57dc0d71,%r14
  4042db:	02 80 40 
  4042de:	49 bd d2 57 e4 1c 15 	mov    $0x408008151ce457d2,%r13
  4042e5:	08 80 40 
  4042e8:	49 bc c9 44 8a 3c b8 	mov    $0x408002b83c8a44c9,%r12
  4042ef:	02 80 40 
  4042f2:	49 bb ed 48 cd 8c ec 	mov    $0x408007ec8ccd48ed,%r11
  4042f9:	07 80 40 
  4042fc:	49 ba 75 ca ce 9b bf 	mov    $0x408002bf9bceca75,%r10
  404303:	02 80 40 
  404306:	49 b9 2f 02 71 83 c5 	mov    $0x408007c58371022f,%r9
  40430d:	07 80 40 
  404310:	49 b8 b6 07 64 aa c5 	mov    $0x408002c5aa6407b6,%r8
  404317:	02 80 40 
  40431a:	48 89 bc 24 20 0c 00 	mov    %rdi,0xc20(%rsp)
  404321:	00 
  404322:	48 89 b4 24 28 0c 00 	mov    %rsi,0xc28(%rsp)
  404329:	00 
  40432a:	66 b8 14 00          	mov    $0x14,%ax
  40432e:	48 89 8c 24 30 0c 00 	mov    %rcx,0xc30(%rsp)
  404335:	00 
  404336:	48 89 94 24 38 0c 00 	mov    %rdx,0xc38(%rsp)
  40433d:	00 
  40433e:	4c 89 bc 24 40 0c 00 	mov    %r15,0xc40(%rsp)
  404345:	00 
  404346:	4c 89 b4 24 48 0c 00 	mov    %r14,0xc48(%rsp)
  40434d:	00 
  40434e:	4c 89 ac 24 50 0c 00 	mov    %r13,0xc50(%rsp)
  404355:	00 
  404356:	4c 89 a4 24 58 0c 00 	mov    %r12,0xc58(%rsp)
  40435d:	00 
  40435e:	4c 89 9c 24 60 0c 00 	mov    %r11,0xc60(%rsp)
  404365:	00 
  404366:	4c 89 94 24 68 0c 00 	mov    %r10,0xc68(%rsp)
  40436d:	00 
  40436e:	4c 89 8c 24 70 0c 00 	mov    %r9,0xc70(%rsp)
  404375:	00 
  404376:	4c 89 84 24 78 0c 00 	mov    %r8,0xc78(%rsp)
  40437d:	00 
  40437e:	e9 25 fc ff ff       	jmpq   403fa8 <verify_+0xbc8>
  404383:	0f 1f 44 00 00       	nopl   0x0(%rax,%rax,1)
  404388:	81 3e 80 00 00 00    	cmpl   $0x80,(%rsi)
  40438e:	0f 85 cc f0 ff ff    	jne    403460 <verify_+0x80>
  404394:	83 3a 20             	cmpl   $0x20,(%rdx)
  404397:	0f 85 c3 f0 ff ff    	jne    403460 <verify_+0x80>
  40439d:	83 39 06             	cmpl   $0x6,(%rcx)
  4043a0:	0f 85 ba f0 ff ff    	jne    403460 <verify_+0x80>
  4043a6:	41 c6 01 57          	movb   $0x57,(%r9)
  4043aa:	49 bf 6d 19 35 c6 e3 	mov    $0x4081bae3c635196d,%r15
  4043b1:	ba 81 40 
  4043b4:	49 be 56 f1 67 f4 98 	mov    $0x40808a98f467f156,%r14
  4043bb:	8a 80 40 
  4043be:	49 bd a4 a5 2b 46 26 	mov    $0x40819926462ba5a4,%r13
  4043c5:	99 81 40 
  4043c8:	49 bc b7 0e 38 51 b8 	mov    $0x408081b851380eb7,%r12
  4043cf:	81 80 40 
  4043d2:	49 bb d9 4d 35 22 38 	mov    $0x40817b3822354dd9,%r11
  4043d9:	7b 81 40 
  4043dc:	49 ba fc 8d 57 18 cc 	mov    $0x408078cc18578dfc,%r10
  4043e3:	78 80 40 
  4043e6:	49 b9 94 81 c4 f5 8e 	mov    $0x4081608ef5c48194,%r9
  4043ed:	60 81 40 
  4043f0:	49 b8 38 90 05 b7 05 	mov    $0x40807005b7059038,%r8
  4043f7:	70 80 40 
  4043fa:	48 bf 83 4e 08 1d b8 	mov    $0x408148b81d084e83,%rdi
  404401:	48 81 40 
  404404:	48 be c9 36 0e 4b 85 	mov    $0x408067854b0e36c9,%rsi
  40440b:	67 80 40 
  40440e:	48 b9 9a e0 e3 e9 53 	mov    $0x40813353e9e3e09a,%rcx
  404415:	33 81 40 
  404418:	48 ba a2 5d 0f ab 5e 	mov    $0x40805f5eab0f5da2,%rdx
  40441f:	5f 80 40 
  404422:	4c 89 bc 24 40 0b 00 	mov    %r15,0xb40(%rsp)
  404429:	00 
  40442a:	4c 89 b4 24 48 0b 00 	mov    %r14,0xb48(%rsp)
  404431:	00 
  404432:	4c 89 ac 24 50 0b 00 	mov    %r13,0xb50(%rsp)
  404439:	00 
  40443a:	4c 89 a4 24 58 0b 00 	mov    %r12,0xb58(%rsp)
  404441:	00 
  404442:	b0 06                	mov    $0x6,%al
  404444:	4c 89 9c 24 60 0b 00 	mov    %r11,0xb60(%rsp)
  40444b:	00 
  40444c:	4c 89 94 24 68 0b 00 	mov    %r10,0xb68(%rsp)
  404453:	00 
  404454:	4c 89 8c 24 70 0b 00 	mov    %r9,0xb70(%rsp)
  40445b:	00 
  40445c:	4c 89 84 24 78 0b 00 	mov    %r8,0xb78(%rsp)
  404463:	00 
  404464:	48 89 bc 24 80 0b 00 	mov    %rdi,0xb80(%rsp)
  40446b:	00 
  40446c:	48 89 b4 24 88 0b 00 	mov    %rsi,0xb88(%rsp)
  404473:	00 
  404474:	48 89 8c 24 90 0b 00 	mov    %rcx,0xb90(%rsp)
  40447b:	00 
  40447c:	48 89 94 24 98 0b 00 	mov    %rdx,0xb98(%rsp)
  404483:	00 
  404484:	e9 1f fb ff ff       	jmpq   403fa8 <verify_+0xbc8>
  404489:	0f 1f 80 00 00 00 00 	nopl   0x0(%rax)
  404490:	81 3a 80 00 00 00    	cmpl   $0x80,(%rdx)
  404496:	0f 85 c4 ef ff ff    	jne    403460 <verify_+0x80>
  40449c:	83 39 06             	cmpl   $0x6,(%rcx)
  40449f:	0f 85 bb ef ff ff    	jne    403460 <verify_+0x80>
  4044a5:	41 c6 01 41          	movb   $0x41,(%r9)
  4044a9:	49 bf 90 8b cb a8 c6 	mov    $0x407f8ac6a8cb8b90,%r15
  4044b0:	8a 7f 40 
  4044b3:	49 be 66 24 a8 05 7a 	mov    $0x407ff67a05a82466,%r14
  4044ba:	f6 7f 40 
  4044bd:	49 bd 3e fb 41 49 0f 	mov    $0x407f9f0f4941fb3e,%r13
  4044c4:	9f 7f 40 
  4044c7:	49 bc 72 9d 7a 70 18 	mov    $0x407fde18707a9d72,%r12
  4044ce:	de 7f 40 
  4044d1:	49 bb 0a 11 d7 c6 00 	mov    $0x407faf00c6d7110a,%r11
  4044d8:	af 7f 40 
  4044db:	49 ba 53 83 b8 cc 07 	mov    $0x407fdd07ccb88353,%r10
  4044e2:	dd 7f 40 
  4044e5:	49 b9 ef cb 3e eb a0 	mov    $0x407fbca0eb3ecbef,%r9
  4044ec:	bc 7f 40 
  4044ef:	49 b8 ef f4 76 47 23 	mov    $0x407fe2234776f4ef,%r8
  4044f6:	e2 7f 40 
  4044f9:	48 bf e9 c1 d2 79 5f 	mov    $0x407fc85f79d2c1e9,%rdi
  404500:	c8 7f 40 
  404503:	48 be f4 ce f2 0a dd 	mov    $0x407fe7dd0af2cef4,%rsi
  40450a:	e7 7f 40 
  40450d:	48 b9 a9 8f bb 1d 61 	mov    $0x407fd2611dbb8fa9,%rcx
  404514:	d2 7f 40 
  404517:	48 ba 02 56 fe 25 ab 	mov    $0x407fecab25fe5602,%rdx
  40451e:	ec 7f 40 
  404521:	4c 89 bc 24 40 0b 00 	mov    %r15,0xb40(%rsp)
  404528:	00 
  404529:	4c 89 b4 24 48 0b 00 	mov    %r14,0xb48(%rsp)
  404530:	00 
  404531:	4c 89 ac 24 50 0b 00 	mov    %r13,0xb50(%rsp)
  404538:	00 
  404539:	4c 89 a4 24 58 0b 00 	mov    %r12,0xb58(%rsp)
  404540:	00 
  404541:	66 b8 06 00          	mov    $0x6,%ax
  404545:	4c 89 9c 24 60 0b 00 	mov    %r11,0xb60(%rsp)
  40454c:	00 
  40454d:	4c 89 94 24 68 0b 00 	mov    %r10,0xb68(%rsp)
  404554:	00 
  404555:	4c 89 8c 24 70 0b 00 	mov    %r9,0xb70(%rsp)
  40455c:	00 
  40455d:	4c 89 84 24 78 0b 00 	mov    %r8,0xb78(%rsp)
  404564:	00 
  404565:	48 89 bc 24 80 0b 00 	mov    %rdi,0xb80(%rsp)
  40456c:	00 
  40456d:	48 89 b4 24 88 0b 00 	mov    %rsi,0xb88(%rsp)
  404574:	00 
  404575:	48 89 8c 24 90 0b 00 	mov    %rcx,0xb90(%rsp)
  40457c:	00 
  40457d:	48 89 94 24 98 0b 00 	mov    %rdx,0xb98(%rsp)
  404584:	00 
  404585:	e9 1e fa ff ff       	jmpq   403fa8 <verify_+0xbc8>
  40458a:	66 0f 1f 44 00 00    	nopw   0x0(%rax,%rax,1)
  404590:	81 3a 00 01 00 00    	cmpl   $0x100,(%rdx)
  404596:	0f 85 c4 ee ff ff    	jne    403460 <verify_+0x80>
  40459c:	83 39 14             	cmpl   $0x14,(%rcx)
  40459f:	0f 85 bb ee ff ff    	jne    403460 <verify_+0x80>
  4045a5:	49 bf 27 1d 49 67 1d 	mov    $0x40802e1d67491d27,%r15
  4045ac:	2e 80 40 
  4045af:	49 be b0 af f0 4b 7c 	mov    $0x407fbc7c4bf0afb0,%r14
  4045b6:	bc 7f 40 
  4045b9:	49 bd 38 18 e0 f5 9d 	mov    $0x40801b9df5e01838,%r13
  4045c0:	1b 80 40 
  4045c3:	49 bc 45 4d 99 f7 32 	mov    $0x407fcd32f7994d45,%r12
  4045ca:	cd 7f 40 
  4045cd:	41 c6 01 42          	movb   $0x42,(%r9)
  4045d1:	4c 89 bc 24 40 0b 00 	mov    %r15,0xb40(%rsp)
  4045d8:	00 
  4045d9:	4c 89 b4 24 48 0b 00 	mov    %r14,0xb48(%rsp)
  4045e0:	00 
  4045e1:	4c 89 ac 24 50 0b 00 	mov    %r13,0xb50(%rsp)
  4045e8:	00 
  4045e9:	49 bb 08 c0 2a 9c 20 	mov    $0x408015209c2ac008,%r11
  4045f0:	15 80 40 
  4045f3:	4c 89 a4 24 58 0b 00 	mov    %r12,0xb58(%rsp)
  4045fa:	00 
  4045fb:	49 ba 9a 16 ae 2b ef 	mov    $0x407fd9ef2bae169a,%r10
  404602:	d9 7f 40 
  404605:	49 b9 fe 6f 55 2b e7 	mov    $0x408011e72b556ffe,%r9
  40460c:	11 80 40 
  40460f:	49 b8 94 37 f8 2d a3 	mov    $0x407fe1a32df83794,%r8
  404616:	e1 7f 40 
  404619:	48 bf e6 2f a3 8a b3 	mov    $0x40800fb38aa32fe6,%rdi
  404620:	0f 80 40 
  404623:	48 be 4e 6e d8 d1 5c 	mov    $0x407fe65cd1d86e4e,%rsi
  40462a:	e6 7f 40 
  40462d:	48 b9 48 9c 1a 53 f0 	mov    $0x40800df0531a9c48,%rcx
  404634:	0d 80 40 
  404637:	48 ba e1 c8 14 4f 84 	mov    $0x407fe9844f14c8e1,%rdx
  40463e:	e9 7f 40 
  404641:	49 bf 0d 20 89 09 70 	mov    $0x40800c700989200d,%r15
  404648:	0c 80 40 
  40464b:	49 be 70 d3 0d bf d8 	mov    $0x407febd8bf0dd370,%r14
  404652:	eb 7f 40 
  404655:	49 bd da 0a 21 f5 20 	mov    $0x40800b20f5210ada,%r13
  40465c:	0b 80 40 
  40465f:	49 bc 2b 29 ee f6 b8 	mov    $0x407fedb8f6ee292b,%r12
  404666:	ed 7f 40 
  404669:	4c 89 9c 24 60 0b 00 	mov    %r11,0xb60(%rsp)
  404670:	00 
  404671:	4c 89 94 24 68 0b 00 	mov    %r10,0xb68(%rsp)
  404678:	00 
  404679:	49 bb 7b 66 1e 00 fa 	mov    $0x408009fa001e667b,%r11
  404680:	09 80 40 
  404683:	4c 89 8c 24 70 0b 00 	mov    %r9,0xb70(%rsp)
  40468a:	00 
  40468b:	4c 89 84 24 78 0b 00 	mov    %r8,0xb78(%rsp)
  404692:	00 
  404693:	49 ba 8d c1 70 da 52 	mov    $0x407fef52da70c18d,%r10
  40469a:	ef 7f 40 
  40469d:	48 89 bc 24 80 0b 00 	mov    %rdi,0xb80(%rsp)
  4046a4:	00 
  4046a5:	48 89 b4 24 88 0b 00 	mov    %rsi,0xb88(%rsp)
  4046ac:	00 
  4046ad:	49 b9 93 b8 8b 4b f5 	mov    $0x408008f54b8bb893,%r9
  4046b4:	08 80 40 
  4046b7:	48 89 8c 24 90 0b 00 	mov    %rcx,0xb90(%rsp)
  4046be:	00 
  4046bf:	48 89 94 24 98 0b 00 	mov    %rdx,0xb98(%rsp)
  4046c6:	00 
  4046c7:	49 b8 19 61 6c 8a bc 	mov    $0x407ff0bc8a6c6119,%r8
  4046ce:	f0 7f 40 
  4046d1:	4c 89 bc 24 a0 0b 00 	mov    %r15,0xba0(%rsp)
  4046d8:	00 
  4046d9:	4c 89 b4 24 a8 0b 00 	mov    %r14,0xba8(%rsp)
  4046e0:	00 
  4046e1:	48 bf 9c 70 c1 66 0e 	mov    $0x4080080e66c1709c,%rdi
  4046e8:	08 80 40 
  4046eb:	4c 89 ac 24 b0 0b 00 	mov    %r13,0xbb0(%rsp)
  4046f2:	00 
  4046f3:	4c 89 a4 24 b8 0b 00 	mov    %r12,0xbb8(%rsp)
  4046fa:	00 
  4046fb:	48 be 3f d2 33 ff 00 	mov    $0x407ff200ff33d23f,%rsi
  404702:	f2 7f 40 
  404705:	48 b9 ad 37 5f a5 41 	mov    $0x40800741a55f37ad,%rcx
  40470c:	07 80 40 
  40470f:	48 ba ad f7 e7 1f 26 	mov    $0x407ff3261fe7f7ad,%rdx
  404716:	f3 7f 40 
  404719:	49 bf 74 36 c3 da 8b 	mov    $0x4080068bdac33674,%r15
  404720:	06 80 40 
  404723:	49 be c0 8d eb 9b 2f 	mov    $0x407ff42f9beb8dc0,%r14
  40472a:	f4 7f 40 
  40472d:	49 bd 43 9c 91 3c ea 	mov    $0x408005ea3c919c43,%r13
  404734:	05 80 40 
  404737:	49 bc 54 b1 63 32 20 	mov    $0x407ff5203263b154,%r12
  40473e:	f5 7f 40 
  404741:	4c 89 9c 24 c0 0b 00 	mov    %r11,0xbc0(%rsp)
  404748:	00 
  404749:	4c 89 94 24 c8 0b 00 	mov    %r10,0xbc8(%rsp)
  404750:	00 
  404751:	49 bb 20 39 5a 54 5a 	mov    $0x4080055a545a3920,%r11
  404758:	05 80 40 
  40475b:	4c 89 8c 24 d0 0b 00 	mov    %r9,0xbd0(%rsp)
  404762:	00 
  404763:	4c 89 84 24 d8 0b 00 	mov    %r8,0xbd8(%rsp)
  40476a:	00 
  40476b:	49 ba 6e 1f 74 3c fa 	mov    $0x407ff5fa3c741f6e,%r10
  404772:	f5 7f 40 
  404775:	48 89 bc 24 e0 0b 00 	mov    %rdi,0xbe0(%rsp)
  40477c:	00 
  40477d:	48 89 b4 24 e8 0b 00 	mov    %rsi,0xbe8(%rsp)
  404784:	00 
  404785:	49 b9 e1 b8 b6 f6 d9 	mov    $0x408004d9f6b6b8e1,%r9
  40478c:	04 80 40 
  40478f:	48 89 8c 24 f0 0b 00 	mov    %rcx,0xbf0(%rsp)
  404796:	00 
  404797:	48 89 94 24 f8 0b 00 	mov    %rdx,0xbf8(%rsp)
  40479e:	00 
  40479f:	49 b8 01 15 a6 e1 bf 	mov    $0x407ff6bfe1a61501,%r8
  4047a6:	f6 7f 40 
  4047a9:	4c 89 bc 24 00 0c 00 	mov    %r15,0xc00(%rsp)
  4047b0:	00 
  4047b1:	4c 89 b4 24 08 0c 00 	mov    %r14,0xc08(%rsp)
  4047b8:	00 
  4047b9:	48 bf 44 32 21 3c 67 	mov    $0x408004673c213244,%rdi
  4047c0:	04 80 40 
  4047c3:	4c 89 ac 24 10 0c 00 	mov    %r13,0xc10(%rsp)
  4047ca:	00 
  4047cb:	4c 89 a4 24 18 0c 00 	mov    %r12,0xc18(%rsp)
  4047d2:	00 
  4047d3:	48 be b0 f7 a3 27 73 	mov    $0x407ff77327a3f7b0,%rsi
  4047da:	f7 7f 40 
  4047dd:	48 b9 ea d0 3f 7a 00 	mov    $0x408004007a3fd0ea,%rcx
  4047e4:	04 80 40 
  4047e7:	48 ba de c1 f1 f3 15 	mov    $0x407ff815f3f1c1de,%rdx
  4047ee:	f8 7f 40 
  4047f1:	49 bf 3b 79 5f 3d a4 	mov    $0x408003a43d5f793b,%r15
  4047f8:	03 80 40 
  4047fb:	49 be a0 02 94 09 aa 	mov    $0x407ff8aa099402a0,%r14
  404802:	f8 7f 40 
  404805:	49 bd df 2e 2d 42 51 	mov    $0x40800351422d2edf,%r13
  40480c:	03 80 40 
  40480f:	49 bc ee 52 a3 06 31 	mov    $0x407ff93106a352ee,%r12
  404816:	f9 7f 40 
  404819:	4c 89 9c 24 20 0c 00 	mov    %r11,0xc20(%rsp)
  404820:	00 
  404821:	4c 89 94 24 28 0c 00 	mov    %r10,0xc28(%rsp)
  404828:	00 
  404829:	66 b8 14 00          	mov    $0x14,%ax
  40482d:	4c 89 8c 24 30 0c 00 	mov    %r9,0xc30(%rsp)
  404834:	00 
  404835:	4c 89 84 24 38 0c 00 	mov    %r8,0xc38(%rsp)
  40483c:	00 
  40483d:	48 89 bc 24 40 0c 00 	mov    %rdi,0xc40(%rsp)
  404844:	00 
  404845:	48 89 b4 24 48 0c 00 	mov    %rsi,0xc48(%rsp)
  40484c:	00 
  40484d:	48 89 8c 24 50 0c 00 	mov    %rcx,0xc50(%rsp)
  404854:	00 
  404855:	48 89 94 24 58 0c 00 	mov    %rdx,0xc58(%rsp)
  40485c:	00 
  40485d:	4c 89 bc 24 60 0c 00 	mov    %r15,0xc60(%rsp)
  404864:	00 
  404865:	4c 89 b4 24 68 0c 00 	mov    %r14,0xc68(%rsp)
  40486c:	00 
  40486d:	4c 89 ac 24 70 0c 00 	mov    %r13,0xc70(%rsp)
  404874:	00 
  404875:	4c 89 a4 24 78 0c 00 	mov    %r12,0xc78(%rsp)
  40487c:	00 
  40487d:	e9 26 f7 ff ff       	jmpq   403fa8 <verify_+0xbc8>
  404882:	66 0f 28 e3          	movapd %xmm3,%xmm4
  404886:	f2 0f 5e e0          	divsd  %xmm0,%xmm4
  40488a:	f2 0f 59 dc          	mulsd  %xmm4,%xmm3
  40488e:	f2 0f 58 d8          	addsd  %xmm0,%xmm3
  404892:	66 0f 28 c1          	movapd %xmm1,%xmm0
  404896:	f2 0f 59 c4          	mulsd  %xmm4,%xmm0
  40489a:	f2 0f 58 c2          	addsd  %xmm2,%xmm0
  40489e:	f2 0f 59 d4          	mulsd  %xmm4,%xmm2
  4048a2:	f2 0f 5c ca          	subsd  %xmm2,%xmm1
  4048a6:	f2 0f 5e c3          	divsd  %xmm3,%xmm0
  4048aa:	f2 0f 5e cb          	divsd  %xmm3,%xmm1
  4048ae:	e9 90 f7 ff ff       	jmpq   404043 <verify_+0xc63>
  4048b3:	66 66 66 66 2e 0f 1f 	data32 data32 data32 nopw %cs:0x0(%rax,%rax,1)
  4048ba:	84 00 00 00 00 00 

00000000004048c0 <synchup_>:
  4048c0:	48 83 ec 18          	sub    $0x18,%rsp
  4048c4:	bf 90 c8 40 00       	mov    $0x40c890,%edi
  4048c9:	31 c0                	xor    %eax,%eax
  4048cb:	e8 f0 5f 00 00       	callq  40a8c0 <timer_start_>
  4048d0:	48 8d 74 24 0c       	lea    0xc(%rsp),%rsi
  4048d5:	bf 60 c7 40 00       	mov    $0x40c760,%edi
  4048da:	31 c0                	xor    %eax,%eax
  4048dc:	e8 4f e4 ff ff       	callq  402d30 <mpi_barrier_@plt>
  4048e1:	bf 90 c8 40 00       	mov    $0x40c890,%edi
  4048e6:	31 c0                	xor    %eax,%eax
  4048e8:	e8 a3 5f 00 00       	callq  40a890 <timer_stop_>
  4048ed:	48 83 c4 18          	add    $0x18,%rsp
  4048f1:	c3                   	retq   
  4048f2:	66 66 66 66 66 2e 0f 	data32 data32 data32 data32 nopw %cs:0x0(%rax,%rax,1)
  4048f9:	1f 84 00 00 00 00 00 

0000000000404900 <checksum_>:
  404900:	41 57                	push   %r15
  404902:	41 56                	push   %r14
  404904:	41 55                	push   %r13
  404906:	41 54                	push   %r12
  404908:	55                   	push   %rbp
  404909:	53                   	push   %rbx
  40490a:	48 81 ec 58 02 00 00 	sub    $0x258,%rsp
  404911:	4c 63 32             	movslq (%rdx),%r14
  404914:	48 63 01             	movslq (%rcx),%rax
  404917:	31 d2                	xor    %edx,%edx
  404919:	44 8b 1d d0 f7 21 00 	mov    0x21f7d0(%rip),%r11d        # 6240f0 <layout_+0x30>
  404920:	44 8b 25 d5 f7 21 00 	mov    0x21f7d5(%rip),%r12d        # 6240fc <layout_+0x3c>
  404927:	44 8b 05 b6 f7 21 00 	mov    0x21f7b6(%rip),%r8d        # 6240e4 <layout_+0x24>
  40492e:	48 89 7c 24 38       	mov    %rdi,0x38(%rsp)
  404933:	b9 03 00 00 00       	mov    $0x3,%ecx
  404938:	44 8b 15 c9 f7 21 00 	mov    0x21f7c9(%rip),%r10d        # 624108 <layout_+0x48>
  40493f:	8b 2d cf f7 21 00    	mov    0x21f7cf(%rip),%ebp        # 624114 <layout_+0x54>
  404945:	bf 05 00 00 00       	mov    $0x5,%edi
  40494a:	4d 85 f6             	test   %r14,%r14
  40494d:	44 8b 3d cc f7 21 00 	mov    0x21f7cc(%rip),%r15d        # 624120 <layout_+0x60>
  404954:	4c 0f 48 f2          	cmovs  %rdx,%r14
  404958:	49 0f af c6          	imul   %r14,%rax
  40495c:	4d 89 f5             	mov    %r14,%r13
  40495f:	49 f7 d5             	not    %r13
  404962:	48 85 c0             	test   %rax,%rax
  404965:	48 0f 49 d0          	cmovns %rax,%rdx
  404969:	31 c0                	xor    %eax,%eax
  40496b:	48 89 44 24 18       	mov    %rax,0x18(%rsp)
  404970:	48 89 84 24 28 02 00 	mov    %rax,0x228(%rsp)
  404977:	00 
  404978:	49 29 d5             	sub    %rdx,%r13
  40497b:	48 89 84 24 30 02 00 	mov    %rax,0x230(%rsp)
  404982:	00 
  404983:	b8 01 00 00 00       	mov    $0x1,%eax
  404988:	48 89 54 24 20       	mov    %rdx,0x20(%rsp)
  40498d:	89 c2                	mov    %eax,%edx
  40498f:	44 29 d8             	sub    %r11d,%eax
  404992:	44 29 e2             	sub    %r12d,%edx
  404995:	89 44 24 2c          	mov    %eax,0x2c(%rsp)
  404999:	b8 01 00 00 00       	mov    $0x1,%eax
  40499e:	f2 0f 10 44 24 18    	movsd  0x18(%rsp),%xmm0
  4049a4:	89 54 24 30          	mov    %edx,0x30(%rsp)
  4049a8:	89 c2                	mov    %eax,%edx
  4049aa:	44 29 c2             	sub    %r8d,%edx
  4049ad:	66 0f 28 c8          	movapd %xmm0,%xmm1
  4049b1:	66 0f 28 d8          	movapd %xmm0,%xmm3
  4049b5:	89 54 24 34          	mov    %edx,0x34(%rsp)
  4049b9:	66 0f 28 d0          	movapd %xmm0,%xmm2
  4049bd:	e9 99 00 00 00       	jmpq   404a5b <checksum_+0x15b>
  4049c2:	66 0f 1f 44 00 00    	nopw   0x0(%rax,%rax,1)
  4049c8:	44 39 d2             	cmp    %r10d,%edx
  4049cb:	0f 8f 9b 00 00 00    	jg     404a6c <checksum_+0x16c>
  4049d1:	89 cb                	mov    %ecx,%ebx
  4049d3:	83 e3 3f             	and    $0x3f,%ebx
  4049d6:	83 c3 01             	add    $0x1,%ebx
  4049d9:	44 39 db             	cmp    %r11d,%ebx
  4049dc:	0f 8c 8a 00 00 00    	jl     404a6c <checksum_+0x16c>
  4049e2:	39 eb                	cmp    %ebp,%ebx
  4049e4:	0f 8f 82 00 00 00    	jg     404a6c <checksum_+0x16c>
  4049ea:	41 89 f9             	mov    %edi,%r9d
  4049ed:	41 83 e1 3f          	and    $0x3f,%r9d
  4049f1:	41 83 c1 01          	add    $0x1,%r9d
  4049f5:	45 39 e1             	cmp    %r12d,%r9d
  4049f8:	7c 72                	jl     404a6c <checksum_+0x16c>
  4049fa:	45 39 f9             	cmp    %r15d,%r9d
  4049fd:	7f 6d                	jg     404a6c <checksum_+0x16c>
  4049ff:	44 03 4c 24 30       	add    0x30(%rsp),%r9d
  404a04:	03 5c 24 2c          	add    0x2c(%rsp),%ebx
  404a08:	83 c7 05             	add    $0x5,%edi
  404a0b:	03 54 24 34          	add    0x34(%rsp),%edx
  404a0f:	83 c1 03             	add    $0x3,%ecx
  404a12:	4d 63 c9             	movslq %r9d,%r9
  404a15:	48 63 db             	movslq %ebx,%rbx
  404a18:	4c 0f af 4c 24 20    	imul   0x20(%rsp),%r9
  404a1e:	49 0f af de          	imul   %r14,%rbx
  404a22:	48 63 d2             	movslq %edx,%rdx
  404a25:	4c 01 ea             	add    %r13,%rdx
  404a28:	4c 01 ca             	add    %r9,%rdx
  404a2b:	48 01 da             	add    %rbx,%rdx
  404a2e:	48 c1 e2 04          	shl    $0x4,%rdx
  404a32:	3d 00 04 00 00       	cmp    $0x400,%eax
  404a37:	f2 0f 10 04 32       	movsd  (%rdx,%rsi,1),%xmm0
  404a3c:	f2 0f 10 4c 32 08    	movsd  0x8(%rdx,%rsi,1),%xmm1
  404a42:	f2 0f 58 c2          	addsd  %xmm2,%xmm0
  404a46:	f2 0f 58 cb          	addsd  %xmm3,%xmm1
  404a4a:	66 0f 28 d0          	movapd %xmm0,%xmm2
  404a4e:	66 0f 28 d9          	movapd %xmm1,%xmm3
  404a52:	74 2d                	je     404a81 <checksum_+0x181>
  404a54:	0f 1f 40 00          	nopl   0x0(%rax)
  404a58:	83 c0 01             	add    $0x1,%eax
  404a5b:	89 c2                	mov    %eax,%edx
  404a5d:	83 e2 3f             	and    $0x3f,%edx
  404a60:	83 c2 01             	add    $0x1,%edx
  404a63:	44 39 c2             	cmp    %r8d,%edx
  404a66:	0f 8d 5c ff ff ff    	jge    4049c8 <checksum_+0xc8>
  404a6c:	83 c7 05             	add    $0x5,%edi
  404a6f:	83 c1 03             	add    $0x3,%ecx
  404a72:	3d 00 04 00 00       	cmp    $0x400,%eax
  404a77:	66 0f 28 d0          	movapd %xmm0,%xmm2
  404a7b:	66 0f 28 d9          	movapd %xmm1,%xmm3
  404a7f:	75 d7                	jne    404a58 <checksum_+0x158>
  404a81:	f2 0f 10 15 2f 84 00 	movsd  0x842f(%rip),%xmm2        # 40ceb8 <options.0.1652+0x58>
  404a88:	00 
  404a89:	8b 1d 29 f6 21 00    	mov    0x21f629(%rip),%ebx        # 6240b8 <dbg_+0x8>
  404a8f:	f2 0f 59 c2          	mulsd  %xmm2,%xmm0
  404a93:	f2 0f 59 ca          	mulsd  %xmm2,%xmm1
  404a97:	85 db                	test   %ebx,%ebx
  404a99:	f2 0f 11 84 24 28 02 	movsd  %xmm0,0x228(%rsp)
  404aa0:	00 00 
  404aa2:	f2 0f 11 8c 24 30 02 	movsd  %xmm1,0x230(%rsp)
  404aa9:	00 00 
  404aab:	0f 85 9e 00 00 00    	jne    404b4f <checksum_+0x24f>
  404ab1:	48 8d 84 24 4c 02 00 	lea    0x24c(%rsp),%rax
  404ab8:	00 
  404ab9:	48 8d 9c 24 38 02 00 	lea    0x238(%rsp),%rbx
  404ac0:	00 
  404ac1:	48 8d bc 24 28 02 00 	lea    0x228(%rsp),%rdi
  404ac8:	00 
  404ac9:	b9 70 41 62 00       	mov    $0x624170,%ecx
  404ace:	41 b9 60 c7 40 00    	mov    $0x40c760,%r9d
  404ad4:	41 b8 94 c8 40 00    	mov    $0x40c894,%r8d
  404ada:	48 89 44 24 08       	mov    %rax,0x8(%rsp)
  404adf:	ba 98 c8 40 00       	mov    $0x40c898,%edx
  404ae4:	31 c0                	xor    %eax,%eax
  404ae6:	48 89 de             	mov    %rbx,%rsi
  404ae9:	48 c7 04 24 60 c7 40 	movq   $0x40c760,(%rsp)
  404af0:	00 
  404af1:	e8 ba e3 ff ff       	callq  402eb0 <mpi_reduce_@plt>
  404af6:	8b 0d bc f5 21 00    	mov    0x21f5bc(%rip),%ecx        # 6240b8 <dbg_+0x8>
  404afc:	85 c9                	test   %ecx,%ecx
  404afe:	0f 85 d0 00 00 00    	jne    404bd4 <checksum_+0x2d4>
  404b04:	8b 15 76 f5 21 00    	mov    0x21f576(%rip),%edx        # 624080 <coords_>
  404b0a:	85 d2                	test   %edx,%edx
  404b0c:	74 52                	je     404b60 <checksum_+0x260>
  404b0e:	48 8b 54 24 38       	mov    0x38(%rsp),%rdx
  404b13:	8b 02                	mov    (%rdx),%eax
  404b15:	85 c0                	test   %eax,%eax
  404b17:	7e 24                	jle    404b3d <checksum_+0x23d>
  404b19:	48 8b 94 24 38 02 00 	mov    0x238(%rsp),%rdx
  404b20:	00 
  404b21:	48 98                	cltq   
  404b23:	48 c1 e0 04          	shl    $0x4,%rax
  404b27:	48 89 90 60 46 70 00 	mov    %rdx,0x704660(%rax)
  404b2e:	48 8b 94 24 40 02 00 	mov    0x240(%rsp),%rdx
  404b35:	00 
  404b36:	48 89 90 68 46 70 00 	mov    %rdx,0x704668(%rax)
  404b3d:	48 81 c4 58 02 00 00 	add    $0x258,%rsp
  404b44:	5b                   	pop    %rbx
  404b45:	5d                   	pop    %rbp
  404b46:	41 5c                	pop    %r12
  404b48:	41 5d                	pop    %r13
  404b4a:	41 5e                	pop    %r14
  404b4c:	41 5f                	pop    %r15
  404b4e:	c3                   	retq   
  404b4f:	bf 90 c8 40 00       	mov    $0x40c890,%edi
  404b54:	31 c0                	xor    %eax,%eax
  404b56:	e8 65 5d 00 00       	callq  40a8c0 <timer_start_>
  404b5b:	e9 51 ff ff ff       	jmpq   404ab1 <checksum_+0x1b1>
  404b60:	48 8d 6c 24 40       	lea    0x40(%rsp),%rbp
  404b65:	48 c7 44 24 48 80 ce 	movq   $0x40ce80,0x48(%rsp)
  404b6c:	40 00 
  404b6e:	c7 44 24 50 ff 06 00 	movl   $0x6ff,0x50(%rsp)
  404b75:	00 
  404b76:	48 c7 84 24 88 00 00 	movq   $0x40c8a0,0x88(%rsp)
  404b7d:	00 a0 c8 40 00 
  404b82:	c7 84 24 90 00 00 00 	movl   $0x25,0x90(%rsp)
  404b89:	25 00 00 00 
  404b8d:	48 89 ef             	mov    %rbp,%rdi
  404b90:	c7 44 24 40 00 10 00 	movl   $0x1000,0x40(%rsp)
  404b97:	00 
  404b98:	c7 44 24 44 06 00 00 	movl   $0x6,0x44(%rsp)
  404b9f:	00 
  404ba0:	e8 1b e2 ff ff       	callq  402dc0 <_gfortran_st_write@plt>
  404ba5:	48 8b 74 24 38       	mov    0x38(%rsp),%rsi
  404baa:	48 89 ef             	mov    %rbp,%rdi
  404bad:	ba 04 00 00 00       	mov    $0x4,%edx
  404bb2:	e8 c9 e1 ff ff       	callq  402d80 <_gfortran_transfer_integer@plt>
  404bb7:	48 89 ef             	mov    %rbp,%rdi
  404bba:	ba 08 00 00 00       	mov    $0x8,%edx
  404bbf:	48 89 de             	mov    %rbx,%rsi
  404bc2:	e8 99 e1 ff ff       	callq  402d60 <_gfortran_transfer_complex@plt>
  404bc7:	48 89 ef             	mov    %rbp,%rdi
  404bca:	e8 41 e3 ff ff       	callq  402f10 <_gfortran_st_write_done@plt>
  404bcf:	e9 3a ff ff ff       	jmpq   404b0e <checksum_+0x20e>
  404bd4:	bf 90 c8 40 00       	mov    $0x40c890,%edi
  404bd9:	31 c0                	xor    %eax,%eax
  404bdb:	e8 b0 5c 00 00       	callq  40a890 <timer_stop_>
  404be0:	e9 1f ff ff ff       	jmpq   404b04 <checksum_+0x204>
  404be5:	66 66 2e 0f 1f 84 00 	data32 nopw %cs:0x0(%rax,%rax,1)
  404bec:	00 00 00 00 

0000000000404bf0 <transpose_x_y_finish_>:
  404bf0:	41 57                	push   %r15
  404bf2:	41 56                	push   %r14
  404bf4:	41 55                	push   %r13
  404bf6:	49 89 d5             	mov    %rdx,%r13
  404bf9:	41 54                	push   %r12
  404bfb:	49 89 fc             	mov    %rdi,%r12
  404bfe:	55                   	push   %rbp
  404bff:	53                   	push   %rbx
  404c00:	48 83 ec 78          	sub    $0x78,%rsp
  404c04:	8b 17                	mov    (%rdi),%edx
  404c06:	49 63 6d 00          	movslq 0x0(%r13),%rbp
  404c0a:	48 89 74 24 58       	mov    %rsi,0x58(%rsp)
  404c0f:	48 8b 44 24 58       	mov    0x58(%rsp),%rax
  404c14:	31 f6                	xor    %esi,%esi
  404c16:	44 8b 15 9b f4 21 00 	mov    0x21f49b(%rip),%r10d        # 6240b8 <dbg_+0x8>
  404c1d:	c7 44 24 6c 00 00 00 	movl   $0x0,0x6c(%rsp)
  404c24:	00 
  404c25:	48 63 da             	movslq %edx,%rbx
  404c28:	48 63 38             	movslq (%rax),%rdi
  404c2b:	48 85 db             	test   %rbx,%rbx
  404c2e:	48 0f 48 de          	cmovs  %rsi,%rbx
  404c32:	49 89 de             	mov    %rbx,%r14
  404c35:	49 f7 d6             	not    %r14
  404c38:	48 89 f8             	mov    %rdi,%rax
  404c3b:	48 0f af c3          	imul   %rbx,%rax
  404c3f:	48 85 c0             	test   %rax,%rax
  404c42:	48 0f 48 c6          	cmovs  %rsi,%rax
  404c46:	49 29 c6             	sub    %rax,%r14
  404c49:	48 89 44 24 38       	mov    %rax,0x38(%rsp)
  404c4e:	8b 05 2c f5 21 00    	mov    0x21f52c(%rip),%eax        # 624180 <procgrid_>
  404c54:	89 44 24 24          	mov    %eax,0x24(%rsp)
  404c58:	89 d0                	mov    %edx,%eax
  404c5a:	c1 fa 1f             	sar    $0x1f,%edx
  404c5d:	f7 7c 24 24          	idivl  0x24(%rsp)
  404c61:	48 98                	cltq   
  404c63:	48 85 c0             	test   %rax,%rax
  404c66:	48 0f 48 c6          	cmovs  %rsi,%rax
  404c6a:	48 0f af e8          	imul   %rax,%rbp
  404c6e:	49 89 c7             	mov    %rax,%r15
  404c71:	48 89 44 24 30       	mov    %rax,0x30(%rsp)
  404c76:	49 f7 d7             	not    %r15
  404c79:	48 85 ed             	test   %rbp,%rbp
  404c7c:	48 0f 48 ee          	cmovs  %rsi,%rbp
  404c80:	48 0f af fd          	imul   %rbp,%rdi
  404c84:	48 85 ff             	test   %rdi,%rdi
  404c87:	48 0f 49 f7          	cmovns %rdi,%rsi
  404c8b:	45 85 d2             	test   %r10d,%r10d
  404c8e:	48 89 74 24 50       	mov    %rsi,0x50(%rsp)
  404c93:	0f 85 7a 01 00 00    	jne    404e13 <transpose_x_y_finish_+0x223>
  404c99:	44 8b 4c 24 24       	mov    0x24(%rsp),%r9d
  404c9e:	45 85 c9             	test   %r9d,%r9d
  404ca1:	0f 8e 3b 01 00 00    	jle    404de2 <transpose_x_y_finish_+0x1f2>
  404ca7:	48 8b 54 24 30       	mov    0x30(%rsp),%rdx
  404cac:	48 8b 44 24 38       	mov    0x38(%rsp),%rax
  404cb1:	45 8b 24 24          	mov    (%r12),%r12d
  404cb5:	45 8b 6d 00          	mov    0x0(%r13),%r13d
  404cb9:	c7 44 24 40 00 00 00 	movl   $0x0,0x40(%rsp)
  404cc0:	00 
  404cc1:	c7 44 24 44 00 00 00 	movl   $0x0,0x44(%rsp)
  404cc8:	00 
  404cc9:	4e 8d 7c 3a 01       	lea    0x1(%rdx,%r15,1),%r15
  404cce:	48 01 d8             	add    %rbx,%rax
  404cd1:	4c 01 f0             	add    %r14,%rax
  404cd4:	44 89 64 24 28       	mov    %r12d,0x28(%rsp)
  404cd9:	44 89 6c 24 2c       	mov    %r13d,0x2c(%rsp)
  404cde:	4c 89 7c 24 48       	mov    %r15,0x48(%rsp)
  404ce3:	48 89 44 24 60       	mov    %rax,0x60(%rsp)
  404ce8:	8b 54 24 40          	mov    0x40(%rsp),%edx
  404cec:	8b 7c 24 2c          	mov    0x2c(%rsp),%edi
  404cf0:	89 d0                	mov    %edx,%eax
  404cf2:	c1 fa 1f             	sar    $0x1f,%edx
  404cf5:	f7 7c 24 24          	idivl  0x24(%rsp)
  404cf9:	85 ff                	test   %edi,%edi
  404cfb:	0f 8e bc 00 00 00    	jle    404dbd <transpose_x_y_finish_+0x1cd>
  404d01:	48 8b 54 24 58       	mov    0x58(%rsp),%rdx
  404d06:	83 c0 01             	add    $0x1,%eax
  404d09:	4c 8b 4c 24 48       	mov    0x48(%rsp),%r9
  404d0e:	48 98                	cltq   
  404d10:	48 03 44 24 60       	add    0x60(%rsp),%rax
  404d15:	bf 01 00 00 00       	mov    $0x1,%edi
  404d1a:	8b 32                	mov    (%rdx),%esi
  404d1c:	48 89 44 24 18       	mov    %rax,0x18(%rsp)
  404d21:	0f 1f 80 00 00 00 00 	nopl   0x0(%rax)
  404d28:	85 f6                	test   %esi,%esi
  404d2a:	7e 74                	jle    404da0 <transpose_x_y_finish_+0x1b0>
  404d2c:	8b 54 24 28          	mov    0x28(%rsp),%edx
  404d30:	4c 8b 74 24 18       	mov    0x18(%rsp),%r14
  404d35:	4d 89 cd             	mov    %r9,%r13
  404d38:	41 bf 01 00 00 00    	mov    $0x1,%r15d
  404d3e:	89 d0                	mov    %edx,%eax
  404d40:	c1 fa 1f             	sar    $0x1f,%edx
  404d43:	f7 7c 24 24          	idivl  0x24(%rsp)
  404d47:	66 0f 1f 84 00 00 00 	nopw   0x0(%rax,%rax,1)
  404d4e:	00 00 
  404d50:	85 c0                	test   %eax,%eax
  404d52:	7e 3b                	jle    404d8f <transpose_x_y_finish_+0x19f>
  404d54:	4d 89 ea             	mov    %r13,%r10
  404d57:	4c 89 f2             	mov    %r14,%rdx
  404d5a:	45 31 db             	xor    %r11d,%r11d
  404d5d:	49 c1 e2 04          	shl    $0x4,%r10
  404d61:	48 c1 e2 04          	shl    $0x4,%rdx
  404d65:	4e 8d 14 11          	lea    (%rcx,%r10,1),%r10
  404d69:	49 8d 14 10          	lea    (%r8,%rdx,1),%rdx
  404d6d:	0f 1f 00             	nopl   (%rax)
  404d70:	4d 8b 22             	mov    (%r10),%r12
  404d73:	41 83 c3 01          	add    $0x1,%r11d
  404d77:	4c 89 22             	mov    %r12,(%rdx)
  404d7a:	4d 8b 62 08          	mov    0x8(%r10),%r12
  404d7e:	49 83 c2 10          	add    $0x10,%r10
  404d82:	4c 89 62 08          	mov    %r12,0x8(%rdx)
  404d86:	48 83 c2 10          	add    $0x10,%rdx
  404d8a:	41 39 c3             	cmp    %eax,%r11d
  404d8d:	75 e1                	jne    404d70 <transpose_x_y_finish_+0x180>
  404d8f:	49 01 ed             	add    %rbp,%r13
  404d92:	49 01 de             	add    %rbx,%r14
  404d95:	41 39 f7             	cmp    %esi,%r15d
  404d98:	74 06                	je     404da0 <transpose_x_y_finish_+0x1b0>
  404d9a:	41 83 c7 01          	add    $0x1,%r15d
  404d9e:	eb b0                	jmp    404d50 <transpose_x_y_finish_+0x160>
  404da0:	4c 03 4c 24 30       	add    0x30(%rsp),%r9
  404da5:	48 8b 44 24 38       	mov    0x38(%rsp),%rax
  404daa:	48 01 44 24 18       	add    %rax,0x18(%rsp)
  404daf:	3b 7c 24 2c          	cmp    0x2c(%rsp),%edi
  404db3:	74 08                	je     404dbd <transpose_x_y_finish_+0x1cd>
  404db5:	83 c7 01             	add    $0x1,%edi
  404db8:	e9 6b ff ff ff       	jmpq   404d28 <transpose_x_y_finish_+0x138>
  404dbd:	83 44 24 44 01       	addl   $0x1,0x44(%rsp)
  404dc2:	8b 54 24 28          	mov    0x28(%rsp),%edx
  404dc6:	48 8b 44 24 50       	mov    0x50(%rsp),%rax
  404dcb:	01 54 24 40          	add    %edx,0x40(%rsp)
  404dcf:	48 01 44 24 48       	add    %rax,0x48(%rsp)
  404dd4:	8b 54 24 24          	mov    0x24(%rsp),%edx
  404dd8:	39 54 24 44          	cmp    %edx,0x44(%rsp)
  404ddc:	0f 85 06 ff ff ff    	jne    404ce8 <transpose_x_y_finish_+0xf8>
  404de2:	8b 74 24 6c          	mov    0x6c(%rsp),%esi
  404de6:	85 f6                	test   %esi,%esi
  404de8:	75 0f                	jne    404df9 <transpose_x_y_finish_+0x209>
  404dea:	48 83 c4 78          	add    $0x78,%rsp
  404dee:	5b                   	pop    %rbx
  404def:	5d                   	pop    %rbp
  404df0:	41 5c                	pop    %r12
  404df2:	41 5d                	pop    %r13
  404df4:	41 5e                	pop    %r14
  404df6:	41 5f                	pop    %r15
  404df8:	c3                   	retq   
  404df9:	48 83 c4 78          	add    $0x78,%rsp
  404dfd:	bf c8 c8 40 00       	mov    $0x40c8c8,%edi
  404e02:	31 c0                	xor    %eax,%eax
  404e04:	5b                   	pop    %rbx
  404e05:	5d                   	pop    %rbp
  404e06:	41 5c                	pop    %r12
  404e08:	41 5d                	pop    %r13
  404e0a:	41 5e                	pop    %r14
  404e0c:	41 5f                	pop    %r15
  404e0e:	e9 7d 5a 00 00       	jmpq   40a890 <timer_stop_>
  404e13:	31 c0                	xor    %eax,%eax
  404e15:	bf c8 c8 40 00       	mov    $0x40c8c8,%edi
  404e1a:	48 89 4c 24 10       	mov    %rcx,0x10(%rsp)
  404e1f:	4c 89 44 24 08       	mov    %r8,0x8(%rsp)
  404e24:	e8 97 5a 00 00       	callq  40a8c0 <timer_start_>
  404e29:	8b 15 51 f3 21 00    	mov    0x21f351(%rip),%edx        # 624180 <procgrid_>
  404e2f:	8b 05 83 f2 21 00    	mov    0x21f283(%rip),%eax        # 6240b8 <dbg_+0x8>
  404e35:	4c 8b 44 24 08       	mov    0x8(%rsp),%r8
  404e3a:	48 8b 4c 24 10       	mov    0x10(%rsp),%rcx
  404e3f:	89 54 24 24          	mov    %edx,0x24(%rsp)
  404e43:	89 44 24 6c          	mov    %eax,0x6c(%rsp)
  404e47:	e9 4d fe ff ff       	jmpq   404c99 <transpose_x_y_finish_+0xa9>
  404e4c:	0f 1f 40 00          	nopl   0x0(%rax)

0000000000404e50 <transpose_x_y_global_>:
  404e50:	55                   	push   %rbp
  404e51:	48 89 fd             	mov    %rdi,%rbp
  404e54:	53                   	push   %rbx
  404e55:	48 89 cb             	mov    %rcx,%rbx
  404e58:	4c 89 c1             	mov    %r8,%rcx
  404e5b:	48 83 ec 48          	sub    $0x48,%rsp
  404e5f:	8b 05 53 f2 21 00    	mov    0x21f253(%rip),%eax        # 6240b8 <dbg_+0x8>
  404e65:	85 c0                	test   %eax,%eax
  404e67:	75 6f                	jne    404ed8 <transpose_x_y_global_+0x88>
  404e69:	8b 06                	mov    (%rsi),%eax
  404e6b:	41 b9 70 41 62 00    	mov    $0x624170,%r9d
  404e71:	48 8d 74 24 38       	lea    0x38(%rsp),%rsi
  404e76:	0f af 45 00          	imul   0x0(%rbp),%eax
  404e7a:	4c 8d 44 24 34       	lea    0x34(%rsp),%r8
  404e7f:	48 89 df             	mov    %rbx,%rdi
  404e82:	0f af 02             	imul   (%rdx),%eax
  404e85:	48 c7 04 24 04 47 70 	movq   $0x704704,(%rsp)
  404e8c:	00 
  404e8d:	89 c2                	mov    %eax,%edx
  404e8f:	c1 fa 1f             	sar    $0x1f,%edx
  404e92:	f7 3d e8 f2 21 00    	idivl  0x21f2e8(%rip)        # 624180 <procgrid_>
  404e98:	4c 89 ca             	mov    %r9,%rdx
  404e9b:	89 44 24 38          	mov    %eax,0x38(%rsp)
  404e9f:	89 44 24 34          	mov    %eax,0x34(%rsp)
  404ea3:	48 8d 44 24 3c       	lea    0x3c(%rsp),%rax
  404ea8:	48 89 44 24 08       	mov    %rax,0x8(%rsp)
  404ead:	31 c0                	xor    %eax,%eax
  404eaf:	e8 2c de ff ff       	callq  402ce0 <mpi_alltoall_@plt>
  404eb4:	44 8b 1d fd f1 21 00 	mov    0x21f1fd(%rip),%r11d        # 6240b8 <dbg_+0x8>
  404ebb:	45 85 db             	test   %r11d,%r11d
  404ebe:	74 0c                	je     404ecc <transpose_x_y_global_+0x7c>
  404ec0:	bf cc c8 40 00       	mov    $0x40c8cc,%edi
  404ec5:	31 c0                	xor    %eax,%eax
  404ec7:	e8 c4 59 00 00       	callq  40a890 <timer_stop_>
  404ecc:	48 83 c4 48          	add    $0x48,%rsp
  404ed0:	5b                   	pop    %rbx
  404ed1:	5d                   	pop    %rbp
  404ed2:	c3                   	retq   
  404ed3:	0f 1f 44 00 00       	nopl   0x0(%rax,%rax,1)
  404ed8:	bf cc c8 40 00       	mov    $0x40c8cc,%edi
  404edd:	31 c0                	xor    %eax,%eax
  404edf:	48 89 54 24 20       	mov    %rdx,0x20(%rsp)
  404ee4:	48 89 74 24 28       	mov    %rsi,0x28(%rsp)
  404ee9:	4c 89 44 24 18       	mov    %r8,0x18(%rsp)
  404eee:	e8 cd 59 00 00       	callq  40a8c0 <timer_start_>
  404ef3:	48 8b 74 24 28       	mov    0x28(%rsp),%rsi
  404ef8:	48 8b 4c 24 18       	mov    0x18(%rsp),%rcx
  404efd:	48 8b 54 24 20       	mov    0x20(%rsp),%rdx
  404f02:	e9 62 ff ff ff       	jmpq   404e69 <transpose_x_y_global_+0x19>
  404f07:	66 0f 1f 84 00 00 00 	nopw   0x0(%rax,%rax,1)
  404f0e:	00 00 

0000000000404f10 <transpose_x_y_local_>:
  404f10:	41 57                	push   %r15
  404f12:	31 c0                	xor    %eax,%eax
  404f14:	41 56                	push   %r14
  404f16:	41 55                	push   %r13
  404f18:	41 54                	push   %r12
  404f1a:	49 89 fc             	mov    %rdi,%r12
  404f1d:	55                   	push   %rbp
  404f1e:	53                   	push   %rbx
  404f1f:	48 89 c3             	mov    %rax,%rbx
  404f22:	48 83 ec 58          	sub    $0x58,%rsp
  404f26:	48 63 3e             	movslq (%rsi),%rdi
  404f29:	49 63 2c 24          	movslq (%r12),%rbp
  404f2d:	44 8b 0d 84 f1 21 00 	mov    0x21f184(%rip),%r9d        # 6240b8 <dbg_+0x8>
  404f34:	48 89 74 24 40       	mov    %rsi,0x40(%rsp)
  404f39:	c7 44 24 4c 00 00 00 	movl   $0x0,0x4c(%rsp)
  404f40:	00 
  404f41:	48 85 ff             	test   %rdi,%rdi
  404f44:	48 0f 49 df          	cmovns %rdi,%rbx
  404f48:	48 89 5c 24 28       	mov    %rbx,0x28(%rsp)
  404f4d:	8b 1a                	mov    (%rdx),%ebx
  404f4f:	48 8b 74 24 28       	mov    0x28(%rsp),%rsi
  404f54:	89 5c 24 34          	mov    %ebx,0x34(%rsp)
  404f58:	48 63 db             	movslq %ebx,%rbx
  404f5b:	48 0f af 5c 24 28    	imul   0x28(%rsp),%rbx
  404f61:	48 f7 d6             	not    %rsi
  404f64:	48 85 db             	test   %rbx,%rbx
  404f67:	48 0f 48 d8          	cmovs  %rax,%rbx
  404f6b:	48 85 ed             	test   %rbp,%rbp
  404f6e:	48 0f 48 e8          	cmovs  %rax,%rbp
  404f72:	48 0f af fd          	imul   %rbp,%rdi
  404f76:	49 89 ee             	mov    %rbp,%r14
  404f79:	49 f7 d6             	not    %r14
  404f7c:	48 85 ff             	test   %rdi,%rdi
  404f7f:	48 0f 49 c7          	cmovns %rdi,%rax
  404f83:	45 85 c9             	test   %r9d,%r9d
  404f86:	48 89 44 24 38       	mov    %rax,0x38(%rsp)
  404f8b:	0f 85 ee 00 00 00    	jne    40507f <transpose_x_y_local_+0x16f>
  404f91:	8b 7c 24 34          	mov    0x34(%rsp),%edi
  404f95:	85 ff                	test   %edi,%edi
  404f97:	0f 8e b1 00 00 00    	jle    40504e <transpose_x_y_local_+0x13e>
  404f9d:	48 8b 44 24 28       	mov    0x28(%rsp),%rax
  404fa2:	45 8b 2c 24          	mov    (%r12),%r13d
  404fa6:	4e 8d 7c 35 01       	lea    0x1(%rbp,%r14,1),%r15
  404fab:	49 89 ea             	mov    %rbp,%r10
  404fae:	c7 44 24 24 01 00 00 	movl   $0x1,0x24(%rsp)
  404fb5:	00 
  404fb6:	49 c1 e2 04          	shl    $0x4,%r10
  404fba:	4c 8d 74 30 01       	lea    0x1(%rax,%rsi,1),%r14
  404fbf:	90                   	nop
  404fc0:	45 85 ed             	test   %r13d,%r13d
  404fc3:	7e 6b                	jle    405030 <transpose_x_y_local_+0x120>
  404fc5:	48 8b 44 24 40       	mov    0x40(%rsp),%rax
  404fca:	4d 89 f3             	mov    %r14,%r11
  404fcd:	4d 89 f9             	mov    %r15,%r9
  404fd0:	41 bc 01 00 00 00    	mov    $0x1,%r12d
  404fd6:	8b 28                	mov    (%rax),%ebp
  404fd8:	0f 1f 84 00 00 00 00 	nopl   0x0(%rax,%rax,1)
  404fdf:	00 
  404fe0:	85 ed                	test   %ebp,%ebp
  404fe2:	7e 38                	jle    40501c <transpose_x_y_local_+0x10c>
  404fe4:	4c 89 ca             	mov    %r9,%rdx
  404fe7:	4c 89 d8             	mov    %r11,%rax
  404fea:	31 f6                	xor    %esi,%esi
  404fec:	48 c1 e2 04          	shl    $0x4,%rdx
  404ff0:	48 c1 e0 04          	shl    $0x4,%rax
  404ff4:	48 8d 14 11          	lea    (%rcx,%rdx,1),%rdx
  404ff8:	49 8d 04 00          	lea    (%r8,%rax,1),%rax
  404ffc:	0f 1f 40 00          	nopl   0x0(%rax)
  405000:	48 8b 3a             	mov    (%rdx),%rdi
  405003:	83 c6 01             	add    $0x1,%esi
  405006:	48 89 38             	mov    %rdi,(%rax)
  405009:	48 8b 7a 08          	mov    0x8(%rdx),%rdi
  40500d:	4c 01 d2             	add    %r10,%rdx
  405010:	48 89 78 08          	mov    %rdi,0x8(%rax)
  405014:	48 83 c0 10          	add    $0x10,%rax
  405018:	39 ee                	cmp    %ebp,%esi
  40501a:	75 e4                	jne    405000 <transpose_x_y_local_+0xf0>
  40501c:	49 83 c1 01          	add    $0x1,%r9
  405020:	49 01 db             	add    %rbx,%r11
  405023:	45 39 ec             	cmp    %r13d,%r12d
  405026:	74 08                	je     405030 <transpose_x_y_local_+0x120>
  405028:	41 83 c4 01          	add    $0x1,%r12d
  40502c:	eb b2                	jmp    404fe0 <transpose_x_y_local_+0xd0>
  40502e:	66 90                	xchg   %ax,%ax
  405030:	4c 03 7c 24 38       	add    0x38(%rsp),%r15
  405035:	4c 03 74 24 28       	add    0x28(%rsp),%r14
  40503a:	8b 44 24 34          	mov    0x34(%rsp),%eax
  40503e:	39 44 24 24          	cmp    %eax,0x24(%rsp)
  405042:	74 0a                	je     40504e <transpose_x_y_local_+0x13e>
  405044:	83 44 24 24 01       	addl   $0x1,0x24(%rsp)
  405049:	e9 72 ff ff ff       	jmpq   404fc0 <transpose_x_y_local_+0xb0>
  40504e:	8b 54 24 4c          	mov    0x4c(%rsp),%edx
  405052:	85 d2                	test   %edx,%edx
  405054:	75 0f                	jne    405065 <transpose_x_y_local_+0x155>
  405056:	48 83 c4 58          	add    $0x58,%rsp
  40505a:	5b                   	pop    %rbx
  40505b:	5d                   	pop    %rbp
  40505c:	41 5c                	pop    %r12
  40505e:	41 5d                	pop    %r13
  405060:	41 5e                	pop    %r14
  405062:	41 5f                	pop    %r15
  405064:	c3                   	retq   
  405065:	48 83 c4 58          	add    $0x58,%rsp
  405069:	bf d0 c8 40 00       	mov    $0x40c8d0,%edi
  40506e:	31 c0                	xor    %eax,%eax
  405070:	5b                   	pop    %rbx
  405071:	5d                   	pop    %rbp
  405072:	41 5c                	pop    %r12
  405074:	41 5d                	pop    %r13
  405076:	41 5e                	pop    %r14
  405078:	41 5f                	pop    %r15
  40507a:	e9 11 58 00 00       	jmpq   40a890 <timer_stop_>
  40507f:	31 c0                	xor    %eax,%eax
  405081:	bf d0 c8 40 00       	mov    $0x40c8d0,%edi
  405086:	48 89 54 24 10       	mov    %rdx,0x10(%rsp)
  40508b:	48 89 4c 24 08       	mov    %rcx,0x8(%rsp)
  405090:	48 89 74 24 18       	mov    %rsi,0x18(%rsp)
  405095:	4c 89 04 24          	mov    %r8,(%rsp)
  405099:	e8 22 58 00 00       	callq  40a8c0 <timer_start_>
  40509e:	48 8b 54 24 10       	mov    0x10(%rsp),%rdx
  4050a3:	8b 05 0f f0 21 00    	mov    0x21f00f(%rip),%eax        # 6240b8 <dbg_+0x8>
  4050a9:	4c 8b 04 24          	mov    (%rsp),%r8
  4050ad:	48 8b 74 24 18       	mov    0x18(%rsp),%rsi
  4050b2:	48 8b 4c 24 08       	mov    0x8(%rsp),%rcx
  4050b7:	8b 12                	mov    (%rdx),%edx
  4050b9:	89 44 24 4c          	mov    %eax,0x4c(%rsp)
  4050bd:	89 54 24 34          	mov    %edx,0x34(%rsp)
  4050c1:	e9 cb fe ff ff       	jmpq   404f91 <transpose_x_y_local_+0x81>
  4050c6:	66 2e 0f 1f 84 00 00 	nopw   %cs:0x0(%rax,%rax,1)
  4050cd:	00 00 00 

00000000004050d0 <transpose_x_y_>:
  4050d0:	48 89 5c 24 e0       	mov    %rbx,-0x20(%rsp)
  4050d5:	48 89 6c 24 e8       	mov    %rbp,-0x18(%rsp)
  4050da:	48 89 d3             	mov    %rdx,%rbx
  4050dd:	4c 89 64 24 f0       	mov    %r12,-0x10(%rsp)
  4050e2:	4c 89 6c 24 f8       	mov    %r13,-0x8(%rsp)
  4050e7:	48 83 ec 28          	sub    $0x28,%rsp
  4050eb:	48 63 07             	movslq (%rdi),%rax
  4050ee:	48 89 cd             	mov    %rcx,%rbp
  4050f1:	49 89 fc             	mov    %rdi,%r12
  4050f4:	49 89 f5             	mov    %rsi,%r13
  4050f7:	49 89 e8             	mov    %rbp,%r8
  4050fa:	48 8d 4c 40 fe       	lea    -0x2(%rax,%rax,2),%rcx
  4050ff:	48 8d 54 40 ff       	lea    -0x1(%rax,%rax,2),%rdx
  405104:	48 8d 44 40 fd       	lea    -0x3(%rax,%rax,2),%rax
  405109:	48 8d 34 8d c0 40 62 	lea    0x6240c0(,%rcx,4),%rsi
  405110:	00 
  405111:	48 8d 3c 85 c0 40 62 	lea    0x6240c0(,%rax,4),%rdi
  405118:	00 
  405119:	48 8d 14 95 c0 40 62 	lea    0x6240c0(,%rdx,4),%rdx
  405120:	00 
  405121:	48 89 d9             	mov    %rbx,%rcx
  405124:	31 c0                	xor    %eax,%eax
  405126:	e8 e5 fd ff ff       	callq  404f10 <transpose_x_y_local_>
  40512b:	49 63 04 24          	movslq (%r12),%rax
  40512f:	49 89 d8             	mov    %rbx,%r8
  405132:	48 8d 4c 40 fe       	lea    -0x2(%rax,%rax,2),%rcx
  405137:	48 8d 54 40 ff       	lea    -0x1(%rax,%rax,2),%rdx
  40513c:	48 8d 44 40 fd       	lea    -0x3(%rax,%rax,2),%rax
  405141:	48 8d 34 8d c0 40 62 	lea    0x6240c0(,%rcx,4),%rsi
  405148:	00 
  405149:	48 8d 3c 85 c0 40 62 	lea    0x6240c0(,%rax,4),%rdi
  405150:	00 
  405151:	48 8d 14 95 c0 40 62 	lea    0x6240c0(,%rdx,4),%rdx
  405158:	00 
  405159:	48 89 e9             	mov    %rbp,%rcx
  40515c:	31 c0                	xor    %eax,%eax
  40515e:	e8 ed fc ff ff       	callq  404e50 <transpose_x_y_global_>
  405163:	49 63 45 00          	movslq 0x0(%r13),%rax
  405167:	49 89 e8             	mov    %rbp,%r8
  40516a:	4c 8b 64 24 18       	mov    0x18(%rsp),%r12
  40516f:	48 8b 6c 24 10       	mov    0x10(%rsp),%rbp
  405174:	4c 8b 6c 24 20       	mov    0x20(%rsp),%r13
  405179:	48 8d 4c 40 fe       	lea    -0x2(%rax,%rax,2),%rcx
  40517e:	48 8d 54 40 ff       	lea    -0x1(%rax,%rax,2),%rdx
  405183:	48 8d 44 40 fd       	lea    -0x3(%rax,%rax,2),%rax
  405188:	48 8d 34 8d c0 40 62 	lea    0x6240c0(,%rcx,4),%rsi
  40518f:	00 
  405190:	48 8d 3c 85 c0 40 62 	lea    0x6240c0(,%rax,4),%rdi
  405197:	00 
  405198:	48 8d 14 95 c0 40 62 	lea    0x6240c0(,%rdx,4),%rdx
  40519f:	00 
  4051a0:	48 89 d9             	mov    %rbx,%rcx
  4051a3:	31 c0                	xor    %eax,%eax
  4051a5:	48 8b 5c 24 08       	mov    0x8(%rsp),%rbx
  4051aa:	48 83 c4 28          	add    $0x28,%rsp
  4051ae:	e9 3d fa ff ff       	jmpq   404bf0 <transpose_x_y_finish_>
  4051b3:	66 66 66 66 2e 0f 1f 	data32 data32 data32 nopw %cs:0x0(%rax,%rax,1)
  4051ba:	84 00 00 00 00 00 

00000000004051c0 <transpose_x_z_finish_>:
  4051c0:	41 57                	push   %r15
  4051c2:	41 56                	push   %r14
  4051c4:	41 55                	push   %r13
  4051c6:	49 89 d5             	mov    %rdx,%r13
  4051c9:	41 54                	push   %r12
  4051cb:	49 89 fc             	mov    %rdi,%r12
  4051ce:	55                   	push   %rbp
  4051cf:	53                   	push   %rbx
  4051d0:	48 83 ec 78          	sub    $0x78,%rsp
  4051d4:	8b 17                	mov    (%rdi),%edx
  4051d6:	48 89 74 24 58       	mov    %rsi,0x58(%rsp)
  4051db:	48 8b 44 24 58       	mov    0x58(%rsp),%rax
  4051e0:	31 f6                	xor    %esi,%esi
  4051e2:	48 89 f5             	mov    %rsi,%rbp
  4051e5:	c7 44 24 6c 00 00 00 	movl   $0x0,0x6c(%rsp)
  4051ec:	00 
  4051ed:	48 63 da             	movslq %edx,%rbx
  4051f0:	48 63 38             	movslq (%rax),%rdi
  4051f3:	48 85 db             	test   %rbx,%rbx
  4051f6:	48 0f 48 de          	cmovs  %rsi,%rbx
  4051fa:	49 89 de             	mov    %rbx,%r14
  4051fd:	49 f7 d6             	not    %r14
  405200:	48 89 f8             	mov    %rdi,%rax
  405203:	48 0f af c3          	imul   %rbx,%rax
  405207:	48 85 c0             	test   %rax,%rax
  40520a:	48 0f 48 c6          	cmovs  %rsi,%rax
  40520e:	49 29 c6             	sub    %rax,%r14
  405211:	48 89 44 24 30       	mov    %rax,0x30(%rsp)
  405216:	8b 05 68 ef 21 00    	mov    0x21ef68(%rip),%eax        # 624184 <procgrid_+0x4>
  40521c:	89 44 24 24          	mov    %eax,0x24(%rsp)
  405220:	89 d0                	mov    %edx,%eax
  405222:	c1 fa 1f             	sar    $0x1f,%edx
  405225:	f7 7c 24 24          	idivl  0x24(%rsp)
  405229:	8b 15 89 ee 21 00    	mov    0x21ee89(%rip),%edx        # 6240b8 <dbg_+0x8>
  40522f:	48 98                	cltq   
  405231:	48 85 c0             	test   %rax,%rax
  405234:	48 0f 49 e8          	cmovns %rax,%rbp
  405238:	49 63 45 00          	movslq 0x0(%r13),%rax
  40523c:	48 0f af fd          	imul   %rbp,%rdi
  405240:	49 89 ef             	mov    %rbp,%r15
  405243:	49 f7 d7             	not    %r15
  405246:	48 85 ff             	test   %rdi,%rdi
  405249:	48 0f 48 fe          	cmovs  %rsi,%rdi
  40524d:	48 0f af c7          	imul   %rdi,%rax
  405251:	48 89 7c 24 38       	mov    %rdi,0x38(%rsp)
  405256:	48 85 c0             	test   %rax,%rax
  405259:	48 0f 49 f0          	cmovns %rax,%rsi
  40525d:	85 d2                	test   %edx,%edx
  40525f:	48 89 74 24 50       	mov    %rsi,0x50(%rsp)
  405264:	0f 85 6b 01 00 00    	jne    4053d5 <transpose_x_z_finish_+0x215>
  40526a:	8b 44 24 24          	mov    0x24(%rsp),%eax
  40526e:	85 c0                	test   %eax,%eax
  405270:	0f 8e 2c 01 00 00    	jle    4053a2 <transpose_x_z_finish_+0x1e2>
  405276:	48 8b 44 24 30       	mov    0x30(%rsp),%rax
  40527b:	45 8b 24 24          	mov    (%r12),%r12d
  40527f:	4e 8d 7c 3d 01       	lea    0x1(%rbp,%r15,1),%r15
  405284:	45 8b 6d 00          	mov    0x0(%r13),%r13d
  405288:	c7 44 24 40 00 00 00 	movl   $0x0,0x40(%rsp)
  40528f:	00 
  405290:	4c 89 7c 24 48       	mov    %r15,0x48(%rsp)
  405295:	c7 44 24 44 00 00 00 	movl   $0x0,0x44(%rsp)
  40529c:	00 
  40529d:	48 01 d8             	add    %rbx,%rax
  4052a0:	44 89 64 24 28       	mov    %r12d,0x28(%rsp)
  4052a5:	4c 01 f0             	add    %r14,%rax
  4052a8:	44 89 6c 24 2c       	mov    %r13d,0x2c(%rsp)
  4052ad:	48 89 44 24 60       	mov    %rax,0x60(%rsp)
  4052b2:	8b 54 24 40          	mov    0x40(%rsp),%edx
  4052b6:	44 8b 5c 24 2c       	mov    0x2c(%rsp),%r11d
  4052bb:	89 d0                	mov    %edx,%eax
  4052bd:	c1 fa 1f             	sar    $0x1f,%edx
  4052c0:	f7 7c 24 24          	idivl  0x24(%rsp)
  4052c4:	45 85 db             	test   %r11d,%r11d
  4052c7:	0f 8e b0 00 00 00    	jle    40537d <transpose_x_z_finish_+0x1bd>
  4052cd:	48 8b 54 24 58       	mov    0x58(%rsp),%rdx
  4052d2:	83 c0 01             	add    $0x1,%eax
  4052d5:	4c 8b 4c 24 48       	mov    0x48(%rsp),%r9
  4052da:	48 98                	cltq   
  4052dc:	48 03 44 24 60       	add    0x60(%rsp),%rax
  4052e1:	bf 01 00 00 00       	mov    $0x1,%edi
  4052e6:	8b 32                	mov    (%rdx),%esi
  4052e8:	48 89 44 24 18       	mov    %rax,0x18(%rsp)
  4052ed:	0f 1f 00             	nopl   (%rax)
  4052f0:	85 f6                	test   %esi,%esi
  4052f2:	7e 6c                	jle    405360 <transpose_x_z_finish_+0x1a0>
  4052f4:	8b 54 24 28          	mov    0x28(%rsp),%edx
  4052f8:	4c 8b 74 24 18       	mov    0x18(%rsp),%r14
  4052fd:	4d 89 cd             	mov    %r9,%r13
  405300:	41 bf 01 00 00 00    	mov    $0x1,%r15d
  405306:	89 d0                	mov    %edx,%eax
  405308:	c1 fa 1f             	sar    $0x1f,%edx
  40530b:	f7 7c 24 24          	idivl  0x24(%rsp)
  40530f:	90                   	nop
  405310:	85 c0                	test   %eax,%eax
  405312:	7e 3b                	jle    40534f <transpose_x_z_finish_+0x18f>
  405314:	4d 89 ea             	mov    %r13,%r10
  405317:	4c 89 f2             	mov    %r14,%rdx
  40531a:	45 31 db             	xor    %r11d,%r11d
  40531d:	49 c1 e2 04          	shl    $0x4,%r10
  405321:	48 c1 e2 04          	shl    $0x4,%rdx
  405325:	4e 8d 14 11          	lea    (%rcx,%r10,1),%r10
  405329:	49 8d 14 10          	lea    (%r8,%rdx,1),%rdx
  40532d:	0f 1f 00             	nopl   (%rax)
  405330:	4d 8b 22             	mov    (%r10),%r12
  405333:	41 83 c3 01          	add    $0x1,%r11d
  405337:	4c 89 22             	mov    %r12,(%rdx)
  40533a:	4d 8b 62 08          	mov    0x8(%r10),%r12
  40533e:	49 83 c2 10          	add    $0x10,%r10
  405342:	4c 89 62 08          	mov    %r12,0x8(%rdx)
  405346:	48 83 c2 10          	add    $0x10,%rdx
  40534a:	41 39 c3             	cmp    %eax,%r11d
  40534d:	75 e1                	jne    405330 <transpose_x_z_finish_+0x170>
  40534f:	49 01 ed             	add    %rbp,%r13
  405352:	49 01 de             	add    %rbx,%r14
  405355:	41 39 f7             	cmp    %esi,%r15d
  405358:	74 06                	je     405360 <transpose_x_z_finish_+0x1a0>
  40535a:	41 83 c7 01          	add    $0x1,%r15d
  40535e:	eb b0                	jmp    405310 <transpose_x_z_finish_+0x150>
  405360:	4c 03 4c 24 38       	add    0x38(%rsp),%r9
  405365:	48 8b 44 24 30       	mov    0x30(%rsp),%rax
  40536a:	48 01 44 24 18       	add    %rax,0x18(%rsp)
  40536f:	3b 7c 24 2c          	cmp    0x2c(%rsp),%edi
  405373:	74 08                	je     40537d <transpose_x_z_finish_+0x1bd>
  405375:	83 c7 01             	add    $0x1,%edi
  405378:	e9 73 ff ff ff       	jmpq   4052f0 <transpose_x_z_finish_+0x130>
  40537d:	83 44 24 44 01       	addl   $0x1,0x44(%rsp)
  405382:	8b 54 24 28          	mov    0x28(%rsp),%edx
  405386:	48 8b 44 24 50       	mov    0x50(%rsp),%rax
  40538b:	01 54 24 40          	add    %edx,0x40(%rsp)
  40538f:	48 01 44 24 48       	add    %rax,0x48(%rsp)
  405394:	8b 54 24 24          	mov    0x24(%rsp),%edx
  405398:	39 54 24 44          	cmp    %edx,0x44(%rsp)
  40539c:	0f 85 10 ff ff ff    	jne    4052b2 <transpose_x_z_finish_+0xf2>
  4053a2:	44 8b 54 24 6c       	mov    0x6c(%rsp),%r10d
  4053a7:	45 85 d2             	test   %r10d,%r10d
  4053aa:	75 0f                	jne    4053bb <transpose_x_z_finish_+0x1fb>
  4053ac:	48 83 c4 78          	add    $0x78,%rsp
  4053b0:	5b                   	pop    %rbx
  4053b1:	5d                   	pop    %rbp
  4053b2:	41 5c                	pop    %r12
  4053b4:	41 5d                	pop    %r13
  4053b6:	41 5e                	pop    %r14
  4053b8:	41 5f                	pop    %r15
  4053ba:	c3                   	retq   
  4053bb:	48 83 c4 78          	add    $0x78,%rsp
  4053bf:	bf d4 c8 40 00       	mov    $0x40c8d4,%edi
  4053c4:	31 c0                	xor    %eax,%eax
  4053c6:	5b                   	pop    %rbx
  4053c7:	5d                   	pop    %rbp
  4053c8:	41 5c                	pop    %r12
  4053ca:	41 5d                	pop    %r13
  4053cc:	41 5e                	pop    %r14
  4053ce:	41 5f                	pop    %r15
  4053d0:	e9 bb 54 00 00       	jmpq   40a890 <timer_stop_>
  4053d5:	31 c0                	xor    %eax,%eax
  4053d7:	bf d4 c8 40 00       	mov    $0x40c8d4,%edi
  4053dc:	48 89 4c 24 10       	mov    %rcx,0x10(%rsp)
  4053e1:	4c 89 44 24 08       	mov    %r8,0x8(%rsp)
  4053e6:	e8 d5 54 00 00       	callq  40a8c0 <timer_start_>
  4053eb:	8b 15 93 ed 21 00    	mov    0x21ed93(%rip),%edx        # 624184 <procgrid_+0x4>
  4053f1:	8b 05 c1 ec 21 00    	mov    0x21ecc1(%rip),%eax        # 6240b8 <dbg_+0x8>
  4053f7:	4c 8b 44 24 08       	mov    0x8(%rsp),%r8
  4053fc:	48 8b 4c 24 10       	mov    0x10(%rsp),%rcx
  405401:	89 54 24 24          	mov    %edx,0x24(%rsp)
  405405:	89 44 24 6c          	mov    %eax,0x6c(%rsp)
  405409:	e9 5c fe ff ff       	jmpq   40526a <transpose_x_z_finish_+0xaa>
  40540e:	66 90                	xchg   %ax,%ax

0000000000405410 <transpose_x_z_global_>:
  405410:	55                   	push   %rbp
  405411:	48 89 fd             	mov    %rdi,%rbp
  405414:	53                   	push   %rbx
  405415:	48 89 cb             	mov    %rcx,%rbx
  405418:	4c 89 c1             	mov    %r8,%rcx
  40541b:	48 83 ec 48          	sub    $0x48,%rsp
  40541f:	8b 3d 93 ec 21 00    	mov    0x21ec93(%rip),%edi        # 6240b8 <dbg_+0x8>
  405425:	85 ff                	test   %edi,%edi
  405427:	75 6f                	jne    405498 <transpose_x_z_global_+0x88>
  405429:	8b 06                	mov    (%rsi),%eax
  40542b:	41 b9 70 41 62 00    	mov    $0x624170,%r9d
  405431:	48 8d 74 24 38       	lea    0x38(%rsp),%rsi
  405436:	0f af 45 00          	imul   0x0(%rbp),%eax
  40543a:	4c 8d 44 24 34       	lea    0x34(%rsp),%r8
  40543f:	48 89 df             	mov    %rbx,%rdi
  405442:	0f af 02             	imul   (%rdx),%eax
  405445:	48 c7 04 24 00 47 70 	movq   $0x704700,(%rsp)
  40544c:	00 
  40544d:	89 c2                	mov    %eax,%edx
  40544f:	c1 fa 1f             	sar    $0x1f,%edx
  405452:	f7 3d 2c ed 21 00    	idivl  0x21ed2c(%rip)        # 624184 <procgrid_+0x4>
  405458:	4c 89 ca             	mov    %r9,%rdx
  40545b:	89 44 24 38          	mov    %eax,0x38(%rsp)
  40545f:	89 44 24 34          	mov    %eax,0x34(%rsp)
  405463:	48 8d 44 24 3c       	lea    0x3c(%rsp),%rax
  405468:	48 89 44 24 08       	mov    %rax,0x8(%rsp)
  40546d:	31 c0                	xor    %eax,%eax
  40546f:	e8 6c d8 ff ff       	callq  402ce0 <mpi_alltoall_@plt>
  405474:	8b 0d 3e ec 21 00    	mov    0x21ec3e(%rip),%ecx        # 6240b8 <dbg_+0x8>
  40547a:	85 c9                	test   %ecx,%ecx
  40547c:	74 0c                	je     40548a <transpose_x_z_global_+0x7a>
  40547e:	bf d8 c8 40 00       	mov    $0x40c8d8,%edi
  405483:	31 c0                	xor    %eax,%eax
  405485:	e8 06 54 00 00       	callq  40a890 <timer_stop_>
  40548a:	48 83 c4 48          	add    $0x48,%rsp
  40548e:	5b                   	pop    %rbx
  40548f:	5d                   	pop    %rbp
  405490:	c3                   	retq   
  405491:	0f 1f 80 00 00 00 00 	nopl   0x0(%rax)
  405498:	bf d8 c8 40 00       	mov    $0x40c8d8,%edi
  40549d:	31 c0                	xor    %eax,%eax
  40549f:	48 89 54 24 20       	mov    %rdx,0x20(%rsp)
  4054a4:	48 89 74 24 28       	mov    %rsi,0x28(%rsp)
  4054a9:	4c 89 44 24 18       	mov    %r8,0x18(%rsp)
  4054ae:	e8 0d 54 00 00       	callq  40a8c0 <timer_start_>
  4054b3:	48 8b 74 24 28       	mov    0x28(%rsp),%rsi
  4054b8:	48 8b 4c 24 18       	mov    0x18(%rsp),%rcx
  4054bd:	48 8b 54 24 20       	mov    0x20(%rsp),%rdx
  4054c2:	e9 62 ff ff ff       	jmpq   405429 <transpose_x_z_global_+0x19>
  4054c7:	66 0f 1f 84 00 00 00 	nopw   0x0(%rax,%rax,1)
  4054ce:	00 00 

00000000004054d0 <transpose_x_z_local_>:
  4054d0:	41 57                	push   %r15
  4054d2:	31 c0                	xor    %eax,%eax
  4054d4:	49 89 f7             	mov    %rsi,%r15
  4054d7:	41 56                	push   %r14
  4054d9:	49 89 fe             	mov    %rdi,%r14
  4054dc:	41 55                	push   %r13
  4054de:	41 54                	push   %r12
  4054e0:	55                   	push   %rbp
  4054e1:	53                   	push   %rbx
  4054e2:	48 81 ec 88 00 00 00 	sub    $0x88,%rsp
  4054e9:	44 8b 12             	mov    (%rdx),%r10d
  4054ec:	44 8b 0f             	mov    (%rdi),%r9d
  4054ef:	c7 44 24 6c 00 00 00 	movl   $0x0,0x6c(%rsp)
  4054f6:	00 
  4054f7:	49 63 da             	movslq %r10d,%rbx
  4054fa:	48 85 db             	test   %rbx,%rbx
  4054fd:	48 0f 48 d8          	cmovs  %rax,%rbx
  405501:	48 89 5c 24 38       	mov    %rbx,0x38(%rsp)
  405506:	8b 1e                	mov    (%rsi),%ebx
  405508:	49 63 f1             	movslq %r9d,%rsi
  40550b:	48 8b 6c 24 38       	mov    0x38(%rsp),%rbp
  405510:	4c 8b 64 24 38       	mov    0x38(%rsp),%r12
  405515:	89 5c 24 40          	mov    %ebx,0x40(%rsp)
  405519:	48 63 db             	movslq %ebx,%rbx
  40551c:	48 0f af eb          	imul   %rbx,%rbp
  405520:	49 f7 d4             	not    %r12
  405523:	48 85 ed             	test   %rbp,%rbp
  405526:	48 0f 48 e8          	cmovs  %rax,%rbp
  40552a:	49 29 ec             	sub    %rbp,%r12
  40552d:	48 85 f6             	test   %rsi,%rsi
  405530:	48 0f 48 f0          	cmovs  %rax,%rsi
  405534:	48 0f af de          	imul   %rsi,%rbx
  405538:	49 89 f5             	mov    %rsi,%r13
  40553b:	48 89 74 24 30       	mov    %rsi,0x30(%rsp)
  405540:	49 f7 d5             	not    %r13
  405543:	48 85 db             	test   %rbx,%rbx
  405546:	48 0f 48 d8          	cmovs  %rax,%rbx
  40554a:	49 29 dd             	sub    %rbx,%r13
  40554d:	83 3d 64 eb 21 00 00 	cmpl   $0x0,0x21eb64(%rip)        # 6240b8 <dbg_+0x8>
  405554:	74 40                	je     405596 <transpose_x_z_local_+0xc6>
  405556:	bf dc c8 40 00       	mov    $0x40c8dc,%edi
  40555b:	48 89 54 24 18       	mov    %rdx,0x18(%rsp)
  405560:	48 89 4c 24 10       	mov    %rcx,0x10(%rsp)
  405565:	4c 89 44 24 08       	mov    %r8,0x8(%rsp)
  40556a:	e8 51 53 00 00       	callq  40a8c0 <timer_start_>
  40556f:	48 8b 54 24 18       	mov    0x18(%rsp),%rdx
  405574:	45 8b 3f             	mov    (%r15),%r15d
  405577:	8b 05 3b eb 21 00    	mov    0x21eb3b(%rip),%eax        # 6240b8 <dbg_+0x8>
  40557d:	45 8b 0e             	mov    (%r14),%r9d
  405580:	4c 8b 44 24 08       	mov    0x8(%rsp),%r8
  405585:	48 8b 4c 24 10       	mov    0x10(%rsp),%rcx
  40558a:	44 8b 12             	mov    (%rdx),%r10d
  40558d:	44 89 7c 24 40       	mov    %r15d,0x40(%rsp)
  405592:	89 44 24 6c          	mov    %eax,0x6c(%rsp)
  405596:	41 83 f9 1f          	cmp    $0x1f,%r9d
  40559a:	0f 8f b0 00 00 00    	jg     405650 <transpose_x_z_local_+0x180>
  4055a0:	83 7c 24 40 00       	cmpl   $0x0,0x40(%rsp)
  4055a5:	0f 8e a5 00 00 00    	jle    405650 <transpose_x_z_local_+0x180>
  4055ab:	48 8b 54 24 30       	mov    0x30(%rsp),%rdx
  4055b0:	41 bf 01 00 00 00    	mov    $0x1,%r15d
  4055b6:	48 8d 44 1a 01       	lea    0x1(%rdx,%rbx,1),%rax
  4055bb:	48 8b 54 24 38       	mov    0x38(%rsp),%rdx
  4055c0:	4c 01 e8             	add    %r13,%rax
  4055c3:	48 89 44 24 28       	mov    %rax,0x28(%rsp)
  4055c8:	48 8d 44 15 01       	lea    0x1(%rbp,%rdx,1),%rax
  4055cd:	4c 01 e0             	add    %r12,%rax
  4055d0:	48 89 44 24 20       	mov    %rax,0x20(%rsp)
  4055d5:	48 89 e8             	mov    %rbp,%rax
  4055d8:	48 c1 e0 04          	shl    $0x4,%rax
  4055dc:	48 89 44 24 48       	mov    %rax,0x48(%rsp)
  4055e1:	45 85 d2             	test   %r10d,%r10d
  4055e4:	0f 8e b1 03 00 00    	jle    40599b <transpose_x_z_local_+0x4cb>
  4055ea:	4c 8b 5c 24 20       	mov    0x20(%rsp),%r11
  4055ef:	48 8b 7c 24 28       	mov    0x28(%rsp),%rdi
  4055f4:	be 01 00 00 00       	mov    $0x1,%esi
  4055f9:	45 85 c9             	test   %r9d,%r9d
  4055fc:	7e 3d                	jle    40563b <transpose_x_z_local_+0x16b>
  4055fe:	48 89 fa             	mov    %rdi,%rdx
  405601:	4c 89 d8             	mov    %r11,%rax
  405604:	45 31 f6             	xor    %r14d,%r14d
  405607:	48 c1 e2 04          	shl    $0x4,%rdx
  40560b:	48 c1 e0 04          	shl    $0x4,%rax
  40560f:	48 8d 14 11          	lea    (%rcx,%rdx,1),%rdx
  405613:	49 8d 04 00          	lea    (%r8,%rax,1),%rax
  405617:	f2 0f 10 02          	movsd  (%rdx),%xmm0
  40561b:	41 83 c6 01          	add    $0x1,%r14d
  40561f:	f2 0f 11 00          	movsd  %xmm0,(%rax)
  405623:	f2 0f 10 42 08       	movsd  0x8(%rdx),%xmm0
  405628:	48 83 c2 10          	add    $0x10,%rdx
  40562c:	f2 0f 11 40 08       	movsd  %xmm0,0x8(%rax)
  405631:	48 03 44 24 48       	add    0x48(%rsp),%rax
  405636:	45 39 ce             	cmp    %r9d,%r14d
  405639:	75 dc                	jne    405617 <transpose_x_z_local_+0x147>
  40563b:	48 01 df             	add    %rbx,%rdi
  40563e:	49 83 c3 01          	add    $0x1,%r11
  405642:	44 39 d6             	cmp    %r10d,%esi
  405645:	0f 84 50 03 00 00    	je     40599b <transpose_x_z_local_+0x4cb>
  40564b:	83 c6 01             	add    $0x1,%esi
  40564e:	eb a9                	jmp    4055f9 <transpose_x_z_local_+0x129>
  405650:	41 83 fa 01          	cmp    $0x1,%r10d
  405654:	0f 84 9c 02 00 00    	je     4058f6 <transpose_x_z_local_+0x426>
  40565a:	41 83 fa 20          	cmp    $0x20,%r10d
  40565e:	be 20 00 00 00       	mov    $0x20,%esi
  405663:	7f 03                	jg     405668 <transpose_x_z_local_+0x198>
  405665:	44 89 d6             	mov    %r10d,%esi
  405668:	89 f0                	mov    %esi,%eax
  40566a:	44 89 cf             	mov    %r9d,%edi
  40566d:	41 0f af c1          	imul   %r9d,%eax
  405671:	3d 00 04 00 00       	cmp    $0x400,%eax
  405676:	7e 0e                	jle    405686 <transpose_x_z_local_+0x1b6>
  405678:	ba 00 04 00 00       	mov    $0x400,%edx
  40567d:	89 d0                	mov    %edx,%eax
  40567f:	c1 fa 1f             	sar    $0x1f,%edx
  405682:	f7 fe                	idiv   %esi
  405684:	89 c7                	mov    %eax,%edi
  405686:	83 7c 24 40 00       	cmpl   $0x0,0x40(%rsp)
  40568b:	0f 8e 48 02 00 00    	jle    4058d9 <transpose_x_z_local_+0x409>
  405691:	8d 47 ff             	lea    -0x1(%rdi),%eax
  405694:	41 29 f2             	sub    %esi,%r10d
  405697:	4c 03 64 24 38       	add    0x38(%rsp),%r12
  40569c:	44 89 54 24 28       	mov    %r10d,0x28(%rsp)
  4056a1:	4c 03 6c 24 30       	add    0x30(%rsp),%r13
  4056a6:	41 29 f9             	sub    %edi,%r9d
  4056a9:	48 89 c2             	mov    %rax,%rdx
  4056ac:	44 89 4c 24 20       	mov    %r9d,0x20(%rsp)
  4056b1:	c7 44 24 54 01 00 00 	movl   $0x1,0x54(%rsp)
  4056b8:	00 
  4056b9:	48 c1 e2 05          	shl    $0x5,%rdx
  4056bd:	4c 8d 14 42          	lea    (%rdx,%rax,2),%r10
  4056c1:	48 83 c0 01          	add    $0x1,%rax
  4056c5:	4c 89 64 24 60       	mov    %r12,0x60(%rsp)
  4056ca:	4c 6b d8 22          	imul   $0x22,%rax,%r11
  4056ce:	4c 89 6c 24 58       	mov    %r13,0x58(%rsp)
  4056d3:	85 f6                	test   %esi,%esi
  4056d5:	0f 8e 9b 01 00 00    	jle    405876 <transpose_x_z_local_+0x3a6>
  4056db:	83 7c 24 28 00       	cmpl   $0x0,0x28(%rsp)
  4056e0:	0f 88 97 01 00 00    	js     40587d <transpose_x_z_local_+0x3ad>
  4056e6:	8b 44 24 28          	mov    0x28(%rsp),%eax
  4056ea:	31 d2                	xor    %edx,%edx
  4056ec:	f7 f6                	div    %esi
  4056ee:	89 44 24 48          	mov    %eax,0x48(%rsp)
  4056f2:	8d 46 ff             	lea    -0x1(%rsi),%eax
  4056f5:	45 31 c9             	xor    %r9d,%r9d
  4056f8:	48 83 c0 22          	add    $0x22,%rax
  4056fc:	48 89 44 24 78       	mov    %rax,0x78(%rsp)
  405701:	85 ff                	test   %edi,%edi
  405703:	0f 8e 52 01 00 00    	jle    40585b <transpose_x_z_local_+0x38b>
  405709:	83 7c 24 20 00       	cmpl   $0x0,0x20(%rsp)
  40570e:	0f 88 4e 01 00 00    	js     405862 <transpose_x_z_local_+0x392>
  405714:	8b 44 24 20          	mov    0x20(%rsp),%eax
  405718:	31 d2                	xor    %edx,%edx
  40571a:	f7 f7                	div    %edi
  40571c:	89 44 24 44          	mov    %eax,0x44(%rsp)
  405720:	48 8b 54 24 78       	mov    0x78(%rsp),%rdx
  405725:	c7 44 24 50 00 00 00 	movl   $0x0,0x50(%rsp)
  40572c:	00 
  40572d:	48 c1 e2 04          	shl    $0x4,%rdx
  405731:	48 89 54 24 70       	mov    %rdx,0x70(%rsp)
  405736:	85 f6                	test   %esi,%esi
  405738:	0f 8e 82 00 00 00    	jle    4057c0 <transpose_x_z_local_+0x2f0>
  40573e:	44 8b 7c 24 50       	mov    0x50(%rsp),%r15d
  405743:	41 be 01 00 00 00    	mov    $0x1,%r14d
  405749:	41 83 c7 01          	add    $0x1,%r15d
  40574d:	4d 63 ff             	movslq %r15d,%r15
  405750:	4c 03 7c 24 58       	add    0x58(%rsp),%r15
  405755:	0f 1f 00             	nopl   (%rax)
  405758:	85 ff                	test   %edi,%edi
  40575a:	7e 59                	jle    4057b5 <transpose_x_z_local_+0x2e5>
  40575c:	43 8d 14 0e          	lea    (%r14,%r9,1),%edx
  405760:	4d 63 ee             	movslq %r14d,%r13
  405763:	4c 89 e8             	mov    %r13,%rax
  405766:	4d 01 d5             	add    %r10,%r13
  405769:	48 63 d2             	movslq %edx,%rdx
  40576c:	48 c1 e0 04          	shl    $0x4,%rax
  405770:	49 c1 e5 04          	shl    $0x4,%r13
  405774:	48 0f af d3          	imul   %rbx,%rdx
  405778:	48 05 70 28 61 00    	add    $0x612870,%rax
  40577e:	49 81 c5 90 2a 61 00 	add    $0x612a90,%r13
  405785:	49 8d 14 17          	lea    (%r15,%rdx,1),%rdx
  405789:	48 c1 e2 04          	shl    $0x4,%rdx
  40578d:	48 8d 14 11          	lea    (%rcx,%rdx,1),%rdx
  405791:	0f 1f 80 00 00 00 00 	nopl   0x0(%rax)
  405798:	4c 8b 22             	mov    (%rdx),%r12
  40579b:	4c 89 20             	mov    %r12,(%rax)
  40579e:	4c 8b 62 08          	mov    0x8(%rdx),%r12
  4057a2:	48 83 c2 10          	add    $0x10,%rdx
  4057a6:	4c 89 60 08          	mov    %r12,0x8(%rax)
  4057aa:	48 05 20 02 00 00    	add    $0x220,%rax
  4057b0:	4c 39 e8             	cmp    %r13,%rax
  4057b3:	75 e3                	jne    405798 <transpose_x_z_local_+0x2c8>
  4057b5:	44 39 f6             	cmp    %r14d,%esi
  4057b8:	74 06                	je     4057c0 <transpose_x_z_local_+0x2f0>
  4057ba:	41 83 c6 01          	add    $0x1,%r14d
  4057be:	eb 98                	jmp    405758 <transpose_x_z_local_+0x288>
  4057c0:	85 ff                	test   %edi,%edi
  4057c2:	0f 8e 7e 00 00 00    	jle    405846 <transpose_x_z_local_+0x376>
  4057c8:	8b 44 24 50          	mov    0x50(%rsp),%eax
  4057cc:	45 8d 79 01          	lea    0x1(%r9),%r15d
  4057d0:	4c 8b 6c 24 70       	mov    0x70(%rsp),%r13
  4057d5:	45 31 f6             	xor    %r14d,%r14d
  4057d8:	4d 63 ff             	movslq %r15d,%r15
  4057db:	4c 03 7c 24 60       	add    0x60(%rsp),%r15
  4057e0:	83 c0 01             	add    $0x1,%eax
  4057e3:	49 81 c5 70 26 61 00 	add    $0x612670,%r13
  4057ea:	48 98                	cltq   
  4057ec:	48 0f af c5          	imul   %rbp,%rax
  4057f0:	49 01 c7             	add    %rax,%r15
  4057f3:	0f 1f 44 00 00       	nopl   0x0(%rax,%rax,1)
  4057f8:	85 f6                	test   %esi,%esi
  4057fa:	7e 37                	jle    405833 <transpose_x_z_local_+0x363>
  4057fc:	4c 89 fa             	mov    %r15,%rdx
  4057ff:	4c 89 f0             	mov    %r14,%rax
  405802:	48 c1 e2 04          	shl    $0x4,%rdx
  405806:	48 c1 e0 04          	shl    $0x4,%rax
  40580a:	49 8d 14 10          	lea    (%r8,%rdx,1),%rdx
  40580e:	48 05 80 28 61 00    	add    $0x612880,%rax
  405814:	0f 1f 40 00          	nopl   0x0(%rax)
  405818:	4c 8b 20             	mov    (%rax),%r12
  40581b:	4c 89 22             	mov    %r12,(%rdx)
  40581e:	4c 8b 60 08          	mov    0x8(%rax),%r12
  405822:	48 83 c0 10          	add    $0x10,%rax
  405826:	4c 89 62 08          	mov    %r12,0x8(%rdx)
  40582a:	48 83 c2 10          	add    $0x10,%rdx
  40582e:	4c 39 e8             	cmp    %r13,%rax
  405831:	75 e5                	jne    405818 <transpose_x_z_local_+0x348>
  405833:	49 83 c6 22          	add    $0x22,%r14
  405837:	49 81 c5 20 02 00 00 	add    $0x220,%r13
  40583e:	49 01 ef             	add    %rbp,%r15
  405841:	4d 39 de             	cmp    %r11,%r14
  405844:	75 b2                	jne    4057f8 <transpose_x_z_local_+0x328>
  405846:	83 7c 24 44 00       	cmpl   $0x0,0x44(%rsp)
  40584b:	74 15                	je     405862 <transpose_x_z_local_+0x392>
  40584d:	01 7c 24 50          	add    %edi,0x50(%rsp)
  405851:	83 6c 24 44 01       	subl   $0x1,0x44(%rsp)
  405856:	e9 db fe ff ff       	jmpq   405736 <transpose_x_z_local_+0x266>
  40585b:	83 7c 24 20 00       	cmpl   $0x0,0x20(%rsp)
  405860:	7e 43                	jle    4058a5 <transpose_x_z_local_+0x3d5>
  405862:	83 7c 24 48 00       	cmpl   $0x0,0x48(%rsp)
  405867:	74 14                	je     40587d <transpose_x_z_local_+0x3ad>
  405869:	41 01 f1             	add    %esi,%r9d
  40586c:	83 6c 24 48 01       	subl   $0x1,0x48(%rsp)
  405871:	e9 8b fe ff ff       	jmpq   405701 <transpose_x_z_local_+0x231>
  405876:	83 7c 24 28 00       	cmpl   $0x0,0x28(%rsp)
  40587b:	7e 42                	jle    4058bf <transpose_x_z_local_+0x3ef>
  40587d:	48 8b 44 24 38       	mov    0x38(%rsp),%rax
  405882:	48 8b 54 24 30       	mov    0x30(%rsp),%rdx
  405887:	48 01 44 24 60       	add    %rax,0x60(%rsp)
  40588c:	48 01 54 24 58       	add    %rdx,0x58(%rsp)
  405891:	8b 44 24 40          	mov    0x40(%rsp),%eax
  405895:	39 44 24 54          	cmp    %eax,0x54(%rsp)
  405899:	74 3e                	je     4058d9 <transpose_x_z_local_+0x409>
  40589b:	83 44 24 54 01       	addl   $0x1,0x54(%rsp)
  4058a0:	e9 2e fe ff ff       	jmpq   4056d3 <transpose_x_z_local_+0x203>
  4058a5:	8b 44 24 20          	mov    0x20(%rsp),%eax
  4058a9:	41 89 fc             	mov    %edi,%r12d
  4058ac:	31 d2                	xor    %edx,%edx
  4058ae:	41 f7 dc             	neg    %r12d
  4058b1:	f7 d8                	neg    %eax
  4058b3:	41 f7 f4             	div    %r12d
  4058b6:	89 44 24 44          	mov    %eax,0x44(%rsp)
  4058ba:	e9 61 fe ff ff       	jmpq   405720 <transpose_x_z_local_+0x250>
  4058bf:	8b 44 24 28          	mov    0x28(%rsp),%eax
  4058c3:	41 89 f1             	mov    %esi,%r9d
  4058c6:	31 d2                	xor    %edx,%edx
  4058c8:	41 f7 d9             	neg    %r9d
  4058cb:	f7 d8                	neg    %eax
  4058cd:	41 f7 f1             	div    %r9d
  4058d0:	89 44 24 48          	mov    %eax,0x48(%rsp)
  4058d4:	e9 19 fe ff ff       	jmpq   4056f2 <transpose_x_z_local_+0x222>
  4058d9:	83 7c 24 6c 00       	cmpl   $0x0,0x6c(%rsp)
  4058de:	0f 85 9a 00 00 00    	jne    40597e <transpose_x_z_local_+0x4ae>
  4058e4:	48 81 c4 88 00 00 00 	add    $0x88,%rsp
  4058eb:	5b                   	pop    %rbx
  4058ec:	5d                   	pop    %rbp
  4058ed:	41 5c                	pop    %r12
  4058ef:	41 5d                	pop    %r13
  4058f1:	41 5e                	pop    %r14
  4058f3:	41 5f                	pop    %r15
  4058f5:	c3                   	retq   
  4058f6:	83 7c 24 40 00       	cmpl   $0x0,0x40(%rsp)
  4058fb:	0f 8e 64 fd ff ff    	jle    405665 <transpose_x_z_local_+0x195>
  405901:	48 8b 44 24 30       	mov    0x30(%rsp),%rax
  405906:	48 8b 54 24 38       	mov    0x38(%rsp),%rdx
  40590b:	49 89 ef             	mov    %rbp,%r15
  40590e:	be 01 00 00 00       	mov    $0x1,%esi
  405913:	49 c1 e7 04          	shl    $0x4,%r15
  405917:	4c 8d 5c 18 01       	lea    0x1(%rax,%rbx,1),%r11
  40591c:	4c 8d 74 15 01       	lea    0x1(%rbp,%rdx,1),%r14
  405921:	4d 01 eb             	add    %r13,%r11
  405924:	4d 01 e6             	add    %r12,%r14
  405927:	45 85 c9             	test   %r9d,%r9d
  40592a:	7e 39                	jle    405965 <transpose_x_z_local_+0x495>
  40592c:	4c 89 da             	mov    %r11,%rdx
  40592f:	4c 89 f0             	mov    %r14,%rax
  405932:	31 ff                	xor    %edi,%edi
  405934:	48 c1 e2 04          	shl    $0x4,%rdx
  405938:	48 c1 e0 04          	shl    $0x4,%rax
  40593c:	48 8d 14 11          	lea    (%rcx,%rdx,1),%rdx
  405940:	49 8d 04 00          	lea    (%r8,%rax,1),%rax
  405944:	f2 0f 10 02          	movsd  (%rdx),%xmm0
  405948:	83 c7 01             	add    $0x1,%edi
  40594b:	f2 0f 11 00          	movsd  %xmm0,(%rax)
  40594f:	f2 0f 10 42 08       	movsd  0x8(%rdx),%xmm0
  405954:	48 83 c2 10          	add    $0x10,%rdx
  405958:	f2 0f 11 40 08       	movsd  %xmm0,0x8(%rax)
  40595d:	4c 01 f8             	add    %r15,%rax
  405960:	44 39 cf             	cmp    %r9d,%edi
  405963:	75 df                	jne    405944 <transpose_x_z_local_+0x474>
  405965:	4c 03 5c 24 30       	add    0x30(%rsp),%r11
  40596a:	4c 03 74 24 38       	add    0x38(%rsp),%r14
  40596f:	3b 74 24 40          	cmp    0x40(%rsp),%esi
  405973:	0f 84 ec fc ff ff    	je     405665 <transpose_x_z_local_+0x195>
  405979:	83 c6 01             	add    $0x1,%esi
  40597c:	eb a9                	jmp    405927 <transpose_x_z_local_+0x457>
  40597e:	48 81 c4 88 00 00 00 	add    $0x88,%rsp
  405985:	bf dc c8 40 00       	mov    $0x40c8dc,%edi
  40598a:	31 c0                	xor    %eax,%eax
  40598c:	5b                   	pop    %rbx
  40598d:	5d                   	pop    %rbp
  40598e:	41 5c                	pop    %r12
  405990:	41 5d                	pop    %r13
  405992:	41 5e                	pop    %r14
  405994:	41 5f                	pop    %r15
  405996:	e9 f5 4e 00 00       	jmpq   40a890 <timer_stop_>
  40599b:	48 8b 44 24 30       	mov    0x30(%rsp),%rax
  4059a0:	48 8b 54 24 38       	mov    0x38(%rsp),%rdx
  4059a5:	48 01 44 24 28       	add    %rax,0x28(%rsp)
  4059aa:	48 01 54 24 20       	add    %rdx,0x20(%rsp)
  4059af:	44 3b 7c 24 40       	cmp    0x40(%rsp),%r15d
  4059b4:	0f 84 96 fc ff ff    	je     405650 <transpose_x_z_local_+0x180>
  4059ba:	41 83 c7 01          	add    $0x1,%r15d
  4059be:	e9 1e fc ff ff       	jmpq   4055e1 <transpose_x_z_local_+0x111>
  4059c3:	66 66 66 66 2e 0f 1f 	data32 data32 data32 nopw %cs:0x0(%rax,%rax,1)
  4059ca:	84 00 00 00 00 00 

00000000004059d0 <transpose_x_z_>:
  4059d0:	48 89 5c 24 e0       	mov    %rbx,-0x20(%rsp)
  4059d5:	48 89 6c 24 e8       	mov    %rbp,-0x18(%rsp)
  4059da:	48 89 d3             	mov    %rdx,%rbx
  4059dd:	4c 89 64 24 f0       	mov    %r12,-0x10(%rsp)
  4059e2:	4c 89 6c 24 f8       	mov    %r13,-0x8(%rsp)
  4059e7:	48 83 ec 28          	sub    $0x28,%rsp
  4059eb:	48 63 07             	movslq (%rdi),%rax
  4059ee:	48 89 cd             	mov    %rcx,%rbp
  4059f1:	49 89 fc             	mov    %rdi,%r12
  4059f4:	49 89 f5             	mov    %rsi,%r13
  4059f7:	49 89 e8             	mov    %rbp,%r8
  4059fa:	48 8d 4c 40 fe       	lea    -0x2(%rax,%rax,2),%rcx
  4059ff:	48 8d 54 40 ff       	lea    -0x1(%rax,%rax,2),%rdx
  405a04:	48 8d 44 40 fd       	lea    -0x3(%rax,%rax,2),%rax
  405a09:	48 8d 34 8d c0 40 62 	lea    0x6240c0(,%rcx,4),%rsi
  405a10:	00 
  405a11:	48 8d 3c 85 c0 40 62 	lea    0x6240c0(,%rax,4),%rdi
  405a18:	00 
  405a19:	48 8d 14 95 c0 40 62 	lea    0x6240c0(,%rdx,4),%rdx
  405a20:	00 
  405a21:	48 89 d9             	mov    %rbx,%rcx
  405a24:	31 c0                	xor    %eax,%eax
  405a26:	e8 a5 fa ff ff       	callq  4054d0 <transpose_x_z_local_>
  405a2b:	49 63 04 24          	movslq (%r12),%rax
  405a2f:	49 89 d8             	mov    %rbx,%r8
  405a32:	48 8d 4c 40 fe       	lea    -0x2(%rax,%rax,2),%rcx
  405a37:	48 8d 54 40 ff       	lea    -0x1(%rax,%rax,2),%rdx
  405a3c:	48 8d 44 40 fd       	lea    -0x3(%rax,%rax,2),%rax
  405a41:	48 8d 34 8d c0 40 62 	lea    0x6240c0(,%rcx,4),%rsi
  405a48:	00 
  405a49:	48 8d 3c 85 c0 40 62 	lea    0x6240c0(,%rax,4),%rdi
  405a50:	00 
  405a51:	48 8d 14 95 c0 40 62 	lea    0x6240c0(,%rdx,4),%rdx
  405a58:	00 
  405a59:	48 89 e9             	mov    %rbp,%rcx
  405a5c:	31 c0                	xor    %eax,%eax
  405a5e:	e8 ad f9 ff ff       	callq  405410 <transpose_x_z_global_>
  405a63:	49 63 45 00          	movslq 0x0(%r13),%rax
  405a67:	49 89 e8             	mov    %rbp,%r8
  405a6a:	4c 8b 64 24 18       	mov    0x18(%rsp),%r12
  405a6f:	48 8b 6c 24 10       	mov    0x10(%rsp),%rbp
  405a74:	4c 8b 6c 24 20       	mov    0x20(%rsp),%r13
  405a79:	48 8d 4c 40 fe       	lea    -0x2(%rax,%rax,2),%rcx
  405a7e:	48 8d 54 40 ff       	lea    -0x1(%rax,%rax,2),%rdx
  405a83:	48 8d 44 40 fd       	lea    -0x3(%rax,%rax,2),%rax
  405a88:	48 8d 34 8d c0 40 62 	lea    0x6240c0(,%rcx,4),%rsi
  405a8f:	00 
  405a90:	48 8d 3c 85 c0 40 62 	lea    0x6240c0(,%rax,4),%rdi
  405a97:	00 
  405a98:	48 8d 14 95 c0 40 62 	lea    0x6240c0(,%rdx,4),%rdx
  405a9f:	00 
  405aa0:	48 89 d9             	mov    %rbx,%rcx
  405aa3:	31 c0                	xor    %eax,%eax
  405aa5:	48 8b 5c 24 08       	mov    0x8(%rsp),%rbx
  405aaa:	48 83 c4 28          	add    $0x28,%rsp
  405aae:	e9 0d f7 ff ff       	jmpq   4051c0 <transpose_x_z_finish_>
  405ab3:	66 66 66 66 2e 0f 1f 	data32 data32 data32 nopw %cs:0x0(%rax,%rax,1)
  405aba:	84 00 00 00 00 00 

0000000000405ac0 <transpose2_finish_>:
  405ac0:	41 57                	push   %r15
  405ac2:	41 56                	push   %r14
  405ac4:	41 55                	push   %r13
  405ac6:	49 89 fd             	mov    %rdi,%r13
  405ac9:	31 ff                	xor    %edi,%edi
  405acb:	41 54                	push   %r12
  405acd:	55                   	push   %rbp
  405ace:	53                   	push   %rbx
  405acf:	48 89 d3             	mov    %rdx,%rbx
  405ad2:	48 83 ec 48          	sub    $0x48,%rsp
  405ad6:	48 63 2e             	movslq (%rsi),%rbp
  405ad9:	8b 05 a5 e6 21 00    	mov    0x21e6a5(%rip),%eax        # 624184 <procgrid_+0x4>
  405adf:	41 8b 55 00          	mov    0x0(%r13),%edx
  405ae3:	44 8b 15 ce e5 21 00 	mov    0x21e5ce(%rip),%r10d        # 6240b8 <dbg_+0x8>
  405aea:	c7 44 24 3c 00 00 00 	movl   $0x0,0x3c(%rsp)
  405af1:	00 
  405af2:	89 44 24 24          	mov    %eax,0x24(%rsp)
  405af6:	41 89 ec             	mov    %ebp,%r12d
  405af9:	44 0f af e0          	imul   %eax,%r12d
  405afd:	89 d0                	mov    %edx,%eax
  405aff:	4d 63 e4             	movslq %r12d,%r12
  405b02:	4d 85 e4             	test   %r12,%r12
  405b05:	4c 0f 48 e7          	cmovs  %rdi,%r12
  405b09:	48 85 ed             	test   %rbp,%rbp
  405b0c:	48 0f 48 ef          	cmovs  %rdi,%rbp
  405b10:	c1 fa 1f             	sar    $0x1f,%edx
  405b13:	4d 89 e0             	mov    %r12,%r8
  405b16:	f7 7c 24 24          	idivl  0x24(%rsp)
  405b1a:	49 89 ee             	mov    %rbp,%r14
  405b1d:	49 f7 d0             	not    %r8
  405b20:	49 f7 d6             	not    %r14
  405b23:	48 98                	cltq   
  405b25:	48 0f af c5          	imul   %rbp,%rax
  405b29:	48 85 c0             	test   %rax,%rax
  405b2c:	48 0f 49 f8          	cmovns %rax,%rdi
  405b30:	45 85 d2             	test   %r10d,%r10d
  405b33:	48 89 7c 24 28       	mov    %rdi,0x28(%rsp)
  405b38:	0f 85 f1 00 00 00    	jne    405c2f <transpose2_finish_+0x16f>
  405b3e:	44 8b 4c 24 24       	mov    0x24(%rsp),%r9d
  405b43:	45 85 c9             	test   %r9d,%r9d
  405b46:	0f 8e b2 00 00 00    	jle    405bfe <transpose2_finish_+0x13e>
  405b4c:	41 8b 55 00          	mov    0x0(%r13),%edx
  405b50:	8b 36                	mov    (%rsi),%esi
  405b52:	4f 8d 44 04 01       	lea    0x1(%r12,%r8,1),%r8
  405b57:	4e 8d 7c 35 01       	lea    0x1(%rbp,%r14,1),%r15
  405b5c:	45 31 f6             	xor    %r14d,%r14d
  405b5f:	4c 89 44 24 18       	mov    %r8,0x18(%rsp)
  405b64:	89 d0                	mov    %edx,%eax
  405b66:	c1 fa 1f             	sar    $0x1f,%edx
  405b69:	f7 7c 24 24          	idivl  0x24(%rsp)
  405b6d:	48 63 d6             	movslq %esi,%rdx
  405b70:	48 89 54 24 30       	mov    %rdx,0x30(%rsp)
  405b75:	0f 1f 00             	nopl   (%rax)
  405b78:	85 c0                	test   %eax,%eax
  405b7a:	7e 64                	jle    405be0 <transpose2_finish_+0x120>
  405b7c:	4c 8b 5c 24 18       	mov    0x18(%rsp),%r11
  405b81:	4d 89 fa             	mov    %r15,%r10
  405b84:	41 bd 01 00 00 00    	mov    $0x1,%r13d
  405b8a:	66 0f 1f 44 00 00    	nopw   0x0(%rax,%rax,1)
  405b90:	85 f6                	test   %esi,%esi
  405b92:	7e 3b                	jle    405bcf <transpose2_finish_+0x10f>
  405b94:	4c 89 d7             	mov    %r10,%rdi
  405b97:	4c 89 da             	mov    %r11,%rdx
  405b9a:	45 31 c0             	xor    %r8d,%r8d
  405b9d:	48 c1 e7 04          	shl    $0x4,%rdi
  405ba1:	48 c1 e2 04          	shl    $0x4,%rdx
  405ba5:	48 8d 3c 3b          	lea    (%rbx,%rdi,1),%rdi
  405ba9:	48 8d 14 11          	lea    (%rcx,%rdx,1),%rdx
  405bad:	0f 1f 00             	nopl   (%rax)
  405bb0:	4c 8b 0f             	mov    (%rdi),%r9
  405bb3:	41 83 c0 01          	add    $0x1,%r8d
  405bb7:	4c 89 0a             	mov    %r9,(%rdx)
  405bba:	4c 8b 4f 08          	mov    0x8(%rdi),%r9
  405bbe:	48 83 c7 10          	add    $0x10,%rdi
  405bc2:	4c 89 4a 08          	mov    %r9,0x8(%rdx)
  405bc6:	48 83 c2 10          	add    $0x10,%rdx
  405bca:	41 39 f0             	cmp    %esi,%r8d
  405bcd:	75 e1                	jne    405bb0 <transpose2_finish_+0xf0>
  405bcf:	49 01 ea             	add    %rbp,%r10
  405bd2:	4d 01 e3             	add    %r12,%r11
  405bd5:	41 39 c5             	cmp    %eax,%r13d
  405bd8:	74 06                	je     405be0 <transpose2_finish_+0x120>
  405bda:	41 83 c5 01          	add    $0x1,%r13d
  405bde:	eb b0                	jmp    405b90 <transpose2_finish_+0xd0>
  405be0:	41 83 c6 01          	add    $0x1,%r14d
  405be4:	4c 03 7c 24 28       	add    0x28(%rsp),%r15
  405be9:	48 8b 54 24 30       	mov    0x30(%rsp),%rdx
  405bee:	48 01 54 24 18       	add    %rdx,0x18(%rsp)
  405bf3:	44 3b 74 24 24       	cmp    0x24(%rsp),%r14d
  405bf8:	0f 85 7a ff ff ff    	jne    405b78 <transpose2_finish_+0xb8>
  405bfe:	8b 6c 24 3c          	mov    0x3c(%rsp),%ebp
  405c02:	85 ed                	test   %ebp,%ebp
  405c04:	75 0f                	jne    405c15 <transpose2_finish_+0x155>
  405c06:	48 83 c4 48          	add    $0x48,%rsp
  405c0a:	5b                   	pop    %rbx
  405c0b:	5d                   	pop    %rbp
  405c0c:	41 5c                	pop    %r12
  405c0e:	41 5d                	pop    %r13
  405c10:	41 5e                	pop    %r14
  405c12:	41 5f                	pop    %r15
  405c14:	c3                   	retq   
  405c15:	48 83 c4 48          	add    $0x48,%rsp
  405c19:	bf d4 c8 40 00       	mov    $0x40c8d4,%edi
  405c1e:	31 c0                	xor    %eax,%eax
  405c20:	5b                   	pop    %rbx
  405c21:	5d                   	pop    %rbp
  405c22:	41 5c                	pop    %r12
  405c24:	41 5d                	pop    %r13
  405c26:	41 5e                	pop    %r14
  405c28:	41 5f                	pop    %r15
  405c2a:	e9 61 4c 00 00       	jmpq   40a890 <timer_stop_>
  405c2f:	31 c0                	xor    %eax,%eax
  405c31:	bf d4 c8 40 00       	mov    $0x40c8d4,%edi
  405c36:	48 89 0c 24          	mov    %rcx,(%rsp)
  405c3a:	48 89 74 24 08       	mov    %rsi,0x8(%rsp)
  405c3f:	4c 89 44 24 10       	mov    %r8,0x10(%rsp)
  405c44:	e8 77 4c 00 00       	callq  40a8c0 <timer_start_>
  405c49:	8b 15 35 e5 21 00    	mov    0x21e535(%rip),%edx        # 624184 <procgrid_+0x4>
  405c4f:	8b 05 63 e4 21 00    	mov    0x21e463(%rip),%eax        # 6240b8 <dbg_+0x8>
  405c55:	4c 8b 44 24 10       	mov    0x10(%rsp),%r8
  405c5a:	48 8b 74 24 08       	mov    0x8(%rsp),%rsi
  405c5f:	48 8b 0c 24          	mov    (%rsp),%rcx
  405c63:	89 54 24 24          	mov    %edx,0x24(%rsp)
  405c67:	89 44 24 3c          	mov    %eax,0x3c(%rsp)
  405c6b:	e9 ce fe ff ff       	jmpq   405b3e <transpose2_finish_+0x7e>

0000000000405c70 <transpose2_global_>:
  405c70:	53                   	push   %rbx
  405c71:	48 89 f1             	mov    %rsi,%rcx
  405c74:	48 89 fb             	mov    %rdi,%rbx
  405c77:	48 83 ec 30          	sub    $0x30,%rsp
  405c7b:	8b 05 37 e4 21 00    	mov    0x21e437(%rip),%eax        # 6240b8 <dbg_+0x8>
  405c81:	85 c0                	test   %eax,%eax
  405c83:	75 6b                	jne    405cf0 <transpose2_global_+0x80>
  405c85:	ba 00 40 00 00       	mov    $0x4000,%edx
  405c8a:	41 b9 70 41 62 00    	mov    $0x624170,%r9d
  405c90:	48 8d 74 24 28       	lea    0x28(%rsp),%rsi
  405c95:	89 d0                	mov    %edx,%eax
  405c97:	c1 fa 1f             	sar    $0x1f,%edx
  405c9a:	4c 8d 44 24 24       	lea    0x24(%rsp),%r8
  405c9f:	f7 3d e7 e4 21 00    	idivl  0x21e4e7(%rip)        # 62418c <procgrid_+0xc>
  405ca5:	48 89 df             	mov    %rbx,%rdi
  405ca8:	4c 89 ca             	mov    %r9,%rdx
  405cab:	48 c7 04 24 00 47 70 	movq   $0x704700,(%rsp)
  405cb2:	00 
  405cb3:	89 44 24 28          	mov    %eax,0x28(%rsp)
  405cb7:	89 44 24 24          	mov    %eax,0x24(%rsp)
  405cbb:	48 8d 44 24 2c       	lea    0x2c(%rsp),%rax
  405cc0:	48 89 44 24 08       	mov    %rax,0x8(%rsp)
  405cc5:	31 c0                	xor    %eax,%eax
  405cc7:	e8 14 d0 ff ff       	callq  402ce0 <mpi_alltoall_@plt>
  405ccc:	44 8b 1d e5 e3 21 00 	mov    0x21e3e5(%rip),%r11d        # 6240b8 <dbg_+0x8>
  405cd3:	45 85 db             	test   %r11d,%r11d
  405cd6:	74 0c                	je     405ce4 <transpose2_global_+0x74>
  405cd8:	bf d8 c8 40 00       	mov    $0x40c8d8,%edi
  405cdd:	31 c0                	xor    %eax,%eax
  405cdf:	e8 ac 4b 00 00       	callq  40a890 <timer_stop_>
  405ce4:	48 83 c4 30          	add    $0x30,%rsp
  405ce8:	5b                   	pop    %rbx
  405ce9:	c3                   	retq   
  405cea:	66 0f 1f 44 00 00    	nopw   0x0(%rax,%rax,1)
  405cf0:	bf d8 c8 40 00       	mov    $0x40c8d8,%edi
  405cf5:	31 c0                	xor    %eax,%eax
  405cf7:	48 89 74 24 18       	mov    %rsi,0x18(%rsp)
  405cfc:	e8 bf 4b 00 00       	callq  40a8c0 <timer_start_>
  405d01:	48 8b 4c 24 18       	mov    0x18(%rsp),%rcx
  405d06:	e9 7a ff ff ff       	jmpq   405c85 <transpose2_global_+0x15>
  405d0b:	0f 1f 44 00 00       	nopl   0x0(%rax,%rax,1)

0000000000405d10 <transpose2_local_>:
  405d10:	41 57                	push   %r15
  405d12:	41 56                	push   %r14
  405d14:	41 55                	push   %r13
  405d16:	49 89 f5             	mov    %rsi,%r13
  405d19:	41 54                	push   %r12
  405d1b:	55                   	push   %rbp
  405d1c:	53                   	push   %rbx
  405d1d:	48 89 fb             	mov    %rdi,%rbx
  405d20:	48 81 ec 68 44 00 00 	sub    $0x4468,%rsp
  405d27:	44 8b 3e             	mov    (%rsi),%r15d
  405d2a:	8b 07                	mov    (%rdi),%eax
  405d2c:	31 f6                	xor    %esi,%esi
  405d2e:	c7 44 24 4c 00 00 00 	movl   $0x0,0x4c(%rsp)
  405d35:	00 
  405d36:	49 63 ef             	movslq %r15d,%rbp
  405d39:	4c 63 e0             	movslq %eax,%r12
  405d3c:	48 85 ed             	test   %rbp,%rbp
  405d3f:	48 0f 48 ee          	cmovs  %rsi,%rbp
  405d43:	4d 85 e4             	test   %r12,%r12
  405d46:	4c 0f 48 e6          	cmovs  %rsi,%r12
  405d4a:	83 3d 67 e3 21 00 00 	cmpl   $0x0,0x21e367(%rip)        # 6240b8 <dbg_+0x8>
  405d51:	49 89 ee             	mov    %rbp,%r14
  405d54:	4c 89 e6             	mov    %r12,%rsi
  405d57:	49 f7 d6             	not    %r14
  405d5a:	48 f7 d6             	not    %rsi
  405d5d:	48 89 74 24 40       	mov    %rsi,0x40(%rsp)
  405d62:	0f 85 ad 02 00 00    	jne    406015 <transpose2_local_+0x305>
  405d68:	83 f8 1f             	cmp    $0x1f,%eax
  405d6b:	0f 8e 2b 02 00 00    	jle    405f9c <transpose2_local_+0x28c>
  405d71:	41 83 ff 1f          	cmp    $0x1f,%r15d
  405d75:	0f 8f 88 00 00 00    	jg     405e03 <transpose2_local_+0xf3>
  405d7b:	45 85 ff             	test   %r15d,%r15d
  405d7e:	66 90                	xchg   %ax,%ax
  405d80:	7e 64                	jle    405de6 <transpose2_local_+0xd6>
  405d82:	48 8b 74 24 40       	mov    0x40(%rsp),%rsi
  405d87:	4e 8d 44 35 01       	lea    0x1(%rbp,%r14,1),%r8
  405d8c:	bf 01 00 00 00       	mov    $0x1,%edi
  405d91:	48 c1 e5 04          	shl    $0x4,%rbp
  405d95:	4d 8d 4c 34 01       	lea    0x1(%r12,%rsi,1),%r9
  405d9a:	85 c0                	test   %eax,%eax
  405d9c:	7e 37                	jle    405dd5 <transpose2_local_+0xc5>
  405d9e:	4c 89 ce             	mov    %r9,%rsi
  405da1:	4c 89 c3             	mov    %r8,%rbx
  405da4:	45 31 d2             	xor    %r10d,%r10d
  405da7:	48 c1 e6 04          	shl    $0x4,%rsi
  405dab:	48 c1 e3 04          	shl    $0x4,%rbx
  405daf:	48 8d 34 32          	lea    (%rdx,%rsi,1),%rsi
  405db3:	48 8d 1c 19          	lea    (%rcx,%rbx,1),%rbx
  405db7:	4c 8b 1e             	mov    (%rsi),%r11
  405dba:	41 83 c2 01          	add    $0x1,%r10d
  405dbe:	4c 89 1b             	mov    %r11,(%rbx)
  405dc1:	4c 8b 5e 08          	mov    0x8(%rsi),%r11
  405dc5:	48 83 c6 10          	add    $0x10,%rsi
  405dc9:	4c 89 5b 08          	mov    %r11,0x8(%rbx)
  405dcd:	48 01 eb             	add    %rbp,%rbx
  405dd0:	41 39 c2             	cmp    %eax,%r10d
  405dd3:	75 e2                	jne    405db7 <transpose2_local_+0xa7>
  405dd5:	4d 01 e1             	add    %r12,%r9
  405dd8:	49 83 c0 01          	add    $0x1,%r8
  405ddc:	44 39 ff             	cmp    %r15d,%edi
  405ddf:	74 05                	je     405de6 <transpose2_local_+0xd6>
  405de1:	83 c7 01             	add    $0x1,%edi
  405de4:	eb b4                	jmp    405d9a <transpose2_local_+0x8a>
  405de6:	83 7c 24 4c 00       	cmpl   $0x0,0x4c(%rsp)
  405deb:	0f 85 8e 01 00 00    	jne    405f7f <transpose2_local_+0x26f>
  405df1:	48 81 c4 68 44 00 00 	add    $0x4468,%rsp
  405df8:	5b                   	pop    %rbx
  405df9:	5d                   	pop    %rbp
  405dfa:	41 5c                	pop    %r12
  405dfc:	41 5d                	pop    %r13
  405dfe:	41 5e                	pop    %r14
  405e00:	41 5f                	pop    %r15
  405e02:	c3                   	retq   
  405e03:	4c 8d 54 24 60       	lea    0x60(%rsp),%r10
  405e08:	83 e8 01             	sub    $0x1,%eax
  405e0b:	4e 8d 74 35 01       	lea    0x1(%rbp,%r14,1),%r14
  405e10:	c1 e8 05             	shr    $0x5,%eax
  405e13:	48 89 ee             	mov    %rbp,%rsi
  405e16:	41 83 ef 01          	sub    $0x1,%r15d
  405e1a:	89 44 24 24          	mov    %eax,0x24(%rsp)
  405e1e:	49 8d 82 00 02 00 00 	lea    0x200(%r10),%rax
  405e25:	48 c1 e6 05          	shl    $0x5,%rsi
  405e29:	4d 8d aa f0 43 00 00 	lea    0x43f0(%r10),%r13
  405e30:	41 c1 ef 05          	shr    $0x5,%r15d
  405e34:	4c 89 74 24 18       	mov    %r14,0x18(%rsp)
  405e39:	45 31 db             	xor    %r11d,%r11d
  405e3c:	48 89 74 24 50       	mov    %rsi,0x50(%rsp)
  405e41:	48 89 44 24 58       	mov    %rax,0x58(%rsp)
  405e46:	48 8b 5c 24 18       	mov    0x18(%rsp),%rbx
  405e4b:	8b 74 24 24          	mov    0x24(%rsp),%esi
  405e4f:	48 c7 44 24 30 01 00 	movq   $0x1,0x30(%rsp)
  405e56:	00 00 
  405e58:	48 89 5c 24 28       	mov    %rbx,0x28(%rsp)
  405e5d:	89 74 24 3c          	mov    %esi,0x3c(%rsp)
  405e61:	48 8b 5c 24 40       	mov    0x40(%rsp),%rbx
  405e66:	48 8b 44 24 30       	mov    0x30(%rsp),%rax
  405e6b:	41 b9 20 00 00 00    	mov    $0x20,%r9d
  405e71:	41 b8 01 00 00 00    	mov    $0x1,%r8d
  405e77:	4c 8d 34 03          	lea    (%rbx,%rax,1),%r14
  405e7b:	0f 1f 44 00 00       	nopl   0x0(%rax,%rax,1)
  405e80:	43 8d 1c 18          	lea    (%r8,%r11,1),%ebx
  405e84:	49 63 f8             	movslq %r8d,%rdi
  405e87:	48 89 f8             	mov    %rdi,%rax
  405e8a:	48 c1 e7 04          	shl    $0x4,%rdi
  405e8e:	48 63 db             	movslq %ebx,%rbx
  405e91:	48 c1 e0 04          	shl    $0x4,%rax
  405e95:	49 8d 7c 3d 00       	lea    0x0(%r13,%rdi,1),%rdi
  405e9a:	49 0f af dc          	imul   %r12,%rbx
  405e9e:	4a 8d 44 10 f0       	lea    -0x10(%rax,%r10,1),%rax
  405ea3:	49 8d 1c 1e          	lea    (%r14,%rbx,1),%rbx
  405ea7:	48 c1 e3 04          	shl    $0x4,%rbx
  405eab:	48 8d 1c 1a          	lea    (%rdx,%rbx,1),%rbx
  405eaf:	90                   	nop
  405eb0:	48 8b 33             	mov    (%rbx),%rsi
  405eb3:	48 89 30             	mov    %rsi,(%rax)
  405eb6:	48 8b 73 08          	mov    0x8(%rbx),%rsi
  405eba:	48 83 c3 10          	add    $0x10,%rbx
  405ebe:	48 89 70 08          	mov    %rsi,0x8(%rax)
  405ec2:	48 05 20 02 00 00    	add    $0x220,%rax
  405ec8:	48 39 f8             	cmp    %rdi,%rax
  405ecb:	75 e3                	jne    405eb0 <transpose2_local_+0x1a0>
  405ecd:	41 83 e9 01          	sub    $0x1,%r9d
  405ed1:	74 06                	je     405ed9 <transpose2_local_+0x1c9>
  405ed3:	41 83 c0 01          	add    $0x1,%r8d
  405ed7:	eb a7                	jmp    405e80 <transpose2_local_+0x170>
  405ed9:	48 8b 7c 24 58       	mov    0x58(%rsp),%rdi
  405ede:	4c 8b 4c 24 28       	mov    0x28(%rsp),%r9
  405ee3:	45 31 c0             	xor    %r8d,%r8d
  405ee6:	66 2e 0f 1f 84 00 00 	nopw   %cs:0x0(%rax,%rax,1)
  405eed:	00 00 00 
  405ef0:	4c 89 c0             	mov    %r8,%rax
  405ef3:	4c 89 cb             	mov    %r9,%rbx
  405ef6:	48 c1 e0 04          	shl    $0x4,%rax
  405efa:	48 c1 e3 04          	shl    $0x4,%rbx
  405efe:	49 8d 04 02          	lea    (%r10,%rax,1),%rax
  405f02:	48 8d 1c 19          	lea    (%rcx,%rbx,1),%rbx
  405f06:	66 2e 0f 1f 84 00 00 	nopw   %cs:0x0(%rax,%rax,1)
  405f0d:	00 00 00 
  405f10:	48 8b 30             	mov    (%rax),%rsi
  405f13:	48 89 33             	mov    %rsi,(%rbx)
  405f16:	48 8b 70 08          	mov    0x8(%rax),%rsi
  405f1a:	48 83 c0 10          	add    $0x10,%rax
  405f1e:	48 89 73 08          	mov    %rsi,0x8(%rbx)
  405f22:	48 83 c3 10          	add    $0x10,%rbx
  405f26:	48 39 f8             	cmp    %rdi,%rax
  405f29:	75 e5                	jne    405f10 <transpose2_local_+0x200>
  405f2b:	49 83 c0 22          	add    $0x22,%r8
  405f2f:	49 01 e9             	add    %rbp,%r9
  405f32:	48 8d b8 20 02 00 00 	lea    0x220(%rax),%rdi
  405f39:	49 81 f8 40 04 00 00 	cmp    $0x440,%r8
  405f40:	75 ae                	jne    405ef0 <transpose2_local_+0x1e0>
  405f42:	83 6c 24 3c 01       	subl   $0x1,0x3c(%rsp)
  405f47:	48 8b 74 24 50       	mov    0x50(%rsp),%rsi
  405f4c:	48 83 44 24 30 20    	addq   $0x20,0x30(%rsp)
  405f52:	48 01 74 24 28       	add    %rsi,0x28(%rsp)
  405f57:	83 7c 24 3c ff       	cmpl   $0xffffffffffffffff,0x3c(%rsp)
  405f5c:	0f 85 ff fe ff ff    	jne    405e61 <transpose2_local_+0x151>
  405f62:	41 83 ef 01          	sub    $0x1,%r15d
  405f66:	48 83 44 24 18 20    	addq   $0x20,0x18(%rsp)
  405f6c:	41 83 ff ff          	cmp    $0xffffffffffffffff,%r15d
  405f70:	0f 84 70 fe ff ff    	je     405de6 <transpose2_local_+0xd6>
  405f76:	41 83 c3 20          	add    $0x20,%r11d
  405f7a:	e9 c7 fe ff ff       	jmpq   405e46 <transpose2_local_+0x136>
  405f7f:	48 81 c4 68 44 00 00 	add    $0x4468,%rsp
  405f86:	bf dc c8 40 00       	mov    $0x40c8dc,%edi
  405f8b:	31 c0                	xor    %eax,%eax
  405f8d:	5b                   	pop    %rbx
  405f8e:	5d                   	pop    %rbp
  405f8f:	41 5c                	pop    %r12
  405f91:	41 5d                	pop    %r13
  405f93:	41 5e                	pop    %r14
  405f95:	41 5f                	pop    %r15
  405f97:	e9 f4 48 00 00       	jmpq   40a890 <timer_stop_>
  405f9c:	44 39 f8             	cmp    %r15d,%eax
  405f9f:	0f 8d d6 fd ff ff    	jge    405d7b <transpose2_local_+0x6b>
  405fa5:	85 c0                	test   %eax,%eax
  405fa7:	0f 8e 39 fe ff ff    	jle    405de6 <transpose2_local_+0xd6>
  405fad:	48 8b 5c 24 40       	mov    0x40(%rsp),%rbx
  405fb2:	4e 8d 44 35 01       	lea    0x1(%rbp,%r14,1),%r8
  405fb7:	bf 01 00 00 00       	mov    $0x1,%edi
  405fbc:	4d 8d 4c 1c 01       	lea    0x1(%r12,%rbx,1),%r9
  405fc1:	49 c1 e4 04          	shl    $0x4,%r12
  405fc5:	45 85 ff             	test   %r15d,%r15d
  405fc8:	7e 37                	jle    406001 <transpose2_local_+0x2f1>
  405fca:	4c 89 ce             	mov    %r9,%rsi
  405fcd:	4c 89 c3             	mov    %r8,%rbx
  405fd0:	45 31 d2             	xor    %r10d,%r10d
  405fd3:	48 c1 e6 04          	shl    $0x4,%rsi
  405fd7:	48 c1 e3 04          	shl    $0x4,%rbx
  405fdb:	48 8d 34 32          	lea    (%rdx,%rsi,1),%rsi
  405fdf:	48 8d 1c 19          	lea    (%rcx,%rbx,1),%rbx
  405fe3:	4c 8b 1e             	mov    (%rsi),%r11
  405fe6:	41 83 c2 01          	add    $0x1,%r10d
  405fea:	4c 89 1b             	mov    %r11,(%rbx)
  405fed:	4c 8b 5e 08          	mov    0x8(%rsi),%r11
  405ff1:	4c 01 e6             	add    %r12,%rsi
  405ff4:	4c 89 5b 08          	mov    %r11,0x8(%rbx)
  405ff8:	48 83 c3 10          	add    $0x10,%rbx
  405ffc:	45 39 fa             	cmp    %r15d,%r10d
  405fff:	75 e2                	jne    405fe3 <transpose2_local_+0x2d3>
  406001:	49 83 c1 01          	add    $0x1,%r9
  406005:	49 01 e8             	add    %rbp,%r8
  406008:	39 c7                	cmp    %eax,%edi
  40600a:	0f 84 d6 fd ff ff    	je     405de6 <transpose2_local_+0xd6>
  406010:	83 c7 01             	add    $0x1,%edi
  406013:	eb b0                	jmp    405fc5 <transpose2_local_+0x2b5>
  406015:	31 c0                	xor    %eax,%eax
  406017:	bf dc c8 40 00       	mov    $0x40c8dc,%edi
  40601c:	48 89 54 24 10       	mov    %rdx,0x10(%rsp)
  406021:	48 89 4c 24 08       	mov    %rcx,0x8(%rsp)
  406026:	e8 95 48 00 00       	callq  40a8c0 <timer_start_>
  40602b:	8b 03                	mov    (%rbx),%eax
  40602d:	8b 1d 85 e0 21 00    	mov    0x21e085(%rip),%ebx        # 6240b8 <dbg_+0x8>
  406033:	45 8b 7d 00          	mov    0x0(%r13),%r15d
  406037:	48 8b 4c 24 08       	mov    0x8(%rsp),%rcx
  40603c:	48 8b 54 24 10       	mov    0x10(%rsp),%rdx
  406041:	89 5c 24 4c          	mov    %ebx,0x4c(%rsp)
  406045:	e9 1e fd ff ff       	jmpq   405d68 <transpose2_local_+0x58>
  40604a:	66 0f 1f 44 00 00    	nopw   0x0(%rax,%rax,1)

0000000000406050 <transpose_xy_z_>:
  406050:	48 89 5c 24 e8       	mov    %rbx,-0x18(%rsp)
  406055:	48 89 6c 24 f0       	mov    %rbp,-0x10(%rsp)
  40605a:	48 89 d3             	mov    %rdx,%rbx
  40605d:	4c 89 64 24 f8       	mov    %r12,-0x8(%rsp)
  406062:	48 83 ec 28          	sub    $0x28,%rsp
  406066:	48 63 07             	movslq (%rdi),%rax
  406069:	48 89 cd             	mov    %rcx,%rbp
  40606c:	49 89 fc             	mov    %rdi,%r12
  40606f:	48 8d 7c 24 0c       	lea    0xc(%rsp),%rdi
  406074:	48 8d 4c 40 fd       	lea    -0x3(%rax,%rax,2),%rcx
  406079:	48 8d 54 40 fe       	lea    -0x2(%rax,%rax,2),%rdx
  40607e:	48 8d 44 40 ff       	lea    -0x1(%rax,%rax,2),%rax
  406083:	8b 14 95 c0 40 62 00 	mov    0x6240c0(,%rdx,4),%edx
  40608a:	48 8d 34 85 c0 40 62 	lea    0x6240c0(,%rax,4),%rsi
  406091:	00 
  406092:	31 c0                	xor    %eax,%eax
  406094:	0f af 14 8d c0 40 62 	imul   0x6240c0(,%rcx,4),%edx
  40609b:	00 
  40609c:	48 89 e9             	mov    %rbp,%rcx
  40609f:	89 54 24 0c          	mov    %edx,0xc(%rsp)
  4060a3:	48 89 da             	mov    %rbx,%rdx
  4060a6:	e8 65 fc ff ff       	callq  405d10 <transpose2_local_>
  4060ab:	48 89 de             	mov    %rbx,%rsi
  4060ae:	48 89 ef             	mov    %rbp,%rdi
  4060b1:	31 c0                	xor    %eax,%eax
  4060b3:	e8 b8 fb ff ff       	callq  405c70 <transpose2_global_>
  4060b8:	49 63 04 24          	movslq (%r12),%rax
  4060bc:	48 8d 7c 24 08       	lea    0x8(%rsp),%rdi
  4060c1:	48 8d 4c 40 fd       	lea    -0x3(%rax,%rax,2),%rcx
  4060c6:	48 8d 54 40 fe       	lea    -0x2(%rax,%rax,2),%rdx
  4060cb:	48 8d 44 40 ff       	lea    -0x1(%rax,%rax,2),%rax
  4060d0:	8b 14 95 c0 40 62 00 	mov    0x6240c0(,%rdx,4),%edx
  4060d7:	48 8d 34 85 c0 40 62 	lea    0x6240c0(,%rax,4),%rsi
  4060de:	00 
  4060df:	31 c0                	xor    %eax,%eax
  4060e1:	0f af 14 8d c0 40 62 	imul   0x6240c0(,%rcx,4),%edx
  4060e8:	00 
  4060e9:	48 89 e9             	mov    %rbp,%rcx
  4060ec:	89 54 24 08          	mov    %edx,0x8(%rsp)
  4060f0:	48 89 da             	mov    %rbx,%rdx
  4060f3:	e8 c8 f9 ff ff       	callq  405ac0 <transpose2_finish_>
  4060f8:	48 8b 5c 24 10       	mov    0x10(%rsp),%rbx
  4060fd:	48 8b 6c 24 18       	mov    0x18(%rsp),%rbp
  406102:	4c 8b 64 24 20       	mov    0x20(%rsp),%r12
  406107:	48 83 c4 28          	add    $0x28,%rsp
  40610b:	c3                   	retq   
  40610c:	0f 1f 40 00          	nopl   0x0(%rax)

0000000000406110 <transpose_x_yz_>:
  406110:	48 89 5c 24 e8       	mov    %rbx,-0x18(%rsp)
  406115:	48 89 6c 24 f0       	mov    %rbp,-0x10(%rsp)
  40611a:	48 89 d3             	mov    %rdx,%rbx
  40611d:	4c 89 64 24 f8       	mov    %r12,-0x8(%rsp)
  406122:	48 83 ec 28          	sub    $0x28,%rsp
  406126:	48 63 07             	movslq (%rdi),%rax
  406129:	48 89 cd             	mov    %rcx,%rbp
  40612c:	49 89 fc             	mov    %rdi,%r12
  40612f:	48 8d 74 24 0c       	lea    0xc(%rsp),%rsi
  406134:	48 8d 4c 40 fe       	lea    -0x2(%rax,%rax,2),%rcx
  406139:	48 8d 54 40 ff       	lea    -0x1(%rax,%rax,2),%rdx
  40613e:	48 8d 44 40 fd       	lea    -0x3(%rax,%rax,2),%rax
  406143:	8b 14 95 c0 40 62 00 	mov    0x6240c0(,%rdx,4),%edx
  40614a:	48 8d 3c 85 c0 40 62 	lea    0x6240c0(,%rax,4),%rdi
  406151:	00 
  406152:	31 c0                	xor    %eax,%eax
  406154:	0f af 14 8d c0 40 62 	imul   0x6240c0(,%rcx,4),%edx
  40615b:	00 
  40615c:	48 89 e9             	mov    %rbp,%rcx
  40615f:	89 54 24 0c          	mov    %edx,0xc(%rsp)
  406163:	48 89 da             	mov    %rbx,%rdx
  406166:	e8 a5 fb ff ff       	callq  405d10 <transpose2_local_>
  40616b:	48 89 de             	mov    %rbx,%rsi
  40616e:	48 89 ef             	mov    %rbp,%rdi
  406171:	31 c0                	xor    %eax,%eax
  406173:	e8 f8 fa ff ff       	callq  405c70 <transpose2_global_>
  406178:	49 63 04 24          	movslq (%r12),%rax
  40617c:	48 8d 74 24 08       	lea    0x8(%rsp),%rsi
  406181:	48 8d 4c 40 fe       	lea    -0x2(%rax,%rax,2),%rcx
  406186:	48 8d 54 40 ff       	lea    -0x1(%rax,%rax,2),%rdx
  40618b:	48 8d 44 40 fd       	lea    -0x3(%rax,%rax,2),%rax
  406190:	8b 14 95 c0 40 62 00 	mov    0x6240c0(,%rdx,4),%edx
  406197:	48 8d 3c 85 c0 40 62 	lea    0x6240c0(,%rax,4),%rdi
  40619e:	00 
  40619f:	31 c0                	xor    %eax,%eax
  4061a1:	0f af 14 8d c0 40 62 	imul   0x6240c0(,%rcx,4),%edx
  4061a8:	00 
  4061a9:	48 89 e9             	mov    %rbp,%rcx
  4061ac:	89 54 24 08          	mov    %edx,0x8(%rsp)
  4061b0:	48 89 da             	mov    %rbx,%rdx
  4061b3:	e8 08 f9 ff ff       	callq  405ac0 <transpose2_finish_>
  4061b8:	48 8b 5c 24 10       	mov    0x10(%rsp),%rbx
  4061bd:	48 8b 6c 24 18       	mov    0x18(%rsp),%rbp
  4061c2:	4c 8b 64 24 20       	mov    0x20(%rsp),%r12
  4061c7:	48 83 c4 28          	add    $0x28,%rsp
  4061cb:	c3                   	retq   
  4061cc:	0f 1f 40 00          	nopl   0x0(%rax)

00000000004061d0 <fftz2_>:
  4061d0:	41 57                	push   %r15
  4061d2:	41 56                	push   %r14
  4061d4:	41 55                	push   %r13
  4061d6:	41 54                	push   %r12
  4061d8:	45 31 e4             	xor    %r12d,%r12d
  4061db:	55                   	push   %rbp
  4061dc:	53                   	push   %rbx
  4061dd:	48 81 ec 88 00 00 00 	sub    $0x88,%rsp
  4061e4:	49 63 01             	movslq (%r9),%rax
  4061e7:	48 89 7c 24 18       	mov    %rdi,0x18(%rsp)
  4061ec:	bf 02 00 00 00       	mov    $0x2,%edi
  4061f1:	4c 89 44 24 68       	mov    %r8,0x68(%rsp)
  4061f6:	48 89 54 24 08       	mov    %rdx,0x8(%rsp)
  4061fb:	48 8b 9c 24 c8 00 00 	mov    0xc8(%rsp),%rbx
  406202:	00 
  406203:	48 8b ac 24 d0 00 00 	mov    0xd0(%rsp),%rbp
  40620a:	00 
  40620b:	48 85 c0             	test   %rax,%rax
  40620e:	4c 0f 49 e0          	cmovns %rax,%r12
  406212:	8b 01                	mov    (%rcx),%eax
  406214:	8b 0e                	mov    (%rsi),%ecx
  406216:	4d 89 e7             	mov    %r12,%r15
  406219:	49 f7 d7             	not    %r15
  40621c:	8d 71 ff             	lea    -0x1(%rcx),%esi
  40621f:	41 89 c6             	mov    %eax,%r14d
  406222:	89 4c 24 10          	mov    %ecx,0x10(%rsp)
  406226:	41 c1 ee 1f          	shr    $0x1f,%r14d
  40622a:	41 01 c6             	add    %eax,%r14d
  40622d:	e8 8e cc ff ff       	callq  402ec0 <_gfortran_pow_i4_i4@plt>
  406232:	48 8b 54 24 08       	mov    0x8(%rsp),%rdx
  406237:	8b 4c 24 10          	mov    0x10(%rsp),%ecx
  40623b:	bf 02 00 00 00       	mov    $0x2,%edi
  406240:	41 89 c5             	mov    %eax,%r13d
  406243:	41 d1 fe             	sar    %r14d
  406246:	8b 32                	mov    (%rdx),%esi
  406248:	29 ce                	sub    %ecx,%esi
  40624a:	e8 71 cc ff ff       	callq  402ec0 <_gfortran_pow_i4_i4@plt>
  40624f:	89 44 24 54          	mov    %eax,0x54(%rsp)
  406253:	8b 4c 24 54          	mov    0x54(%rsp),%ecx
  406257:	83 c0 01             	add    $0x1,%eax
  40625a:	43 8d 54 2d 00       	lea    0x0(%r13,%r13,1),%edx
  40625f:	85 c9                	test   %ecx,%ecx
  406261:	0f 8e fe 01 00 00    	jle    406465 <fftz2_+0x295>
  406267:	48 8b 4c 24 18       	mov    0x18(%rsp),%rcx
  40626c:	48 63 d2             	movslq %edx,%rdx
  40626f:	48 98                	cltq   
  406271:	49 0f af d4          	imul   %r12,%rdx
  406275:	48 c1 e0 04          	shl    $0x4,%rax
  406279:	48 c7 44 24 18 00 00 	movq   $0x0,0x18(%rsp)
  406280:	00 00 
  406282:	f2 0f 10 3d 16 6c 00 	movsd  0x6c16(%rip),%xmm7        # 40cea0 <options.0.1652+0x40>
  406289:	00 
  40628a:	c7 44 24 2c 00 00 00 	movl   $0x0,0x2c(%rsp)
  406291:	00 
  406292:	8b 09                	mov    (%rcx),%ecx
  406294:	48 89 54 24 58       	mov    %rdx,0x58(%rsp)
  406299:	48 8b 94 24 c0 00 00 	mov    0xc0(%rsp),%rdx
  4062a0:	00 
  4062a1:	89 4c 24 64          	mov    %ecx,0x64(%rsp)
  4062a5:	49 63 cd             	movslq %r13d,%rcx
  4062a8:	49 0f af cc          	imul   %r12,%rcx
  4062ac:	48 8d 44 10 f0       	lea    -0x10(%rax,%rdx,1),%rax
  4062b1:	48 89 44 24 20       	mov    %rax,0x20(%rsp)
  4062b6:	48 83 c0 08          	add    $0x8,%rax
  4062ba:	48 89 4c 24 48       	mov    %rcx,0x48(%rsp)
  4062bf:	4b 8d 4c 3c 01       	lea    0x1(%r12,%r15,1),%rcx
  4062c4:	48 89 44 24 30       	mov    %rax,0x30(%rsp)
  4062c9:	48 89 4c 24 38       	mov    %rcx,0x38(%rsp)
  4062ce:	48 8b 44 24 38       	mov    0x38(%rsp),%rax
  4062d3:	41 8d 4e 01          	lea    0x1(%r14),%ecx
  4062d7:	48 63 c9             	movslq %ecx,%rcx
  4062da:	48 89 44 24 70       	mov    %rax,0x70(%rsp)
  4062df:	41 8d 45 01          	lea    0x1(%r13),%eax
  4062e3:	49 0f af cc          	imul   %r12,%rcx
  4062e7:	48 98                	cltq   
  4062e9:	49 0f af c4          	imul   %r12,%rax
  4062ed:	49 8d 4c 0f 01       	lea    0x1(%r15,%rcx,1),%rcx
  4062f2:	49 8d 44 07 01       	lea    0x1(%r15,%rax,1),%rax
  4062f7:	48 89 4c 24 40       	mov    %rcx,0x40(%rsp)
  4062fc:	48 89 44 24 78       	mov    %rax,0x78(%rsp)
  406301:	0f 1f 80 00 00 00 00 	nopl   0x0(%rax)
  406308:	8b 54 24 64          	mov    0x64(%rsp),%edx
  40630c:	85 d2                	test   %edx,%edx
  40630e:	0f 8e 63 01 00 00    	jle    406477 <fftz2_+0x2a7>
  406314:	48 8b 54 24 20       	mov    0x20(%rsp),%rdx
  406319:	48 8b 4c 24 30       	mov    0x30(%rsp),%rcx
  40631e:	f2 0f 10 2a          	movsd  (%rdx),%xmm5
  406322:	f2 0f 10 21          	movsd  (%rcx),%xmm4
  406326:	45 85 ed             	test   %r13d,%r13d
  406329:	0f 8e fe 00 00 00    	jle    40642d <fftz2_+0x25d>
  40632f:	48 8b 4c 24 68       	mov    0x68(%rsp),%rcx
  406334:	4c 8b 7c 24 70       	mov    0x70(%rsp),%r15
  406339:	45 31 c9             	xor    %r9d,%r9d
  40633c:	4c 8b 74 24 78       	mov    0x78(%rsp),%r14
  406341:	4c 03 7c 24 18       	add    0x18(%rsp),%r15
  406346:	4c 03 74 24 18       	add    0x18(%rsp),%r14
  40634b:	4c 8b 5c 24 40       	mov    0x40(%rsp),%r11
  406350:	44 8b 01             	mov    (%rcx),%r8d
  406353:	4c 8b 54 24 38       	mov    0x38(%rsp),%r10
  406358:	0f 1f 84 00 00 00 00 	nopl   0x0(%rax,%rax,1)
  40635f:	00 
  406360:	45 85 c0             	test   %r8d,%r8d
  406363:	0f 8e ab 00 00 00    	jle    406414 <fftz2_+0x244>
  406369:	4c 89 d6             	mov    %r10,%rsi
  40636c:	4c 89 d9             	mov    %r11,%rcx
  40636f:	4c 89 fa             	mov    %r15,%rdx
  406372:	4c 89 f0             	mov    %r14,%rax
  406375:	48 c1 e6 04          	shl    $0x4,%rsi
  406379:	48 c1 e1 04          	shl    $0x4,%rcx
  40637d:	48 c1 e2 04          	shl    $0x4,%rdx
  406381:	48 c1 e0 04          	shl    $0x4,%rax
  406385:	48 8d 34 33          	lea    (%rbx,%rsi,1),%rsi
  406389:	48 8d 0c 0b          	lea    (%rbx,%rcx,1),%rcx
  40638d:	48 8d 54 15 00       	lea    0x0(%rbp,%rdx,1),%rdx
  406392:	48 8d 44 05 00       	lea    0x0(%rbp,%rax,1),%rax
  406397:	31 ff                	xor    %edi,%edi
  406399:	0f 1f 80 00 00 00 00 	nopl   0x0(%rax)
  4063a0:	f2 0f 10 19          	movsd  (%rcx),%xmm3
  4063a4:	83 c7 01             	add    $0x1,%edi
  4063a7:	f2 0f 10 06          	movsd  (%rsi),%xmm0
  4063ab:	66 0f 28 f3          	movapd %xmm3,%xmm6
  4063af:	f2 0f 10 49 08       	movsd  0x8(%rcx),%xmm1
  4063b4:	f2 0f 10 56 08       	movsd  0x8(%rsi),%xmm2
  4063b9:	48 83 c1 10          	add    $0x10,%rcx
  4063bd:	f2 0f 58 f0          	addsd  %xmm0,%xmm6
  4063c1:	48 83 c6 10          	add    $0x10,%rsi
  4063c5:	f2 0f 5c c3          	subsd  %xmm3,%xmm0
  4063c9:	66 0f 28 dc          	movapd %xmm4,%xmm3
  4063cd:	f2 0f 11 32          	movsd  %xmm6,(%rdx)
  4063d1:	66 0f 28 f1          	movapd %xmm1,%xmm6
  4063d5:	f2 0f 58 f2          	addsd  %xmm2,%xmm6
  4063d9:	f2 0f 5c d1          	subsd  %xmm1,%xmm2
  4063dd:	66 0f 28 cd          	movapd %xmm5,%xmm1
  4063e1:	f2 0f 59 c8          	mulsd  %xmm0,%xmm1
  4063e5:	f2 0f 59 c4          	mulsd  %xmm4,%xmm0
  4063e9:	f2 0f 11 72 08       	movsd  %xmm6,0x8(%rdx)
  4063ee:	48 83 c2 10          	add    $0x10,%rdx
  4063f2:	f2 0f 59 da          	mulsd  %xmm2,%xmm3
  4063f6:	f2 0f 59 d5          	mulsd  %xmm5,%xmm2
  4063fa:	f2 0f 5c cb          	subsd  %xmm3,%xmm1
  4063fe:	f2 0f 58 c2          	addsd  %xmm2,%xmm0
  406402:	f2 0f 11 08          	movsd  %xmm1,(%rax)
  406406:	f2 0f 11 40 08       	movsd  %xmm0,0x8(%rax)
  40640b:	48 83 c0 10          	add    $0x10,%rax
  40640f:	44 39 c7             	cmp    %r8d,%edi
  406412:	75 8c                	jne    4063a0 <fftz2_+0x1d0>
  406414:	41 83 c1 01          	add    $0x1,%r9d
  406418:	4d 01 e2             	add    %r12,%r10
  40641b:	4d 01 e3             	add    %r12,%r11
  40641e:	4d 01 e7             	add    %r12,%r15
  406421:	4d 01 e6             	add    %r12,%r14
  406424:	45 39 e9             	cmp    %r13d,%r9d
  406427:	0f 85 33 ff ff ff    	jne    406360 <fftz2_+0x190>
  40642d:	83 44 24 2c 01       	addl   $0x1,0x2c(%rsp)
  406432:	48 8b 44 24 48       	mov    0x48(%rsp),%rax
  406437:	48 8b 54 24 58       	mov    0x58(%rsp),%rdx
  40643c:	48 01 44 24 38       	add    %rax,0x38(%rsp)
  406441:	48 01 44 24 40       	add    %rax,0x40(%rsp)
  406446:	8b 4c 24 54          	mov    0x54(%rsp),%ecx
  40644a:	48 01 54 24 18       	add    %rdx,0x18(%rsp)
  40644f:	48 83 44 24 20 10    	addq   $0x10,0x20(%rsp)
  406455:	48 83 44 24 30 10    	addq   $0x10,0x30(%rsp)
  40645b:	39 4c 24 2c          	cmp    %ecx,0x2c(%rsp)
  40645f:	0f 85 a3 fe ff ff    	jne    406308 <fftz2_+0x138>
  406465:	48 81 c4 88 00 00 00 	add    $0x88,%rsp
  40646c:	5b                   	pop    %rbx
  40646d:	5d                   	pop    %rbp
  40646e:	41 5c                	pop    %r12
  406470:	41 5d                	pop    %r13
  406472:	41 5e                	pop    %r14
  406474:	41 5f                	pop    %r15
  406476:	c3                   	retq   
  406477:	48 8b 54 24 30       	mov    0x30(%rsp),%rdx
  40647c:	48 8b 44 24 20       	mov    0x20(%rsp),%rax
  406481:	f2 0f 10 22          	movsd  (%rdx),%xmm4
  406485:	f2 0f 10 28          	movsd  (%rax),%xmm5
  406489:	66 0f 57 e7          	xorpd  %xmm7,%xmm4
  40648d:	e9 94 fe ff ff       	jmpq   406326 <fftz2_+0x156>
  406492:	66 66 66 66 66 2e 0f 	data32 data32 data32 data32 nopw %cs:0x0(%rax,%rax,1)
  406499:	1f 84 00 00 00 00 00 

00000000004064a0 <cfftz_>:
  4064a0:	41 57                	push   %r15
  4064a2:	49 89 ff             	mov    %rdi,%r15
  4064a5:	41 56                	push   %r14
  4064a7:	49 89 d6             	mov    %rdx,%r14
  4064aa:	41 55                	push   %r13
  4064ac:	41 54                	push   %r12
  4064ae:	49 89 f4             	mov    %rsi,%r12
  4064b1:	55                   	push   %rbp
  4064b2:	48 89 cd             	mov    %rcx,%rbp
  4064b5:	53                   	push   %rbx
  4064b6:	4c 89 c3             	mov    %r8,%rbx
  4064b9:	48 81 ec 28 02 00 00 	sub    $0x228,%rsp
  4064c0:	48 63 05 cd db 21 00 	movslq 0x21dbcd(%rip),%rax        # 624094 <blockinfo_+0x4>
  4064c7:	8b 17                	mov    (%rdi),%edx
  4064c9:	48 c7 44 24 20 00 00 	movq   $0x0,0x20(%rsp)
  4064d0:	00 00 
  4064d2:	f2 0f 10 05 86 dd 2f 	movsd  0x2fdd86(%rip),%xmm0        # 704260 <ucomm_>
  4064d9:	00 
  4064da:	48 85 c0             	test   %rax,%rax
  4064dd:	48 0f 48 44 24 20    	cmovs  0x20(%rsp),%rax
  4064e3:	83 fa ff             	cmp    $0xffffffffffffffff,%edx
  4064e6:	48 89 c1             	mov    %rax,%rcx
  4064e9:	48 89 44 24 20       	mov    %rax,0x20(%rsp)
  4064ee:	f2 0f 2c c0          	cvttsd2si %xmm0,%eax
  4064f2:	48 f7 d1             	not    %rcx
  4064f5:	89 84 24 18 02 00 00 	mov    %eax,0x218(%rsp)
  4064fc:	0f 85 68 01 00 00    	jne    40666a <cfftz_+0x1ca>
  406502:	45 8b 2c 24          	mov    (%r12),%r13d
  406506:	45 85 ed             	test   %r13d,%r13d
  406509:	0f 8e 64 01 00 00    	jle    406673 <cfftz_+0x1d3>
  40650f:	44 39 e8             	cmp    %r13d,%eax
  406512:	0f 8c 5b 01 00 00    	jl     406673 <cfftz_+0x1d3>
  406518:	48 8b 44 24 20       	mov    0x20(%rsp),%rax
  40651d:	41 83 ed 01          	sub    $0x1,%r13d
  406521:	c7 84 24 1c 02 00 00 	movl   $0x1,0x21c(%rsp)
  406528:	01 00 00 00 
  40652c:	41 d1 ed             	shr    %r13d
  40652f:	48 8d 4c 08 01       	lea    0x1(%rax,%rcx,1),%rcx
  406534:	48 89 4c 24 28       	mov    %rcx,0x28(%rsp)
  406539:	eb 65                	jmp    4065a0 <cfftz_+0x100>
  40653b:	0f 1f 44 00 00       	nopl   0x0(%rax,%rax,1)
  406540:	48 8d b4 24 14 02 00 	lea    0x214(%rsp),%rsi
  406547:	00 
  406548:	41 83 c2 01          	add    $0x1,%r10d
  40654c:	31 c0                	xor    %eax,%eax
  40654e:	41 b9 94 40 62 00    	mov    $0x624094,%r9d
  406554:	41 b8 90 40 62 00    	mov    $0x624090,%r8d
  40655a:	4c 89 f1             	mov    %r14,%rcx
  40655d:	4c 89 e2             	mov    %r12,%rdx
  406560:	4c 89 ff             	mov    %r15,%rdi
  406563:	44 89 94 24 14 02 00 	mov    %r10d,0x214(%rsp)
  40656a:	00 
  40656b:	48 89 6c 24 10       	mov    %rbp,0x10(%rsp)
  406570:	48 89 5c 24 08       	mov    %rbx,0x8(%rsp)
  406575:	48 c7 04 24 60 42 70 	movq   $0x704260,(%rsp)
  40657c:	00 
  40657d:	e8 4e fc ff ff       	callq  4061d0 <fftz2_>
  406582:	45 85 ed             	test   %r13d,%r13d
  406585:	8b 84 24 1c 02 00 00 	mov    0x21c(%rsp),%eax
  40658c:	0f 84 c6 00 00 00    	je     406658 <cfftz_+0x1b8>
  406592:	83 c0 02             	add    $0x2,%eax
  406595:	41 83 ed 01          	sub    $0x1,%r13d
  406599:	89 84 24 1c 02 00 00 	mov    %eax,0x21c(%rsp)
  4065a0:	48 8d b4 24 1c 02 00 	lea    0x21c(%rsp),%rsi
  4065a7:	00 
  4065a8:	31 c0                	xor    %eax,%eax
  4065aa:	41 b9 94 40 62 00    	mov    $0x624094,%r9d
  4065b0:	41 b8 90 40 62 00    	mov    $0x624090,%r8d
  4065b6:	4c 89 f1             	mov    %r14,%rcx
  4065b9:	4c 89 e2             	mov    %r12,%rdx
  4065bc:	4c 89 ff             	mov    %r15,%rdi
  4065bf:	48 89 5c 24 10       	mov    %rbx,0x10(%rsp)
  4065c4:	48 89 6c 24 08       	mov    %rbp,0x8(%rsp)
  4065c9:	48 c7 04 24 60 42 70 	movq   $0x704260,(%rsp)
  4065d0:	00 
  4065d1:	e8 fa fb ff ff       	callq  4061d0 <fftz2_>
  4065d6:	44 8b 94 24 1c 02 00 	mov    0x21c(%rsp),%r10d
  4065dd:	00 
  4065de:	45 39 14 24          	cmp    %r10d,(%r12)
  4065e2:	0f 85 58 ff ff ff    	jne    406540 <cfftz_+0xa0>
  4065e8:	45 8b 1e             	mov    (%r14),%r11d
  4065eb:	45 85 db             	test   %r11d,%r11d
  4065ee:	0f 8e 4c ff ff ff    	jle    406540 <cfftz_+0xa0>
  4065f4:	8b 3d 96 da 21 00    	mov    0x21da96(%rip),%edi        # 624090 <blockinfo_>
  4065fa:	4c 8b 44 24 28       	mov    0x28(%rsp),%r8
  4065ff:	41 b9 01 00 00 00    	mov    $0x1,%r9d
  406605:	0f 1f 00             	nopl   (%rax)
  406608:	85 ff                	test   %edi,%edi
  40660a:	7e 31                	jle    40663d <cfftz_+0x19d>
  40660c:	4c 89 c0             	mov    %r8,%rax
  40660f:	31 c9                	xor    %ecx,%ecx
  406611:	48 c1 e0 04          	shl    $0x4,%rax
  406615:	48 8d 14 03          	lea    (%rbx,%rax,1),%rdx
  406619:	48 8d 44 05 00       	lea    0x0(%rbp,%rax,1),%rax
  40661e:	66 90                	xchg   %ax,%ax
  406620:	48 8b 32             	mov    (%rdx),%rsi
  406623:	83 c1 01             	add    $0x1,%ecx
  406626:	48 89 30             	mov    %rsi,(%rax)
  406629:	48 8b 72 08          	mov    0x8(%rdx),%rsi
  40662d:	48 83 c2 10          	add    $0x10,%rdx
  406631:	48 89 70 08          	mov    %rsi,0x8(%rax)
  406635:	48 83 c0 10          	add    $0x10,%rax
  406639:	39 f9                	cmp    %edi,%ecx
  40663b:	75 e3                	jne    406620 <cfftz_+0x180>
  40663d:	4c 03 44 24 20       	add    0x20(%rsp),%r8
  406642:	45 39 d9             	cmp    %r11d,%r9d
  406645:	0f 84 f5 fe ff ff    	je     406540 <cfftz_+0xa0>
  40664b:	41 83 c1 01          	add    $0x1,%r9d
  40664f:	eb b7                	jmp    406608 <cfftz_+0x168>
  406651:	0f 1f 80 00 00 00 00 	nopl   0x0(%rax)
  406658:	48 81 c4 28 02 00 00 	add    $0x228,%rsp
  40665f:	5b                   	pop    %rbx
  406660:	5d                   	pop    %rbp
  406661:	41 5c                	pop    %r12
  406663:	41 5d                	pop    %r13
  406665:	41 5e                	pop    %r14
  406667:	41 5f                	pop    %r15
  406669:	c3                   	retq   
  40666a:	83 fa 01             	cmp    $0x1,%edx
  40666d:	0f 84 8f fe ff ff    	je     406502 <cfftz_+0x62>
  406673:	48 8d 5c 24 30       	lea    0x30(%rsp),%rbx
  406678:	48 c7 44 24 38 80 ce 	movq   $0x40ce80,0x38(%rsp)
  40667f:	40 00 
  406681:	c7 44 24 40 5b 04 00 	movl   $0x45b,0x40(%rsp)
  406688:	00 
  406689:	48 c7 44 24 78 e0 c8 	movq   $0x40c8e0,0x78(%rsp)
  406690:	40 00 
  406692:	c7 84 24 80 00 00 00 	movl   $0x6b,0x80(%rsp)
  406699:	6b 00 00 00 
  40669d:	48 89 df             	mov    %rbx,%rdi
  4066a0:	c7 44 24 30 00 10 00 	movl   $0x1000,0x30(%rsp)
  4066a7:	00 
  4066a8:	c7 44 24 34 06 00 00 	movl   $0x6,0x34(%rsp)
  4066af:	00 
  4066b0:	e8 0b c7 ff ff       	callq  402dc0 <_gfortran_st_write@plt>
  4066b5:	ba 04 00 00 00       	mov    $0x4,%edx
  4066ba:	4c 89 fe             	mov    %r15,%rsi
  4066bd:	48 89 df             	mov    %rbx,%rdi
  4066c0:	e8 bb c6 ff ff       	callq  402d80 <_gfortran_transfer_integer@plt>
  4066c5:	ba 04 00 00 00       	mov    $0x4,%edx
  4066ca:	4c 89 e6             	mov    %r12,%rsi
  4066cd:	48 89 df             	mov    %rbx,%rdi
  4066d0:	e8 ab c6 ff ff       	callq  402d80 <_gfortran_transfer_integer@plt>
  4066d5:	48 8d b4 24 18 02 00 	lea    0x218(%rsp),%rsi
  4066dc:	00 
  4066dd:	ba 04 00 00 00       	mov    $0x4,%edx
  4066e2:	48 89 df             	mov    %rbx,%rdi
  4066e5:	e8 96 c6 ff ff       	callq  402d80 <_gfortran_transfer_integer@plt>
  4066ea:	48 89 df             	mov    %rbx,%rdi
  4066ed:	e8 1e c8 ff ff       	callq  402f10 <_gfortran_st_write_done@plt>
  4066f2:	83 cf ff             	or     $0xffffffffffffffff,%edi
  4066f5:	e8 36 c7 ff ff       	callq  402e30 <_gfortran_stop_numeric@plt>
  4066fa:	66 0f 1f 44 00 00    	nopw   0x0(%rax,%rax,1)

0000000000406700 <fft_init_>:
  406700:	41 57                	push   %r15
  406702:	31 c0                	xor    %eax,%eax
  406704:	41 56                	push   %r14
  406706:	41 55                	push   %r13
  406708:	41 54                	push   %r12
  40670a:	55                   	push   %rbp
  40670b:	53                   	push   %rbx
  40670c:	48 83 ec 48          	sub    $0x48,%rsp
  406710:	e8 9b cc ff ff       	callq  4033b0 <ilog2_>
  406715:	f2 0f 2a c0          	cvtsi2sd %eax,%xmm0
  406719:	85 c0                	test   %eax,%eax
  40671b:	89 44 24 2c          	mov    %eax,0x2c(%rsp)
  40671f:	48 c7 05 3e db 2f 00 	movq   $0x0,0x2fdb3e(%rip)        # 704268 <ucomm_+0x8>
  406726:	00 00 00 00 
  40672a:	f2 0f 11 05 2e db 2f 	movsd  %xmm0,0x2fdb2e(%rip)        # 704260 <ucomm_>
  406731:	00 
  406732:	0f 8e ec 00 00 00    	jle    406824 <fft_init_+0x124>
  406738:	48 b8 00 00 00 00 00 	mov    $0x3ff0000000000000,%rax
  40673f:	00 f0 3f 
  406742:	4c 8d 74 24 38       	lea    0x38(%rsp),%r14
  406747:	4c 8d 6c 24 30       	lea    0x30(%rsp),%r13
  40674c:	48 89 44 24 08       	mov    %rax,0x8(%rsp)
  406751:	31 d2                	xor    %edx,%edx
  406753:	41 bc 01 00 00 00    	mov    $0x1,%r12d
  406759:	f2 0f 10 4c 24 08    	movsd  0x8(%rsp),%xmm1
  40675f:	c7 44 24 28 02 00 00 	movl   $0x2,0x28(%rsp)
  406766:	00 
  406767:	41 bf 01 00 00 00    	mov    $0x1,%r15d
  40676d:	0f 1f 00             	nopl   (%rax)
  406770:	f2 0f 10 05 48 67 00 	movsd  0x6748(%rip),%xmm0        # 40cec0 <options.0.1652+0x60>
  406777:	00 
  406778:	48 63 4c 24 28       	movslq 0x28(%rsp),%rcx
  40677d:	31 ed                	xor    %ebp,%ebp
  40677f:	f2 0f 5e c1          	divsd  %xmm1,%xmm0
  406783:	48 c1 e1 04          	shl    $0x4,%rcx
  406787:	48 8d 99 50 42 70 00 	lea    0x704250(%rcx),%rbx
  40678e:	f2 0f 11 44 24 20    	movsd  %xmm0,0x20(%rsp)
  406794:	eb 29                	jmp    4067bf <fft_init_+0xbf>
  406796:	66 2e 0f 1f 84 00 00 	nopw   %cs:0x0(%rax,%rax,1)
  40679d:	00 00 00 
  4067a0:	f2 0f 2a c5          	cvtsi2sd %ebp,%xmm0
  4067a4:	4c 89 ee             	mov    %r13,%rsi
  4067a7:	4c 89 f7             	mov    %r14,%rdi
  4067aa:	f2 0f 59 44 24 20    	mulsd  0x20(%rsp),%xmm0
  4067b0:	e8 5b c5 ff ff       	callq  402d10 <sincos@plt>
  4067b5:	48 8b 44 24 30       	mov    0x30(%rsp),%rax
  4067ba:	48 8b 54 24 38       	mov    0x38(%rsp),%rdx
  4067bf:	83 c5 01             	add    $0x1,%ebp
  4067c2:	48 89 03             	mov    %rax,(%rbx)
  4067c5:	48 89 53 08          	mov    %rdx,0x8(%rbx)
  4067c9:	48 83 c3 10          	add    $0x10,%rbx
  4067cd:	44 39 e5             	cmp    %r12d,%ebp
  4067d0:	75 ce                	jne    4067a0 <fft_init_+0xa0>
  4067d2:	44 3b 7c 24 2c       	cmp    0x2c(%rsp),%r15d
  4067d7:	74 4b                	je     406824 <fft_init_+0x124>
  4067d9:	44 01 64 24 28       	add    %r12d,0x28(%rsp)
  4067de:	45 01 e4             	add    %r12d,%r12d
  4067e1:	4c 89 ee             	mov    %r13,%rsi
  4067e4:	f2 41 0f 2a cc       	cvtsi2sd %r12d,%xmm1
  4067e9:	4c 89 f7             	mov    %r14,%rdi
  4067ec:	f2 0f 10 05 cc 66 00 	movsd  0x66cc(%rip),%xmm0        # 40cec0 <options.0.1652+0x60>
  4067f3:	00 
  4067f4:	41 83 c7 01          	add    $0x1,%r15d
  4067f8:	66 0f 57 d2          	xorpd  %xmm2,%xmm2
  4067fc:	f2 0f 5e c1          	divsd  %xmm1,%xmm0
  406800:	f2 0f 11 4c 24 10    	movsd  %xmm1,0x10(%rsp)
  406806:	f2 0f 59 c2          	mulsd  %xmm2,%xmm0
  40680a:	e8 01 c5 ff ff       	callq  402d10 <sincos@plt>
  40680f:	48 8b 44 24 30       	mov    0x30(%rsp),%rax
  406814:	48 8b 54 24 38       	mov    0x38(%rsp),%rdx
  406819:	f2 0f 10 4c 24 10    	movsd  0x10(%rsp),%xmm1
  40681f:	e9 4c ff ff ff       	jmpq   406770 <fft_init_+0x70>
  406824:	48 83 c4 48          	add    $0x48,%rsp
  406828:	5b                   	pop    %rbx
  406829:	5d                   	pop    %rbp
  40682a:	41 5c                	pop    %r12
  40682c:	41 5d                	pop    %r13
  40682e:	41 5e                	pop    %r14
  406830:	41 5f                	pop    %r15
  406832:	c3                   	retq   
  406833:	66 66 66 66 2e 0f 1f 	data32 data32 data32 nopw %cs:0x0(%rax,%rax,1)
  40683a:	84 00 00 00 00 00 

0000000000406840 <cffts3_>:
  406840:	41 57                	push   %r15
  406842:	31 c0                	xor    %eax,%eax
  406844:	41 56                	push   %r14
  406846:	4d 89 c6             	mov    %r8,%r14
  406849:	41 55                	push   %r13
  40684b:	4d 89 cd             	mov    %r9,%r13
  40684e:	41 54                	push   %r12
  406850:	55                   	push   %rbp
  406851:	53                   	push   %rbx
  406852:	48 81 ec 98 00 00 00 	sub    $0x98,%rsp
  406859:	48 63 1d 34 d8 21 00 	movslq 0x21d834(%rip),%rbx        # 624094 <blockinfo_+0x4>
  406860:	48 89 74 24 78       	mov    %rsi,0x78(%rsp)
  406865:	48 89 d6             	mov    %rdx,%rsi
  406868:	48 63 11             	movslq (%rcx),%rdx
  40686b:	48 89 7c 24 50       	mov    %rdi,0x50(%rsp)
  406870:	48 8b 7c 24 78       	mov    0x78(%rsp),%rdi
  406875:	48 89 4c 24 28       	mov    %rcx,0x28(%rsp)
  40687a:	48 63 2e             	movslq (%rsi),%rbp
  40687d:	48 85 db             	test   %rbx,%rbx
  406880:	48 89 74 24 08       	mov    %rsi,0x8(%rsp)
  406885:	4c 8b a4 24 d0 00 00 	mov    0xd0(%rsp),%r12
  40688c:	00 
  40688d:	48 0f 48 d8          	cmovs  %rax,%rbx
  406891:	48 63 0f             	movslq (%rdi),%rcx
  406894:	48 8b 7c 24 28       	mov    0x28(%rsp),%rdi
  406899:	48 0f af d3          	imul   %rbx,%rdx
  40689d:	49 89 df             	mov    %rbx,%r15
  4068a0:	49 f7 d7             	not    %r15
  4068a3:	48 85 d2             	test   %rdx,%rdx
  4068a6:	48 0f 48 d0          	cmovs  %rax,%rdx
  4068aa:	49 29 d7             	sub    %rdx,%r15
  4068ad:	48 85 c9             	test   %rcx,%rcx
  4068b0:	48 89 54 24 18       	mov    %rdx,0x18(%rsp)
  4068b5:	48 0f 48 c8          	cmovs  %rax,%rcx
  4068b9:	48 0f af e9          	imul   %rcx,%rbp
  4068bd:	48 89 4c 24 68       	mov    %rcx,0x68(%rsp)
  4068c2:	48 f7 d1             	not    %rcx
  4068c5:	48 85 ed             	test   %rbp,%rbp
  4068c8:	48 0f 48 e8          	cmovs  %rax,%rbp
  4068cc:	48 29 e9             	sub    %rbp,%rcx
  4068cf:	48 89 4c 24 10       	mov    %rcx,0x10(%rsp)
  4068d4:	e8 d7 ca ff ff       	callq  4033b0 <ilog2_>
  4068d9:	48 8b 74 24 08       	mov    0x8(%rsp),%rsi
  4068de:	48 8b 54 24 18       	mov    0x18(%rsp),%rdx
  4068e3:	48 8b 4c 24 10       	mov    0x10(%rsp),%rcx
  4068e8:	8b 36                	mov    (%rsi),%esi
  4068ea:	85 f6                	test   %esi,%esi
  4068ec:	89 74 24 74          	mov    %esi,0x74(%rsp)
  4068f0:	0f 8e b8 02 00 00    	jle    406bae <cffts3_+0x36e>
  4068f6:	48 8d 73 01          	lea    0x1(%rbx),%rsi
  4068fa:	89 84 24 8c 00 00 00 	mov    %eax,0x8c(%rsp)
  406901:	48 8b 7c 24 68       	mov    0x68(%rsp),%rdi
  406906:	c7 44 24 64 01 00 00 	movl   $0x1,0x64(%rsp)
  40690d:	00 
  40690e:	4a 8d 04 3e          	lea    (%rsi,%r15,1),%rax
  406912:	48 8d 04 50          	lea    (%rax,%rdx,2),%rax
  406916:	48 01 f2             	add    %rsi,%rdx
  406919:	4c 01 fa             	add    %r15,%rdx
  40691c:	48 c1 e0 04          	shl    $0x4,%rax
  406920:	48 89 54 24 38       	mov    %rdx,0x38(%rsp)
  406925:	49 8d 04 04          	lea    (%r12,%rax,1),%rax
  406929:	48 89 44 24 48       	mov    %rax,0x48(%rsp)
  40692e:	48 8d 44 3d 01       	lea    0x1(%rbp,%rdi,1),%rax
  406933:	48 01 c8             	add    %rcx,%rax
  406936:	48 89 44 24 58       	mov    %rax,0x58(%rsp)
  40693b:	48 8b 54 24 78       	mov    0x78(%rsp),%rdx
  406940:	8b 0d 4a d7 21 00    	mov    0x21d74a(%rip),%ecx        # 624090 <blockinfo_>
  406946:	8b 02                	mov    (%rdx),%eax
  406948:	29 c8                	sub    %ecx,%eax
  40694a:	85 c9                	test   %ecx,%ecx
  40694c:	0f 8e 27 02 00 00    	jle    406b79 <cffts3_+0x339>
  406952:	85 c0                	test   %eax,%eax
  406954:	0f 88 23 02 00 00    	js     406b7d <cffts3_+0x33d>
  40695a:	31 d2                	xor    %edx,%edx
  40695c:	f7 f1                	div    %ecx
  40695e:	89 44 24 34          	mov    %eax,0x34(%rsp)
  406962:	48 63 c9             	movslq %ecx,%rcx
  406965:	8b 05 4d d7 21 00    	mov    0x21d74d(%rip),%eax        # 6240b8 <dbg_+0x8>
  40696b:	45 31 ff             	xor    %r15d,%r15d
  40696e:	48 89 4c 24 40       	mov    %rcx,0x40(%rsp)
  406973:	48 8b 4c 24 58       	mov    0x58(%rsp),%rcx
  406978:	85 c0                	test   %eax,%eax
  40697a:	48 89 4c 24 20       	mov    %rcx,0x20(%rsp)
  40697f:	0f 85 62 01 00 00    	jne    406ae7 <cffts3_+0x2a7>
  406985:	0f 1f 00             	nopl   (%rax)
  406988:	48 8b 7c 24 28       	mov    0x28(%rsp),%rdi
  40698d:	44 8b 1f             	mov    (%rdi),%r11d
  406990:	45 85 db             	test   %r11d,%r11d
  406993:	7e 6b                	jle    406a00 <cffts3_+0x1c0>
  406995:	8b 3d f5 d6 21 00    	mov    0x21d6f5(%rip),%edi        # 624090 <blockinfo_>
  40699b:	4c 8b 4c 24 38       	mov    0x38(%rsp),%r9
  4069a0:	41 ba 01 00 00 00    	mov    $0x1,%r10d
  4069a6:	4c 8b 44 24 20       	mov    0x20(%rsp),%r8
  4069ab:	0f 1f 44 00 00       	nopl   0x0(%rax,%rax,1)
  4069b0:	85 ff                	test   %edi,%edi
  4069b2:	7e 39                	jle    4069ed <cffts3_+0x1ad>
  4069b4:	4c 89 c2             	mov    %r8,%rdx
  4069b7:	4c 89 c8             	mov    %r9,%rax
  4069ba:	31 c9                	xor    %ecx,%ecx
  4069bc:	48 c1 e2 04          	shl    $0x4,%rdx
  4069c0:	48 c1 e0 04          	shl    $0x4,%rax
  4069c4:	49 8d 14 16          	lea    (%r14,%rdx,1),%rdx
  4069c8:	49 8d 04 04          	lea    (%r12,%rax,1),%rax
  4069cc:	0f 1f 40 00          	nopl   0x0(%rax)
  4069d0:	48 8b 32             	mov    (%rdx),%rsi
  4069d3:	83 c1 01             	add    $0x1,%ecx
  4069d6:	48 89 30             	mov    %rsi,(%rax)
  4069d9:	48 8b 72 08          	mov    0x8(%rdx),%rsi
  4069dd:	48 83 c2 10          	add    $0x10,%rdx
  4069e1:	48 89 70 08          	mov    %rsi,0x8(%rax)
  4069e5:	48 83 c0 10          	add    $0x10,%rax
  4069e9:	39 f9                	cmp    %edi,%ecx
  4069eb:	75 e3                	jne    4069d0 <cffts3_+0x190>
  4069ed:	49 01 e8             	add    %rbp,%r8
  4069f0:	49 01 d9             	add    %rbx,%r9
  4069f3:	45 39 da             	cmp    %r11d,%r10d
  4069f6:	74 08                	je     406a00 <cffts3_+0x1c0>
  4069f8:	41 83 c2 01          	add    $0x1,%r10d
  4069fc:	eb b2                	jmp    4069b0 <cffts3_+0x170>
  4069fe:	66 90                	xchg   %ax,%ax
  406a00:	45 85 ff             	test   %r15d,%r15d
  406a03:	0f 85 2f 01 00 00    	jne    406b38 <cffts3_+0x2f8>
  406a09:	4c 8b 44 24 48       	mov    0x48(%rsp),%r8
  406a0e:	48 8b 54 24 28       	mov    0x28(%rsp),%rdx
  406a13:	48 8d b4 24 8c 00 00 	lea    0x8c(%rsp),%rsi
  406a1a:	00 
  406a1b:	48 8b 7c 24 50       	mov    0x50(%rsp),%rdi
  406a20:	31 c0                	xor    %eax,%eax
  406a22:	4c 89 e1             	mov    %r12,%rcx
  406a25:	e8 76 fa ff ff       	callq  4064a0 <cfftz_>
  406a2a:	44 8b 15 87 d6 21 00 	mov    0x21d687(%rip),%r10d        # 6240b8 <dbg_+0x8>
  406a31:	45 85 d2             	test   %r10d,%r10d
  406a34:	0f 85 c6 00 00 00    	jne    406b00 <cffts3_+0x2c0>
  406a3a:	45 31 ff             	xor    %r15d,%r15d
  406a3d:	48 8b 44 24 28       	mov    0x28(%rsp),%rax
  406a42:	44 8b 18             	mov    (%rax),%r11d
  406a45:	45 85 db             	test   %r11d,%r11d
  406a48:	7e 66                	jle    406ab0 <cffts3_+0x270>
  406a4a:	8b 3d 40 d6 21 00    	mov    0x21d640(%rip),%edi        # 624090 <blockinfo_>
  406a50:	4c 8b 4c 24 38       	mov    0x38(%rsp),%r9
  406a55:	41 ba 01 00 00 00    	mov    $0x1,%r10d
  406a5b:	4c 8b 44 24 20       	mov    0x20(%rsp),%r8
  406a60:	85 ff                	test   %edi,%edi
  406a62:	7e 39                	jle    406a9d <cffts3_+0x25d>
  406a64:	4c 89 ca             	mov    %r9,%rdx
  406a67:	4c 89 c0             	mov    %r8,%rax
  406a6a:	31 c9                	xor    %ecx,%ecx
  406a6c:	48 c1 e2 04          	shl    $0x4,%rdx
  406a70:	48 c1 e0 04          	shl    $0x4,%rax
  406a74:	49 8d 14 14          	lea    (%r12,%rdx,1),%rdx
  406a78:	49 8d 44 05 00       	lea    0x0(%r13,%rax,1),%rax
  406a7d:	0f 1f 00             	nopl   (%rax)
  406a80:	48 8b 32             	mov    (%rdx),%rsi
  406a83:	83 c1 01             	add    $0x1,%ecx
  406a86:	48 89 30             	mov    %rsi,(%rax)
  406a89:	48 8b 72 08          	mov    0x8(%rdx),%rsi
  406a8d:	48 83 c2 10          	add    $0x10,%rdx
  406a91:	48 89 70 08          	mov    %rsi,0x8(%rax)
  406a95:	48 83 c0 10          	add    $0x10,%rax
  406a99:	39 f9                	cmp    %edi,%ecx
  406a9b:	75 e3                	jne    406a80 <cffts3_+0x240>
  406a9d:	49 01 d9             	add    %rbx,%r9
  406aa0:	49 01 e8             	add    %rbp,%r8
  406aa3:	45 39 da             	cmp    %r11d,%r10d
  406aa6:	74 08                	je     406ab0 <cffts3_+0x270>
  406aa8:	41 83 c2 01          	add    $0x1,%r10d
  406aac:	eb b2                	jmp    406a60 <cffts3_+0x220>
  406aae:	66 90                	xchg   %ax,%ax
  406ab0:	45 85 ff             	test   %r15d,%r15d
  406ab3:	0f 85 af 00 00 00    	jne    406b68 <cffts3_+0x328>
  406ab9:	44 8b 44 24 34       	mov    0x34(%rsp),%r8d
  406abe:	48 8b 54 24 40       	mov    0x40(%rsp),%rdx
  406ac3:	48 01 54 24 20       	add    %rdx,0x20(%rsp)
  406ac8:	45 85 c0             	test   %r8d,%r8d
  406acb:	0f 84 ac 00 00 00    	je     406b7d <cffts3_+0x33d>
  406ad1:	8b 05 e1 d5 21 00    	mov    0x21d5e1(%rip),%eax        # 6240b8 <dbg_+0x8>
  406ad7:	83 6c 24 34 01       	subl   $0x1,0x34(%rsp)
  406adc:	45 31 ff             	xor    %r15d,%r15d
  406adf:	85 c0                	test   %eax,%eax
  406ae1:	0f 84 a1 fe ff ff    	je     406988 <cffts3_+0x148>
  406ae7:	bf 4c c9 40 00       	mov    $0x40c94c,%edi
  406aec:	31 c0                	xor    %eax,%eax
  406aee:	e8 cd 3d 00 00       	callq  40a8c0 <timer_start_>
  406af3:	44 8b 3d be d5 21 00 	mov    0x21d5be(%rip),%r15d        # 6240b8 <dbg_+0x8>
  406afa:	e9 89 fe ff ff       	jmpq   406988 <cffts3_+0x148>
  406aff:	90                   	nop
  406b00:	31 c0                	xor    %eax,%eax
  406b02:	bf 50 c9 40 00       	mov    $0x40c950,%edi
  406b07:	e8 84 3d 00 00       	callq  40a890 <timer_stop_>
  406b0c:	44 8b 0d a5 d5 21 00 	mov    0x21d5a5(%rip),%r9d        # 6240b8 <dbg_+0x8>
  406b13:	45 85 c9             	test   %r9d,%r9d
  406b16:	0f 84 1e ff ff ff    	je     406a3a <cffts3_+0x1fa>
  406b1c:	bf 4c c9 40 00       	mov    $0x40c94c,%edi
  406b21:	31 c0                	xor    %eax,%eax
  406b23:	e8 98 3d 00 00       	callq  40a8c0 <timer_start_>
  406b28:	44 8b 3d 89 d5 21 00 	mov    0x21d589(%rip),%r15d        # 6240b8 <dbg_+0x8>
  406b2f:	e9 09 ff ff ff       	jmpq   406a3d <cffts3_+0x1fd>
  406b34:	0f 1f 40 00          	nopl   0x0(%rax)
  406b38:	31 c0                	xor    %eax,%eax
  406b3a:	bf 4c c9 40 00       	mov    $0x40c94c,%edi
  406b3f:	e8 4c 3d 00 00       	callq  40a890 <timer_stop_>
  406b44:	44 8b 1d 6d d5 21 00 	mov    0x21d56d(%rip),%r11d        # 6240b8 <dbg_+0x8>
  406b4b:	45 85 db             	test   %r11d,%r11d
  406b4e:	0f 84 b5 fe ff ff    	je     406a09 <cffts3_+0x1c9>
  406b54:	bf 50 c9 40 00       	mov    $0x40c950,%edi
  406b59:	31 c0                	xor    %eax,%eax
  406b5b:	e8 60 3d 00 00       	callq  40a8c0 <timer_start_>
  406b60:	e9 a4 fe ff ff       	jmpq   406a09 <cffts3_+0x1c9>
  406b65:	0f 1f 00             	nopl   (%rax)
  406b68:	bf 4c c9 40 00       	mov    $0x40c94c,%edi
  406b6d:	31 c0                	xor    %eax,%eax
  406b6f:	e8 1c 3d 00 00       	callq  40a890 <timer_stop_>
  406b74:	e9 40 ff ff ff       	jmpq   406ab9 <cffts3_+0x279>
  406b79:	85 c0                	test   %eax,%eax
  406b7b:	7e 1e                	jle    406b9b <cffts3_+0x35b>
  406b7d:	48 8b 4c 24 68       	mov    0x68(%rsp),%rcx
  406b82:	8b 7c 24 74          	mov    0x74(%rsp),%edi
  406b86:	48 01 4c 24 58       	add    %rcx,0x58(%rsp)
  406b8b:	39 7c 24 64          	cmp    %edi,0x64(%rsp)
  406b8f:	74 1d                	je     406bae <cffts3_+0x36e>
  406b91:	83 44 24 64 01       	addl   $0x1,0x64(%rsp)
  406b96:	e9 a0 fd ff ff       	jmpq   40693b <cffts3_+0xfb>
  406b9b:	89 ce                	mov    %ecx,%esi
  406b9d:	f7 d8                	neg    %eax
  406b9f:	31 d2                	xor    %edx,%edx
  406ba1:	f7 de                	neg    %esi
  406ba3:	f7 f6                	div    %esi
  406ba5:	89 44 24 34          	mov    %eax,0x34(%rsp)
  406ba9:	e9 b4 fd ff ff       	jmpq   406962 <cffts3_+0x122>
  406bae:	48 81 c4 98 00 00 00 	add    $0x98,%rsp
  406bb5:	5b                   	pop    %rbx
  406bb6:	5d                   	pop    %rbp
  406bb7:	41 5c                	pop    %r12
  406bb9:	41 5d                	pop    %r13
  406bbb:	41 5e                	pop    %r14
  406bbd:	41 5f                	pop    %r15
  406bbf:	c3                   	retq   

0000000000406bc0 <cffts2_>:
  406bc0:	41 57                	push   %r15
  406bc2:	31 c0                	xor    %eax,%eax
  406bc4:	41 56                	push   %r14
  406bc6:	4d 89 c6             	mov    %r8,%r14
  406bc9:	41 55                	push   %r13
  406bcb:	4d 89 cd             	mov    %r9,%r13
  406bce:	41 54                	push   %r12
  406bd0:	55                   	push   %rbp
  406bd1:	53                   	push   %rbx
  406bd2:	48 81 ec 98 00 00 00 	sub    $0x98,%rsp
  406bd9:	48 63 2d b4 d4 21 00 	movslq 0x21d4b4(%rip),%rbp        # 624094 <blockinfo_+0x4>
  406be0:	48 89 74 24 78       	mov    %rsi,0x78(%rsp)
  406be5:	48 89 ce             	mov    %rcx,%rsi
  406be8:	48 63 0a             	movslq (%rdx),%rcx
  406beb:	48 89 54 24 28       	mov    %rdx,0x28(%rsp)
  406bf0:	48 89 7c 24 50       	mov    %rdi,0x50(%rsp)
  406bf5:	48 8b 7c 24 78       	mov    0x78(%rsp),%rdi
  406bfa:	48 89 74 24 08       	mov    %rsi,0x8(%rsp)
  406bff:	48 85 ed             	test   %rbp,%rbp
  406c02:	4c 8b a4 24 d0 00 00 	mov    0xd0(%rsp),%r12
  406c09:	00 
  406c0a:	48 0f 48 e8          	cmovs  %rax,%rbp
  406c0e:	48 89 ca             	mov    %rcx,%rdx
  406c11:	48 0f af d5          	imul   %rbp,%rdx
  406c15:	48 63 1f             	movslq (%rdi),%rbx
  406c18:	49 89 ef             	mov    %rbp,%r15
  406c1b:	49 f7 d7             	not    %r15
  406c1e:	48 8b 7c 24 28       	mov    0x28(%rsp),%rdi
  406c23:	48 85 d2             	test   %rdx,%rdx
  406c26:	48 0f 48 d0          	cmovs  %rax,%rdx
  406c2a:	49 29 d7             	sub    %rdx,%r15
  406c2d:	48 85 db             	test   %rbx,%rbx
  406c30:	48 89 54 24 18       	mov    %rdx,0x18(%rsp)
  406c35:	48 0f 48 d8          	cmovs  %rax,%rbx
  406c39:	48 0f af cb          	imul   %rbx,%rcx
  406c3d:	48 85 c9             	test   %rcx,%rcx
  406c40:	48 0f 49 c1          	cmovns %rcx,%rax
  406c44:	48 89 d9             	mov    %rbx,%rcx
  406c47:	48 f7 d1             	not    %rcx
  406c4a:	48 89 44 24 68       	mov    %rax,0x68(%rsp)
  406c4f:	48 29 c1             	sub    %rax,%rcx
  406c52:	31 c0                	xor    %eax,%eax
  406c54:	48 89 4c 24 10       	mov    %rcx,0x10(%rsp)
  406c59:	e8 52 c7 ff ff       	callq  4033b0 <ilog2_>
  406c5e:	48 8b 74 24 08       	mov    0x8(%rsp),%rsi
  406c63:	48 8b 54 24 18       	mov    0x18(%rsp),%rdx
  406c68:	48 8b 4c 24 10       	mov    0x10(%rsp),%rcx
  406c6d:	8b 36                	mov    (%rsi),%esi
  406c6f:	85 f6                	test   %esi,%esi
  406c71:	89 74 24 74          	mov    %esi,0x74(%rsp)
  406c75:	0f 8e c3 02 00 00    	jle    406f3e <cffts2_+0x37e>
  406c7b:	48 8d 75 01          	lea    0x1(%rbp),%rsi
  406c7f:	89 84 24 8c 00 00 00 	mov    %eax,0x8c(%rsp)
  406c86:	48 8b 7c 24 68       	mov    0x68(%rsp),%rdi
  406c8b:	c7 44 24 64 01 00 00 	movl   $0x1,0x64(%rsp)
  406c92:	00 
  406c93:	4a 8d 04 3e          	lea    (%rsi,%r15,1),%rax
  406c97:	48 8d 04 50          	lea    (%rax,%rdx,2),%rax
  406c9b:	48 01 f2             	add    %rsi,%rdx
  406c9e:	4c 01 fa             	add    %r15,%rdx
  406ca1:	48 c1 e0 04          	shl    $0x4,%rax
  406ca5:	48 89 54 24 38       	mov    %rdx,0x38(%rsp)
  406caa:	49 8d 04 04          	lea    (%r12,%rax,1),%rax
  406cae:	48 89 44 24 48       	mov    %rax,0x48(%rsp)
  406cb3:	48 8d 44 1f 01       	lea    0x1(%rdi,%rbx,1),%rax
  406cb8:	48 01 c8             	add    %rcx,%rax
  406cbb:	48 89 44 24 58       	mov    %rax,0x58(%rsp)
  406cc0:	48 8b 54 24 78       	mov    0x78(%rsp),%rdx
  406cc5:	8b 0d c5 d3 21 00    	mov    0x21d3c5(%rip),%ecx        # 624090 <blockinfo_>
  406ccb:	8b 02                	mov    (%rdx),%eax
  406ccd:	29 c8                	sub    %ecx,%eax
  406ccf:	85 c9                	test   %ecx,%ecx
  406cd1:	0f 8e 32 02 00 00    	jle    406f09 <cffts2_+0x349>
  406cd7:	85 c0                	test   %eax,%eax
  406cd9:	0f 88 2e 02 00 00    	js     406f0d <cffts2_+0x34d>
  406cdf:	31 d2                	xor    %edx,%edx
  406ce1:	f7 f1                	div    %ecx
  406ce3:	89 44 24 34          	mov    %eax,0x34(%rsp)
  406ce7:	44 8b 05 ca d3 21 00 	mov    0x21d3ca(%rip),%r8d        # 6240b8 <dbg_+0x8>
  406cee:	48 8b 7c 24 58       	mov    0x58(%rsp),%rdi
  406cf3:	48 63 c9             	movslq %ecx,%rcx
  406cf6:	45 31 ff             	xor    %r15d,%r15d
  406cf9:	48 89 4c 24 40       	mov    %rcx,0x40(%rsp)
  406cfe:	45 85 c0             	test   %r8d,%r8d
  406d01:	48 89 7c 24 20       	mov    %rdi,0x20(%rsp)
  406d06:	0f 85 6b 01 00 00    	jne    406e77 <cffts2_+0x2b7>
  406d0c:	0f 1f 40 00          	nopl   0x0(%rax)
  406d10:	48 8b 44 24 28       	mov    0x28(%rsp),%rax
  406d15:	44 8b 18             	mov    (%rax),%r11d
  406d18:	45 85 db             	test   %r11d,%r11d
  406d1b:	7e 73                	jle    406d90 <cffts2_+0x1d0>
  406d1d:	8b 3d 6d d3 21 00    	mov    0x21d36d(%rip),%edi        # 624090 <blockinfo_>
  406d23:	4c 8b 4c 24 38       	mov    0x38(%rsp),%r9
  406d28:	41 ba 01 00 00 00    	mov    $0x1,%r10d
  406d2e:	4c 8b 44 24 20       	mov    0x20(%rsp),%r8
  406d33:	0f 1f 44 00 00       	nopl   0x0(%rax,%rax,1)
  406d38:	85 ff                	test   %edi,%edi
  406d3a:	7e 39                	jle    406d75 <cffts2_+0x1b5>
  406d3c:	4c 89 c2             	mov    %r8,%rdx
  406d3f:	4c 89 c8             	mov    %r9,%rax
  406d42:	31 c9                	xor    %ecx,%ecx
  406d44:	48 c1 e2 04          	shl    $0x4,%rdx
  406d48:	48 c1 e0 04          	shl    $0x4,%rax
  406d4c:	49 8d 14 16          	lea    (%r14,%rdx,1),%rdx
  406d50:	49 8d 04 04          	lea    (%r12,%rax,1),%rax
  406d54:	0f 1f 40 00          	nopl   0x0(%rax)
  406d58:	48 8b 32             	mov    (%rdx),%rsi
  406d5b:	83 c1 01             	add    $0x1,%ecx
  406d5e:	48 89 30             	mov    %rsi,(%rax)
  406d61:	48 8b 72 08          	mov    0x8(%rdx),%rsi
  406d65:	48 83 c2 10          	add    $0x10,%rdx
  406d69:	48 89 70 08          	mov    %rsi,0x8(%rax)
  406d6d:	48 83 c0 10          	add    $0x10,%rax
  406d71:	39 f9                	cmp    %edi,%ecx
  406d73:	75 e3                	jne    406d58 <cffts2_+0x198>
  406d75:	49 01 d8             	add    %rbx,%r8
  406d78:	49 01 e9             	add    %rbp,%r9
  406d7b:	45 39 da             	cmp    %r11d,%r10d
  406d7e:	74 10                	je     406d90 <cffts2_+0x1d0>
  406d80:	41 83 c2 01          	add    $0x1,%r10d
  406d84:	eb b2                	jmp    406d38 <cffts2_+0x178>
  406d86:	66 2e 0f 1f 84 00 00 	nopw   %cs:0x0(%rax,%rax,1)
  406d8d:	00 00 00 
  406d90:	45 85 ff             	test   %r15d,%r15d
  406d93:	0f 85 2f 01 00 00    	jne    406ec8 <cffts2_+0x308>
  406d99:	4c 8b 44 24 48       	mov    0x48(%rsp),%r8
  406d9e:	48 8b 54 24 28       	mov    0x28(%rsp),%rdx
  406da3:	48 8d b4 24 8c 00 00 	lea    0x8c(%rsp),%rsi
  406daa:	00 
  406dab:	48 8b 7c 24 50       	mov    0x50(%rsp),%rdi
  406db0:	31 c0                	xor    %eax,%eax
  406db2:	4c 89 e1             	mov    %r12,%rcx
  406db5:	e8 e6 f6 ff ff       	callq  4064a0 <cfftz_>
  406dba:	8b 35 f8 d2 21 00    	mov    0x21d2f8(%rip),%esi        # 6240b8 <dbg_+0x8>
  406dc0:	85 f6                	test   %esi,%esi
  406dc2:	0f 85 c8 00 00 00    	jne    406e90 <cffts2_+0x2d0>
  406dc8:	45 31 ff             	xor    %r15d,%r15d
  406dcb:	48 8b 54 24 28       	mov    0x28(%rsp),%rdx
  406dd0:	44 8b 1a             	mov    (%rdx),%r11d
  406dd3:	45 85 db             	test   %r11d,%r11d
  406dd6:	7e 68                	jle    406e40 <cffts2_+0x280>
  406dd8:	8b 3d b2 d2 21 00    	mov    0x21d2b2(%rip),%edi        # 624090 <blockinfo_>
  406dde:	4c 8b 4c 24 38       	mov    0x38(%rsp),%r9
  406de3:	41 ba 01 00 00 00    	mov    $0x1,%r10d
  406de9:	4c 8b 44 24 20       	mov    0x20(%rsp),%r8
  406dee:	66 90                	xchg   %ax,%ax
  406df0:	85 ff                	test   %edi,%edi
  406df2:	7e 39                	jle    406e2d <cffts2_+0x26d>
  406df4:	4c 89 ca             	mov    %r9,%rdx
  406df7:	4c 89 c0             	mov    %r8,%rax
  406dfa:	31 c9                	xor    %ecx,%ecx
  406dfc:	48 c1 e2 04          	shl    $0x4,%rdx
  406e00:	48 c1 e0 04          	shl    $0x4,%rax
  406e04:	49 8d 14 14          	lea    (%r12,%rdx,1),%rdx
  406e08:	49 8d 44 05 00       	lea    0x0(%r13,%rax,1),%rax
  406e0d:	0f 1f 00             	nopl   (%rax)
  406e10:	48 8b 32             	mov    (%rdx),%rsi
  406e13:	83 c1 01             	add    $0x1,%ecx
  406e16:	48 89 30             	mov    %rsi,(%rax)
  406e19:	48 8b 72 08          	mov    0x8(%rdx),%rsi
  406e1d:	48 83 c2 10          	add    $0x10,%rdx
  406e21:	48 89 70 08          	mov    %rsi,0x8(%rax)
  406e25:	48 83 c0 10          	add    $0x10,%rax
  406e29:	39 f9                	cmp    %edi,%ecx
  406e2b:	75 e3                	jne    406e10 <cffts2_+0x250>
  406e2d:	49 01 e9             	add    %rbp,%r9
  406e30:	49 01 d8             	add    %rbx,%r8
  406e33:	45 39 da             	cmp    %r11d,%r10d
  406e36:	74 08                	je     406e40 <cffts2_+0x280>
  406e38:	41 83 c2 01          	add    $0x1,%r10d
  406e3c:	eb b2                	jmp    406df0 <cffts2_+0x230>
  406e3e:	66 90                	xchg   %ax,%ax
  406e40:	45 85 ff             	test   %r15d,%r15d
  406e43:	0f 85 af 00 00 00    	jne    406ef8 <cffts2_+0x338>
  406e49:	8b 54 24 34          	mov    0x34(%rsp),%edx
  406e4d:	48 8b 7c 24 40       	mov    0x40(%rsp),%rdi
  406e52:	48 01 7c 24 20       	add    %rdi,0x20(%rsp)
  406e57:	85 d2                	test   %edx,%edx
  406e59:	0f 84 ae 00 00 00    	je     406f0d <cffts2_+0x34d>
  406e5f:	44 8b 05 52 d2 21 00 	mov    0x21d252(%rip),%r8d        # 6240b8 <dbg_+0x8>
  406e66:	83 6c 24 34 01       	subl   $0x1,0x34(%rsp)
  406e6b:	45 31 ff             	xor    %r15d,%r15d
  406e6e:	45 85 c0             	test   %r8d,%r8d
  406e71:	0f 84 99 fe ff ff    	je     406d10 <cffts2_+0x150>
  406e77:	bf 4c c9 40 00       	mov    $0x40c94c,%edi
  406e7c:	31 c0                	xor    %eax,%eax
  406e7e:	e8 3d 3a 00 00       	callq  40a8c0 <timer_start_>
  406e83:	44 8b 3d 2e d2 21 00 	mov    0x21d22e(%rip),%r15d        # 6240b8 <dbg_+0x8>
  406e8a:	e9 81 fe ff ff       	jmpq   406d10 <cffts2_+0x150>
  406e8f:	90                   	nop
  406e90:	31 c0                	xor    %eax,%eax
  406e92:	bf 50 c9 40 00       	mov    $0x40c950,%edi
  406e97:	e8 f4 39 00 00       	callq  40a890 <timer_stop_>
  406e9c:	8b 0d 16 d2 21 00    	mov    0x21d216(%rip),%ecx        # 6240b8 <dbg_+0x8>
  406ea2:	85 c9                	test   %ecx,%ecx
  406ea4:	0f 84 1e ff ff ff    	je     406dc8 <cffts2_+0x208>
  406eaa:	bf 4c c9 40 00       	mov    $0x40c94c,%edi
  406eaf:	31 c0                	xor    %eax,%eax
  406eb1:	e8 0a 3a 00 00       	callq  40a8c0 <timer_start_>
  406eb6:	44 8b 3d fb d1 21 00 	mov    0x21d1fb(%rip),%r15d        # 6240b8 <dbg_+0x8>
  406ebd:	e9 09 ff ff ff       	jmpq   406dcb <cffts2_+0x20b>
  406ec2:	66 0f 1f 44 00 00    	nopw   0x0(%rax,%rax,1)
  406ec8:	bf 4c c9 40 00       	mov    $0x40c94c,%edi
  406ecd:	31 c0                	xor    %eax,%eax
  406ecf:	e8 bc 39 00 00       	callq  40a890 <timer_stop_>
  406ed4:	8b 3d de d1 21 00    	mov    0x21d1de(%rip),%edi        # 6240b8 <dbg_+0x8>
  406eda:	85 ff                	test   %edi,%edi
  406edc:	0f 84 b7 fe ff ff    	je     406d99 <cffts2_+0x1d9>
  406ee2:	bf 50 c9 40 00       	mov    $0x40c950,%edi
  406ee7:	31 c0                	xor    %eax,%eax
  406ee9:	e8 d2 39 00 00       	callq  40a8c0 <timer_start_>
  406eee:	e9 a6 fe ff ff       	jmpq   406d99 <cffts2_+0x1d9>
  406ef3:	0f 1f 44 00 00       	nopl   0x0(%rax,%rax,1)
  406ef8:	bf 4c c9 40 00       	mov    $0x40c94c,%edi
  406efd:	31 c0                	xor    %eax,%eax
  406eff:	e8 8c 39 00 00       	callq  40a890 <timer_stop_>
  406f04:	e9 40 ff ff ff       	jmpq   406e49 <cffts2_+0x289>
  406f09:	85 c0                	test   %eax,%eax
  406f0b:	7e 1e                	jle    406f2b <cffts2_+0x36b>
  406f0d:	48 8b 44 24 68       	mov    0x68(%rsp),%rax
  406f12:	8b 54 24 74          	mov    0x74(%rsp),%edx
  406f16:	48 01 44 24 58       	add    %rax,0x58(%rsp)
  406f1b:	39 54 24 64          	cmp    %edx,0x64(%rsp)
  406f1f:	74 1d                	je     406f3e <cffts2_+0x37e>
  406f21:	83 44 24 64 01       	addl   $0x1,0x64(%rsp)
  406f26:	e9 95 fd ff ff       	jmpq   406cc0 <cffts2_+0x100>
  406f2b:	89 ce                	mov    %ecx,%esi
  406f2d:	f7 d8                	neg    %eax
  406f2f:	31 d2                	xor    %edx,%edx
  406f31:	f7 de                	neg    %esi
  406f33:	f7 f6                	div    %esi
  406f35:	89 44 24 34          	mov    %eax,0x34(%rsp)
  406f39:	e9 a9 fd ff ff       	jmpq   406ce7 <cffts2_+0x127>
  406f3e:	48 81 c4 98 00 00 00 	add    $0x98,%rsp
  406f45:	5b                   	pop    %rbx
  406f46:	5d                   	pop    %rbp
  406f47:	41 5c                	pop    %r12
  406f49:	41 5d                	pop    %r13
  406f4b:	41 5e                	pop    %r14
  406f4d:	41 5f                	pop    %r15
  406f4f:	c3                   	retq   

0000000000406f50 <cffts1_>:
  406f50:	41 57                	push   %r15
  406f52:	31 c0                	xor    %eax,%eax
  406f54:	41 56                	push   %r14
  406f56:	4d 89 c6             	mov    %r8,%r14
  406f59:	41 55                	push   %r13
  406f5b:	4d 89 cd             	mov    %r9,%r13
  406f5e:	41 54                	push   %r12
  406f60:	55                   	push   %rbp
  406f61:	53                   	push   %rbx
  406f62:	48 89 cb             	mov    %rcx,%rbx
  406f65:	48 81 ec 88 00 00 00 	sub    $0x88,%rsp
  406f6c:	48 63 2e             	movslq (%rsi),%rbp
  406f6f:	48 89 54 24 60       	mov    %rdx,0x60(%rsp)
  406f74:	48 63 15 19 d1 21 00 	movslq 0x21d119(%rip),%rdx        # 624094 <blockinfo_+0x4>
  406f7b:	48 89 7c 24 48       	mov    %rdi,0x48(%rsp)
  406f80:	48 89 f7             	mov    %rsi,%rdi
  406f83:	48 89 74 24 10       	mov    %rsi,0x10(%rsp)
  406f88:	4c 8b a4 24 c0 00 00 	mov    0xc0(%rsp),%r12
  406f8f:	00 
  406f90:	48 85 d2             	test   %rdx,%rdx
  406f93:	48 0f 48 d0          	cmovs  %rax,%rdx
  406f97:	48 89 54 24 20       	mov    %rdx,0x20(%rsp)
  406f9c:	48 0f af d5          	imul   %rbp,%rdx
  406fa0:	48 85 d2             	test   %rdx,%rdx
  406fa3:	48 0f 48 d0          	cmovs  %rax,%rdx
  406fa7:	48 89 54 24 30       	mov    %rdx,0x30(%rsp)
  406fac:	48 8b 54 24 20       	mov    0x20(%rsp),%rdx
  406fb1:	48 8b 4c 24 30       	mov    0x30(%rsp),%rcx
  406fb6:	48 f7 d2             	not    %rdx
  406fb9:	48 29 ca             	sub    %rcx,%rdx
  406fbc:	48 8b 4c 24 60       	mov    0x60(%rsp),%rcx
  406fc1:	48 85 ed             	test   %rbp,%rbp
  406fc4:	48 89 54 24 28       	mov    %rdx,0x28(%rsp)
  406fc9:	48 0f 48 e8          	cmovs  %rax,%rbp
  406fcd:	49 89 ef             	mov    %rbp,%r15
  406fd0:	48 63 11             	movslq (%rcx),%rdx
  406fd3:	49 f7 d7             	not    %r15
  406fd6:	48 0f af d5          	imul   %rbp,%rdx
  406fda:	48 85 d2             	test   %rdx,%rdx
  406fdd:	48 0f 49 c2          	cmovns %rdx,%rax
  406fe1:	48 89 44 24 68       	mov    %rax,0x68(%rsp)
  406fe6:	31 c0                	xor    %eax,%eax
  406fe8:	e8 c3 c3 ff ff       	callq  4033b0 <ilog2_>
  406fed:	8b 1b                	mov    (%rbx),%ebx
  406fef:	85 db                	test   %ebx,%ebx
  406ff1:	89 5c 24 5c          	mov    %ebx,0x5c(%rsp)
  406ff5:	0f 8e dd 02 00 00    	jle    4072d8 <cffts1_+0x388>
  406ffb:	89 44 24 7c          	mov    %eax,0x7c(%rsp)
  406fff:	48 8b 44 24 20       	mov    0x20(%rsp),%rax
  407004:	4e 8d 7c 3d 01       	lea    0x1(%rbp,%r15,1),%r15
  407009:	48 8b 4c 24 28       	mov    0x28(%rsp),%rcx
  40700e:	48 8b 5c 24 20       	mov    0x20(%rsp),%rbx
  407013:	4c 89 7c 24 50       	mov    %r15,0x50(%rsp)
  407018:	c7 44 24 58 01 00 00 	movl   $0x1,0x58(%rsp)
  40701f:	00 
  407020:	48 83 c0 01          	add    $0x1,%rax
  407024:	48 8d 14 08          	lea    (%rax,%rcx,1),%rdx
  407028:	48 8b 4c 24 30       	mov    0x30(%rsp),%rcx
  40702d:	48 c1 e3 04          	shl    $0x4,%rbx
  407031:	48 8d 14 4a          	lea    (%rdx,%rcx,2),%rdx
  407035:	48 01 c8             	add    %rcx,%rax
  407038:	48 03 44 24 28       	add    0x28(%rsp),%rax
  40703d:	48 c1 e2 04          	shl    $0x4,%rdx
  407041:	49 8d 14 14          	lea    (%r12,%rdx,1),%rdx
  407045:	48 89 44 24 38       	mov    %rax,0x38(%rsp)
  40704a:	48 89 54 24 40       	mov    %rdx,0x40(%rsp)
  40704f:	48 8b 54 24 60       	mov    0x60(%rsp),%rdx
  407054:	8b 0d 36 d0 21 00    	mov    0x21d036(%rip),%ecx        # 624090 <blockinfo_>
  40705a:	8b 02                	mov    (%rdx),%eax
  40705c:	29 c8                	sub    %ecx,%eax
  40705e:	85 c9                	test   %ecx,%ecx
  407060:	0f 8e 3b 02 00 00    	jle    4072a1 <cffts1_+0x351>
  407066:	85 c0                	test   %eax,%eax
  407068:	0f 88 37 02 00 00    	js     4072a5 <cffts1_+0x355>
  40706e:	31 d2                	xor    %edx,%edx
  407070:	f7 f1                	div    %ecx
  407072:	41 89 c7             	mov    %eax,%r15d
  407075:	48 63 c9             	movslq %ecx,%rcx
  407078:	8b 05 3a d0 21 00    	mov    0x21d03a(%rip),%eax        # 6240b8 <dbg_+0x8>
  40707e:	45 31 db             	xor    %r11d,%r11d
  407081:	48 0f af cd          	imul   %rbp,%rcx
  407085:	85 c0                	test   %eax,%eax
  407087:	48 89 4c 24 18       	mov    %rcx,0x18(%rsp)
  40708c:	48 8b 4c 24 50       	mov    0x50(%rsp),%rcx
  407091:	48 89 0c 24          	mov    %rcx,(%rsp)
  407095:	48 89 4c 24 08       	mov    %rcx,0x8(%rsp)
  40709a:	0f 85 6d 01 00 00    	jne    40720d <cffts1_+0x2bd>
  4070a0:	8b 05 ea cf 21 00    	mov    0x21cfea(%rip),%eax        # 624090 <blockinfo_>
  4070a6:	85 c0                	test   %eax,%eax
  4070a8:	7e 76                	jle    407120 <cffts1_+0x1d0>
  4070aa:	48 8b 4c 24 20       	mov    0x20(%rsp),%rcx
  4070af:	48 8b 54 24 10       	mov    0x10(%rsp),%rdx
  4070b4:	83 e8 01             	sub    $0x1,%eax
  4070b7:	4c 8b 44 24 38       	mov    0x38(%rsp),%r8
  4070bc:	4c 8b 0c 24          	mov    (%rsp),%r9
  4070c0:	4c 8d 54 01 02       	lea    0x2(%rcx,%rax,1),%r10
  4070c5:	4c 03 54 24 30       	add    0x30(%rsp),%r10
  4070ca:	8b 3a                	mov    (%rdx),%edi
  4070cc:	4c 03 54 24 28       	add    0x28(%rsp),%r10
  4070d1:	0f 1f 80 00 00 00 00 	nopl   0x0(%rax)
  4070d8:	85 ff                	test   %edi,%edi
  4070da:	7e 38                	jle    407114 <cffts1_+0x1c4>
  4070dc:	4c 89 ca             	mov    %r9,%rdx
  4070df:	4c 89 c0             	mov    %r8,%rax
  4070e2:	31 c9                	xor    %ecx,%ecx
  4070e4:	48 c1 e2 04          	shl    $0x4,%rdx
  4070e8:	48 c1 e0 04          	shl    $0x4,%rax
  4070ec:	49 8d 14 16          	lea    (%r14,%rdx,1),%rdx
  4070f0:	49 8d 04 04          	lea    (%r12,%rax,1),%rax
  4070f4:	0f 1f 40 00          	nopl   0x0(%rax)
  4070f8:	48 8b 32             	mov    (%rdx),%rsi
  4070fb:	83 c1 01             	add    $0x1,%ecx
  4070fe:	48 89 30             	mov    %rsi,(%rax)
  407101:	48 8b 72 08          	mov    0x8(%rdx),%rsi
  407105:	48 83 c2 10          	add    $0x10,%rdx
  407109:	48 89 70 08          	mov    %rsi,0x8(%rax)
  40710d:	48 01 d8             	add    %rbx,%rax
  407110:	39 f9                	cmp    %edi,%ecx
  407112:	75 e4                	jne    4070f8 <cffts1_+0x1a8>
  407114:	49 83 c0 01          	add    $0x1,%r8
  407118:	49 01 e9             	add    %rbp,%r9
  40711b:	4d 39 d0             	cmp    %r10,%r8
  40711e:	75 b8                	jne    4070d8 <cffts1_+0x188>
  407120:	45 85 db             	test   %r11d,%r11d
  407123:	0f 85 37 01 00 00    	jne    407260 <cffts1_+0x310>
  407129:	4c 8b 44 24 40       	mov    0x40(%rsp),%r8
  40712e:	48 8b 54 24 10       	mov    0x10(%rsp),%rdx
  407133:	48 8d 74 24 7c       	lea    0x7c(%rsp),%rsi
  407138:	48 8b 7c 24 48       	mov    0x48(%rsp),%rdi
  40713d:	31 c0                	xor    %eax,%eax
  40713f:	4c 89 e1             	mov    %r12,%rcx
  407142:	e8 59 f3 ff ff       	callq  4064a0 <cfftz_>
  407147:	44 8b 15 6a cf 21 00 	mov    0x21cf6a(%rip),%r10d        # 6240b8 <dbg_+0x8>
  40714e:	45 85 d2             	test   %r10d,%r10d
  407151:	0f 85 d1 00 00 00    	jne    407228 <cffts1_+0x2d8>
  407157:	45 31 db             	xor    %r11d,%r11d
  40715a:	8b 05 30 cf 21 00    	mov    0x21cf30(%rip),%eax        # 624090 <blockinfo_>
  407160:	85 c0                	test   %eax,%eax
  407162:	7e 74                	jle    4071d8 <cffts1_+0x288>
  407164:	48 8b 4c 24 20       	mov    0x20(%rsp),%rcx
  407169:	48 8b 54 24 10       	mov    0x10(%rsp),%rdx
  40716e:	83 e8 01             	sub    $0x1,%eax
  407171:	4c 8b 44 24 38       	mov    0x38(%rsp),%r8
  407176:	4c 8b 4c 24 08       	mov    0x8(%rsp),%r9
  40717b:	4c 8d 54 01 02       	lea    0x2(%rcx,%rax,1),%r10
  407180:	4c 03 54 24 30       	add    0x30(%rsp),%r10
  407185:	8b 3a                	mov    (%rdx),%edi
  407187:	4c 03 54 24 28       	add    0x28(%rsp),%r10
  40718c:	0f 1f 40 00          	nopl   0x0(%rax)
  407190:	85 ff                	test   %edi,%edi
  407192:	7e 38                	jle    4071cc <cffts1_+0x27c>
  407194:	4c 89 c2             	mov    %r8,%rdx
  407197:	4c 89 c8             	mov    %r9,%rax
  40719a:	31 c9                	xor    %ecx,%ecx
  40719c:	48 c1 e2 04          	shl    $0x4,%rdx
  4071a0:	48 c1 e0 04          	shl    $0x4,%rax
  4071a4:	49 8d 14 14          	lea    (%r12,%rdx,1),%rdx
  4071a8:	49 8d 44 05 00       	lea    0x0(%r13,%rax,1),%rax
  4071ad:	0f 1f 00             	nopl   (%rax)
  4071b0:	48 8b 32             	mov    (%rdx),%rsi
  4071b3:	83 c1 01             	add    $0x1,%ecx
  4071b6:	48 89 30             	mov    %rsi,(%rax)
  4071b9:	48 8b 72 08          	mov    0x8(%rdx),%rsi
  4071bd:	48 01 da             	add    %rbx,%rdx
  4071c0:	48 89 70 08          	mov    %rsi,0x8(%rax)
  4071c4:	48 83 c0 10          	add    $0x10,%rax
  4071c8:	39 f9                	cmp    %edi,%ecx
  4071ca:	75 e4                	jne    4071b0 <cffts1_+0x260>
  4071cc:	49 83 c0 01          	add    $0x1,%r8
  4071d0:	49 01 e9             	add    %rbp,%r9
  4071d3:	4d 39 d0             	cmp    %r10,%r8
  4071d6:	75 b8                	jne    407190 <cffts1_+0x240>
  4071d8:	45 85 db             	test   %r11d,%r11d
  4071db:	0f 85 af 00 00 00    	jne    407290 <cffts1_+0x340>
  4071e1:	48 8b 44 24 18       	mov    0x18(%rsp),%rax
  4071e6:	48 01 44 24 08       	add    %rax,0x8(%rsp)
  4071eb:	48 01 04 24          	add    %rax,(%rsp)
  4071ef:	45 85 ff             	test   %r15d,%r15d
  4071f2:	0f 84 ad 00 00 00    	je     4072a5 <cffts1_+0x355>
  4071f8:	8b 05 ba ce 21 00    	mov    0x21ceba(%rip),%eax        # 6240b8 <dbg_+0x8>
  4071fe:	41 83 ef 01          	sub    $0x1,%r15d
  407202:	45 31 db             	xor    %r11d,%r11d
  407205:	85 c0                	test   %eax,%eax
  407207:	0f 84 93 fe ff ff    	je     4070a0 <cffts1_+0x150>
  40720d:	bf 4c c9 40 00       	mov    $0x40c94c,%edi
  407212:	31 c0                	xor    %eax,%eax
  407214:	e8 a7 36 00 00       	callq  40a8c0 <timer_start_>
  407219:	44 8b 1d 98 ce 21 00 	mov    0x21ce98(%rip),%r11d        # 6240b8 <dbg_+0x8>
  407220:	e9 7b fe ff ff       	jmpq   4070a0 <cffts1_+0x150>
  407225:	0f 1f 00             	nopl   (%rax)
  407228:	31 c0                	xor    %eax,%eax
  40722a:	bf 50 c9 40 00       	mov    $0x40c950,%edi
  40722f:	e8 5c 36 00 00       	callq  40a890 <timer_stop_>
  407234:	44 8b 0d 7d ce 21 00 	mov    0x21ce7d(%rip),%r9d        # 6240b8 <dbg_+0x8>
  40723b:	45 85 c9             	test   %r9d,%r9d
  40723e:	0f 84 13 ff ff ff    	je     407157 <cffts1_+0x207>
  407244:	bf 4c c9 40 00       	mov    $0x40c94c,%edi
  407249:	31 c0                	xor    %eax,%eax
  40724b:	e8 70 36 00 00       	callq  40a8c0 <timer_start_>
  407250:	44 8b 1d 61 ce 21 00 	mov    0x21ce61(%rip),%r11d        # 6240b8 <dbg_+0x8>
  407257:	e9 fe fe ff ff       	jmpq   40715a <cffts1_+0x20a>
  40725c:	0f 1f 40 00          	nopl   0x0(%rax)
  407260:	31 c0                	xor    %eax,%eax
  407262:	bf 4c c9 40 00       	mov    $0x40c94c,%edi
  407267:	e8 24 36 00 00       	callq  40a890 <timer_stop_>
  40726c:	44 8b 1d 45 ce 21 00 	mov    0x21ce45(%rip),%r11d        # 6240b8 <dbg_+0x8>
  407273:	45 85 db             	test   %r11d,%r11d
  407276:	0f 84 ad fe ff ff    	je     407129 <cffts1_+0x1d9>
  40727c:	bf 50 c9 40 00       	mov    $0x40c950,%edi
  407281:	31 c0                	xor    %eax,%eax
  407283:	e8 38 36 00 00       	callq  40a8c0 <timer_start_>
  407288:	e9 9c fe ff ff       	jmpq   407129 <cffts1_+0x1d9>
  40728d:	0f 1f 00             	nopl   (%rax)
  407290:	bf 4c c9 40 00       	mov    $0x40c94c,%edi
  407295:	31 c0                	xor    %eax,%eax
  407297:	e8 f4 35 00 00       	callq  40a890 <timer_stop_>
  40729c:	e9 40 ff ff ff       	jmpq   4071e1 <cffts1_+0x291>
  4072a1:	85 c0                	test   %eax,%eax
  4072a3:	7e 1e                	jle    4072c3 <cffts1_+0x373>
  4072a5:	48 8b 54 24 68       	mov    0x68(%rsp),%rdx
  4072aa:	8b 4c 24 5c          	mov    0x5c(%rsp),%ecx
  4072ae:	48 01 54 24 50       	add    %rdx,0x50(%rsp)
  4072b3:	39 4c 24 58          	cmp    %ecx,0x58(%rsp)
  4072b7:	74 1f                	je     4072d8 <cffts1_+0x388>
  4072b9:	83 44 24 58 01       	addl   $0x1,0x58(%rsp)
  4072be:	e9 8c fd ff ff       	jmpq   40704f <cffts1_+0xff>
  4072c3:	41 89 cf             	mov    %ecx,%r15d
  4072c6:	f7 d8                	neg    %eax
  4072c8:	31 d2                	xor    %edx,%edx
  4072ca:	41 f7 df             	neg    %r15d
  4072cd:	41 f7 f7             	div    %r15d
  4072d0:	41 89 c7             	mov    %eax,%r15d
  4072d3:	e9 9d fd ff ff       	jmpq   407075 <cffts1_+0x125>
  4072d8:	48 81 c4 88 00 00 00 	add    $0x88,%rsp
  4072df:	5b                   	pop    %rbx
  4072e0:	5d                   	pop    %rbp
  4072e1:	41 5c                	pop    %r12
  4072e3:	41 5d                	pop    %r13
  4072e5:	41 5e                	pop    %r14
  4072e7:	41 5f                	pop    %r15
  4072e9:	c3                   	retq   
  4072ea:	66 0f 1f 44 00 00    	nopw   0x0(%rax,%rax,1)

00000000004072f0 <fft_>:
  4072f0:	55                   	push   %rbp
  4072f1:	48 89 d5             	mov    %rdx,%rbp
  4072f4:	53                   	push   %rbx
  4072f5:	48 89 f3             	mov    %rsi,%rbx
  4072f8:	48 83 ec 18          	sub    $0x18,%rsp
  4072fc:	83 3f 01             	cmpl   $0x1,(%rdi)
  4072ff:	74 2f                	je     407330 <fft_+0x40>
  407301:	8b 05 81 ce 21 00    	mov    0x21ce81(%rip),%eax        # 624188 <procgrid_+0x8>
  407307:	85 c0                	test   %eax,%eax
  407309:	0f 84 f1 01 00 00    	je     407500 <fft_+0x210>
  40730f:	83 f8 01             	cmp    $0x1,%eax
  407312:	0f 84 28 01 00 00    	je     407440 <fft_+0x150>
  407318:	83 f8 02             	cmp    $0x2,%eax
  40731b:	0f 84 47 02 00 00    	je     407568 <fft_+0x278>
  407321:	48 83 c4 18          	add    $0x18,%rsp
  407325:	5b                   	pop    %rbx
  407326:	5d                   	pop    %rbp
  407327:	c3                   	retq   
  407328:	0f 1f 84 00 00 00 00 	nopl   0x0(%rax,%rax,1)
  40732f:	00 
  407330:	8b 05 52 ce 21 00    	mov    0x21ce52(%rip),%eax        # 624188 <procgrid_+0x8>
  407336:	85 c0                	test   %eax,%eax
  407338:	0f 84 fa 02 00 00    	je     407638 <fft_+0x348>
  40733e:	83 f8 01             	cmp    $0x1,%eax
  407341:	0f 84 91 03 00 00    	je     4076d8 <fft_+0x3e8>
  407347:	83 f8 02             	cmp    $0x2,%eax
  40734a:	75 d5                	jne    407321 <fft_+0x31>
  40734c:	49 89 f1             	mov    %rsi,%r9
  40734f:	49 89 f0             	mov    %rsi,%r8
  407352:	ba c4 40 62 00       	mov    $0x6240c4,%edx
  407357:	31 c0                	xor    %eax,%eax
  407359:	b9 c8 40 62 00       	mov    $0x6240c8,%ecx
  40735e:	be c0 40 62 00       	mov    $0x6240c0,%esi
  407363:	bf 98 c8 40 00       	mov    $0x40c898,%edi
  407368:	48 c7 04 24 80 b0 61 	movq   $0x61b080,(%rsp)
  40736f:	00 
  407370:	e8 db fb ff ff       	callq  406f50 <cffts1_>
  407375:	8b 15 3d cd 21 00    	mov    0x21cd3d(%rip),%edx        # 6240b8 <dbg_+0x8>
  40737b:	85 d2                	test   %edx,%edx
  40737d:	0f 85 75 04 00 00    	jne    4077f8 <fft_+0x508>
  407383:	31 c0                	xor    %eax,%eax
  407385:	48 89 e9             	mov    %rbp,%rcx
  407388:	48 89 da             	mov    %rbx,%rdx
  40738b:	be 58 c9 40 00       	mov    $0x40c958,%esi
  407390:	bf 98 c8 40 00       	mov    $0x40c898,%edi
  407395:	e8 36 dd ff ff       	callq  4050d0 <transpose_x_y_>
  40739a:	8b 05 18 cd 21 00    	mov    0x21cd18(%rip),%eax        # 6240b8 <dbg_+0x8>
  4073a0:	85 c0                	test   %eax,%eax
  4073a2:	0f 85 80 04 00 00    	jne    407828 <fft_+0x538>
  4073a8:	31 c0                	xor    %eax,%eax
  4073aa:	49 89 e9             	mov    %rbp,%r9
  4073ad:	49 89 e8             	mov    %rbp,%r8
  4073b0:	b9 d4 40 62 00       	mov    $0x6240d4,%ecx
  4073b5:	ba d0 40 62 00       	mov    $0x6240d0,%edx
  4073ba:	be cc 40 62 00       	mov    $0x6240cc,%esi
  4073bf:	bf 98 c8 40 00       	mov    $0x40c898,%edi
  4073c4:	48 c7 04 24 80 b0 61 	movq   $0x61b080,(%rsp)
  4073cb:	00 
  4073cc:	e8 7f fb ff ff       	callq  406f50 <cffts1_>
  4073d1:	44 8b 1d e0 cc 21 00 	mov    0x21cce0(%rip),%r11d        # 6240b8 <dbg_+0x8>
  4073d8:	45 85 db             	test   %r11d,%r11d
  4073db:	0f 85 2f 04 00 00    	jne    407810 <fft_+0x520>
  4073e1:	31 c0                	xor    %eax,%eax
  4073e3:	48 89 d9             	mov    %rbx,%rcx
  4073e6:	48 89 ea             	mov    %rbp,%rdx
  4073e9:	be 94 c8 40 00       	mov    $0x40c894,%esi
  4073ee:	bf 58 c9 40 00       	mov    $0x40c958,%edi
  4073f3:	e8 d8 e5 ff ff       	callq  4059d0 <transpose_x_z_>
  4073f8:	44 8b 15 b9 cc 21 00 	mov    0x21ccb9(%rip),%r10d        # 6240b8 <dbg_+0x8>
  4073ff:	45 85 d2             	test   %r10d,%r10d
  407402:	74 0c                	je     407410 <fft_+0x120>
  407404:	bf 54 c9 40 00       	mov    $0x40c954,%edi
  407409:	31 c0                	xor    %eax,%eax
  40740b:	e8 80 34 00 00       	callq  40a890 <timer_stop_>
  407410:	48 c7 04 24 80 b0 61 	movq   $0x61b080,(%rsp)
  407417:	00 
  407418:	49 89 e9             	mov    %rbp,%r9
  40741b:	49 89 d8             	mov    %rbx,%r8
  40741e:	b9 e0 40 62 00       	mov    $0x6240e0,%ecx
  407423:	ba dc 40 62 00       	mov    $0x6240dc,%edx
  407428:	be d8 40 62 00       	mov    $0x6240d8,%esi
  40742d:	bf 98 c8 40 00       	mov    $0x40c898,%edi
  407432:	31 c0                	xor    %eax,%eax
  407434:	e8 17 fb ff ff       	callq  406f50 <cffts1_>
  407439:	e9 e3 fe ff ff       	jmpq   407321 <fft_+0x31>
  40743e:	66 90                	xchg   %ax,%ax
  407440:	49 89 f1             	mov    %rsi,%r9
  407443:	49 89 f0             	mov    %rsi,%r8
  407446:	31 c0                	xor    %eax,%eax
  407448:	b9 e0 40 62 00       	mov    $0x6240e0,%ecx
  40744d:	ba dc 40 62 00       	mov    $0x6240dc,%edx
  407452:	be d8 40 62 00       	mov    $0x6240d8,%esi
  407457:	bf 5c c9 40 00       	mov    $0x40c95c,%edi
  40745c:	48 c7 04 24 80 b0 61 	movq   $0x61b080,(%rsp)
  407463:	00 
  407464:	e8 e7 fa ff ff       	callq  406f50 <cffts1_>
  407469:	44 8b 0d 48 cc 21 00 	mov    0x21cc48(%rip),%r9d        # 6240b8 <dbg_+0x8>
  407470:	45 85 c9             	test   %r9d,%r9d
  407473:	0f 85 67 03 00 00    	jne    4077e0 <fft_+0x4f0>
  407479:	31 c0                	xor    %eax,%eax
  40747b:	48 89 e9             	mov    %rbp,%rcx
  40747e:	48 89 da             	mov    %rbx,%rdx
  407481:	be 58 c9 40 00       	mov    $0x40c958,%esi
  407486:	bf 94 c8 40 00       	mov    $0x40c894,%edi
  40748b:	e8 80 ec ff ff       	callq  406110 <transpose_x_yz_>
  407490:	44 8b 05 21 cc 21 00 	mov    0x21cc21(%rip),%r8d        # 6240b8 <dbg_+0x8>
  407497:	45 85 c0             	test   %r8d,%r8d
  40749a:	0f 85 20 02 00 00    	jne    4076c0 <fft_+0x3d0>
  4074a0:	49 89 e9             	mov    %rbp,%r9
  4074a3:	49 89 e8             	mov    %rbp,%r8
  4074a6:	b9 d4 40 62 00       	mov    $0x6240d4,%ecx
  4074ab:	ba d0 40 62 00       	mov    $0x6240d0,%edx
  4074b0:	be cc 40 62 00       	mov    $0x6240cc,%esi
  4074b5:	bf 5c c9 40 00       	mov    $0x40c95c,%edi
  4074ba:	31 c0                	xor    %eax,%eax
  4074bc:	48 c7 04 24 80 b0 61 	movq   $0x61b080,(%rsp)
  4074c3:	00 
  4074c4:	e8 f7 f6 ff ff       	callq  406bc0 <cffts2_>
  4074c9:	48 c7 04 24 80 b0 61 	movq   $0x61b080,(%rsp)
  4074d0:	00 
  4074d1:	49 89 e9             	mov    %rbp,%r9
  4074d4:	49 89 e8             	mov    %rbp,%r8
  4074d7:	b9 c8 40 62 00       	mov    $0x6240c8,%ecx
  4074dc:	ba c4 40 62 00       	mov    $0x6240c4,%edx
  4074e1:	be c0 40 62 00       	mov    $0x6240c0,%esi
  4074e6:	bf 5c c9 40 00       	mov    $0x40c95c,%edi
  4074eb:	31 c0                	xor    %eax,%eax
  4074ed:	e8 5e fa ff ff       	callq  406f50 <cffts1_>
  4074f2:	48 83 c4 18          	add    $0x18,%rsp
  4074f6:	5b                   	pop    %rbx
  4074f7:	5d                   	pop    %rbp
  4074f8:	c3                   	retq   
  4074f9:	0f 1f 80 00 00 00 00 	nopl   0x0(%rax)
  407500:	49 89 f1             	mov    %rsi,%r9
  407503:	49 89 f0             	mov    %rsi,%r8
  407506:	b9 e0 40 62 00       	mov    $0x6240e0,%ecx
  40750b:	ba dc 40 62 00       	mov    $0x6240dc,%edx
  407510:	be d8 40 62 00       	mov    $0x6240d8,%esi
  407515:	bf 5c c9 40 00       	mov    $0x40c95c,%edi
  40751a:	48 c7 04 24 80 b0 61 	movq   $0x61b080,(%rsp)
  407521:	00 
  407522:	e8 19 f3 ff ff       	callq  406840 <cffts3_>
  407527:	49 89 d9             	mov    %rbx,%r9
  40752a:	49 89 d8             	mov    %rbx,%r8
  40752d:	b9 d4 40 62 00       	mov    $0x6240d4,%ecx
  407532:	ba d0 40 62 00       	mov    $0x6240d0,%edx
  407537:	be cc 40 62 00       	mov    $0x6240cc,%esi
  40753c:	bf 5c c9 40 00       	mov    $0x40c95c,%edi
  407541:	31 c0                	xor    %eax,%eax
  407543:	48 c7 04 24 80 b0 61 	movq   $0x61b080,(%rsp)
  40754a:	00 
  40754b:	e8 70 f6 ff ff       	callq  406bc0 <cffts2_>
  407550:	48 c7 04 24 80 b0 61 	movq   $0x61b080,(%rsp)
  407557:	00 
  407558:	49 89 e9             	mov    %rbp,%r9
  40755b:	49 89 d8             	mov    %rbx,%r8
  40755e:	e9 74 ff ff ff       	jmpq   4074d7 <fft_+0x1e7>
  407563:	0f 1f 44 00 00       	nopl   0x0(%rax,%rax,1)
  407568:	49 89 f1             	mov    %rsi,%r9
  40756b:	49 89 f0             	mov    %rsi,%r8
  40756e:	bf 5c c9 40 00       	mov    $0x40c95c,%edi
  407573:	31 c0                	xor    %eax,%eax
  407575:	b9 e0 40 62 00       	mov    $0x6240e0,%ecx
  40757a:	ba dc 40 62 00       	mov    $0x6240dc,%edx
  40757f:	be d8 40 62 00       	mov    $0x6240d8,%esi
  407584:	48 c7 04 24 80 b0 61 	movq   $0x61b080,(%rsp)
  40758b:	00 
  40758c:	e8 bf f9 ff ff       	callq  406f50 <cffts1_>
  407591:	8b 3d 21 cb 21 00    	mov    0x21cb21(%rip),%edi        # 6240b8 <dbg_+0x8>
  407597:	85 ff                	test   %edi,%edi
  407599:	0f 85 e1 01 00 00    	jne    407780 <fft_+0x490>
  40759f:	be 58 c9 40 00       	mov    $0x40c958,%esi
  4075a4:	31 c0                	xor    %eax,%eax
  4075a6:	48 89 e9             	mov    %rbp,%rcx
  4075a9:	48 89 da             	mov    %rbx,%rdx
  4075ac:	bf 94 c8 40 00       	mov    $0x40c894,%edi
  4075b1:	e8 1a e4 ff ff       	callq  4059d0 <transpose_x_z_>
  4075b6:	8b 35 fc ca 21 00    	mov    0x21cafc(%rip),%esi        # 6240b8 <dbg_+0x8>
  4075bc:	85 f6                	test   %esi,%esi
  4075be:	0f 85 04 02 00 00    	jne    4077c8 <fft_+0x4d8>
  4075c4:	b9 d4 40 62 00       	mov    $0x6240d4,%ecx
  4075c9:	31 c0                	xor    %eax,%eax
  4075cb:	49 89 e9             	mov    %rbp,%r9
  4075ce:	49 89 e8             	mov    %rbp,%r8
  4075d1:	ba d0 40 62 00       	mov    $0x6240d0,%edx
  4075d6:	be cc 40 62 00       	mov    $0x6240cc,%esi
  4075db:	bf 5c c9 40 00       	mov    $0x40c95c,%edi
  4075e0:	48 c7 04 24 80 b0 61 	movq   $0x61b080,(%rsp)
  4075e7:	00 
  4075e8:	e8 63 f9 ff ff       	callq  406f50 <cffts1_>
  4075ed:	8b 0d c5 ca 21 00    	mov    0x21cac5(%rip),%ecx        # 6240b8 <dbg_+0x8>
  4075f3:	85 c9                	test   %ecx,%ecx
  4075f5:	0f 85 b5 01 00 00    	jne    4077b0 <fft_+0x4c0>
  4075fb:	48 89 ea             	mov    %rbp,%rdx
  4075fe:	31 c0                	xor    %eax,%eax
  407600:	48 89 d9             	mov    %rbx,%rcx
  407603:	be 98 c8 40 00       	mov    $0x40c898,%esi
  407608:	bf 58 c9 40 00       	mov    $0x40c958,%edi
  40760d:	e8 be da ff ff       	callq  4050d0 <transpose_x_y_>
  407612:	8b 15 a0 ca 21 00    	mov    0x21caa0(%rip),%edx        # 6240b8 <dbg_+0x8>
  407618:	85 d2                	test   %edx,%edx
  40761a:	0f 85 78 01 00 00    	jne    407798 <fft_+0x4a8>
  407620:	48 c7 04 24 80 b0 61 	movq   $0x61b080,(%rsp)
  407627:	00 
  407628:	49 89 e9             	mov    %rbp,%r9
  40762b:	49 89 d8             	mov    %rbx,%r8
  40762e:	e9 a4 fe ff ff       	jmpq   4074d7 <fft_+0x1e7>
  407633:	0f 1f 44 00 00       	nopl   0x0(%rax,%rax,1)
  407638:	49 89 f1             	mov    %rsi,%r9
  40763b:	49 89 f0             	mov    %rsi,%r8
  40763e:	b9 c8 40 62 00       	mov    $0x6240c8,%ecx
  407643:	ba c4 40 62 00       	mov    $0x6240c4,%edx
  407648:	be c0 40 62 00       	mov    $0x6240c0,%esi
  40764d:	bf 98 c8 40 00       	mov    $0x40c898,%edi
  407652:	48 c7 04 24 80 b0 61 	movq   $0x61b080,(%rsp)
  407659:	00 
  40765a:	e8 f1 f8 ff ff       	callq  406f50 <cffts1_>
  40765f:	49 89 d9             	mov    %rbx,%r9
  407662:	49 89 d8             	mov    %rbx,%r8
  407665:	31 c0                	xor    %eax,%eax
  407667:	b9 d4 40 62 00       	mov    $0x6240d4,%ecx
  40766c:	ba d0 40 62 00       	mov    $0x6240d0,%edx
  407671:	be cc 40 62 00       	mov    $0x6240cc,%esi
  407676:	bf 98 c8 40 00       	mov    $0x40c898,%edi
  40767b:	48 c7 04 24 80 b0 61 	movq   $0x61b080,(%rsp)
  407682:	00 
  407683:	e8 38 f5 ff ff       	callq  406bc0 <cffts2_>
  407688:	49 89 e9             	mov    %rbp,%r9
  40768b:	49 89 d8             	mov    %rbx,%r8
  40768e:	b9 e0 40 62 00       	mov    $0x6240e0,%ecx
  407693:	ba dc 40 62 00       	mov    $0x6240dc,%edx
  407698:	be d8 40 62 00       	mov    $0x6240d8,%esi
  40769d:	bf 98 c8 40 00       	mov    $0x40c898,%edi
  4076a2:	31 c0                	xor    %eax,%eax
  4076a4:	48 c7 04 24 80 b0 61 	movq   $0x61b080,(%rsp)
  4076ab:	00 
  4076ac:	e8 8f f1 ff ff       	callq  406840 <cffts3_>
  4076b1:	e9 6b fc ff ff       	jmpq   407321 <fft_+0x31>
  4076b6:	66 2e 0f 1f 84 00 00 	nopw   %cs:0x0(%rax,%rax,1)
  4076bd:	00 00 00 
  4076c0:	bf 54 c9 40 00       	mov    $0x40c954,%edi
  4076c5:	31 c0                	xor    %eax,%eax
  4076c7:	e8 c4 31 00 00       	callq  40a890 <timer_stop_>
  4076cc:	e9 cf fd ff ff       	jmpq   4074a0 <fft_+0x1b0>
  4076d1:	0f 1f 80 00 00 00 00 	nopl   0x0(%rax)
  4076d8:	49 89 f1             	mov    %rsi,%r9
  4076db:	49 89 f0             	mov    %rsi,%r8
  4076de:	31 c0                	xor    %eax,%eax
  4076e0:	b9 c8 40 62 00       	mov    $0x6240c8,%ecx
  4076e5:	ba c4 40 62 00       	mov    $0x6240c4,%edx
  4076ea:	be c0 40 62 00       	mov    $0x6240c0,%esi
  4076ef:	bf 98 c8 40 00       	mov    $0x40c898,%edi
  4076f4:	48 c7 04 24 80 b0 61 	movq   $0x61b080,(%rsp)
  4076fb:	00 
  4076fc:	e8 4f f8 ff ff       	callq  406f50 <cffts1_>
  407701:	be cc 40 62 00       	mov    $0x6240cc,%esi
  407706:	31 c0                	xor    %eax,%eax
  407708:	49 89 d9             	mov    %rbx,%r9
  40770b:	49 89 d8             	mov    %rbx,%r8
  40770e:	b9 d4 40 62 00       	mov    $0x6240d4,%ecx
  407713:	ba d0 40 62 00       	mov    $0x6240d0,%edx
  407718:	bf 98 c8 40 00       	mov    $0x40c898,%edi
  40771d:	48 c7 04 24 80 b0 61 	movq   $0x61b080,(%rsp)
  407724:	00 
  407725:	e8 96 f4 ff ff       	callq  406bc0 <cffts2_>
  40772a:	8b 35 88 c9 21 00    	mov    0x21c988(%rip),%esi        # 6240b8 <dbg_+0x8>
  407730:	85 f6                	test   %esi,%esi
  407732:	0f 85 01 01 00 00    	jne    407839 <fft_+0x549>
  407738:	48 89 e9             	mov    %rbp,%rcx
  40773b:	31 c0                	xor    %eax,%eax
  40773d:	48 89 da             	mov    %rbx,%rdx
  407740:	be 94 c8 40 00       	mov    $0x40c894,%esi
  407745:	bf 58 c9 40 00       	mov    $0x40c958,%edi
  40774a:	e8 01 e9 ff ff       	callq  406050 <transpose_xy_z_>
  40774f:	8b 0d 63 c9 21 00    	mov    0x21c963(%rip),%ecx        # 6240b8 <dbg_+0x8>
  407755:	85 c9                	test   %ecx,%ecx
  407757:	74 0c                	je     407765 <fft_+0x475>
  407759:	bf 54 c9 40 00       	mov    $0x40c954,%edi
  40775e:	31 c0                	xor    %eax,%eax
  407760:	e8 2b 31 00 00       	callq  40a890 <timer_stop_>
  407765:	48 c7 04 24 80 b0 61 	movq   $0x61b080,(%rsp)
  40776c:	00 
  40776d:	49 89 e9             	mov    %rbp,%r9
  407770:	49 89 e8             	mov    %rbp,%r8
  407773:	e9 a6 fc ff ff       	jmpq   40741e <fft_+0x12e>
  407778:	0f 1f 84 00 00 00 00 	nopl   0x0(%rax,%rax,1)
  40777f:	00 
  407780:	bf 54 c9 40 00       	mov    $0x40c954,%edi
  407785:	31 c0                	xor    %eax,%eax
  407787:	e8 34 31 00 00       	callq  40a8c0 <timer_start_>
  40778c:	e9 0e fe ff ff       	jmpq   40759f <fft_+0x2af>
  407791:	0f 1f 80 00 00 00 00 	nopl   0x0(%rax)
  407798:	bf 54 c9 40 00       	mov    $0x40c954,%edi
  40779d:	31 c0                	xor    %eax,%eax
  40779f:	e8 ec 30 00 00       	callq  40a890 <timer_stop_>
  4077a4:	e9 77 fe ff ff       	jmpq   407620 <fft_+0x330>
  4077a9:	0f 1f 80 00 00 00 00 	nopl   0x0(%rax)
  4077b0:	bf 54 c9 40 00       	mov    $0x40c954,%edi
  4077b5:	31 c0                	xor    %eax,%eax
  4077b7:	e8 04 31 00 00       	callq  40a8c0 <timer_start_>
  4077bc:	e9 3a fe ff ff       	jmpq   4075fb <fft_+0x30b>
  4077c1:	0f 1f 80 00 00 00 00 	nopl   0x0(%rax)
  4077c8:	bf 54 c9 40 00       	mov    $0x40c954,%edi
  4077cd:	31 c0                	xor    %eax,%eax
  4077cf:	e8 bc 30 00 00       	callq  40a890 <timer_stop_>
  4077d4:	e9 eb fd ff ff       	jmpq   4075c4 <fft_+0x2d4>
  4077d9:	0f 1f 80 00 00 00 00 	nopl   0x0(%rax)
  4077e0:	bf 54 c9 40 00       	mov    $0x40c954,%edi
  4077e5:	31 c0                	xor    %eax,%eax
  4077e7:	e8 d4 30 00 00       	callq  40a8c0 <timer_start_>
  4077ec:	e9 88 fc ff ff       	jmpq   407479 <fft_+0x189>
  4077f1:	0f 1f 80 00 00 00 00 	nopl   0x0(%rax)
  4077f8:	bf 54 c9 40 00       	mov    $0x40c954,%edi
  4077fd:	31 c0                	xor    %eax,%eax
  4077ff:	e8 bc 30 00 00       	callq  40a8c0 <timer_start_>
  407804:	e9 7a fb ff ff       	jmpq   407383 <fft_+0x93>
  407809:	0f 1f 80 00 00 00 00 	nopl   0x0(%rax)
  407810:	bf 54 c9 40 00       	mov    $0x40c954,%edi
  407815:	31 c0                	xor    %eax,%eax
  407817:	e8 a4 30 00 00       	callq  40a8c0 <timer_start_>
  40781c:	e9 c0 fb ff ff       	jmpq   4073e1 <fft_+0xf1>
  407821:	0f 1f 80 00 00 00 00 	nopl   0x0(%rax)
  407828:	bf 54 c9 40 00       	mov    $0x40c954,%edi
  40782d:	31 c0                	xor    %eax,%eax
  40782f:	e8 5c 30 00 00       	callq  40a890 <timer_stop_>
  407834:	e9 6f fb ff ff       	jmpq   4073a8 <fft_+0xb8>
  407839:	bf 54 c9 40 00       	mov    $0x40c954,%edi
  40783e:	31 c0                	xor    %eax,%eax
  407840:	e8 7b 30 00 00       	callq  40a8c0 <timer_start_>
  407845:	e9 ee fe ff ff       	jmpq   407738 <fft_+0x448>
  40784a:	66 0f 1f 44 00 00    	nopw   0x0(%rax,%rax,1)

0000000000407850 <print_timers_>:
  407850:	41 56                	push   %r14
  407852:	41 55                	push   %r13
  407854:	41 54                	push   %r12
  407856:	55                   	push   %rbp
  407857:	bd 01 00 00 00       	mov    $0x1,%ebp
  40785c:	53                   	push   %rbx
  40785d:	48 81 ec 30 06 00 00 	sub    $0x630,%rsp
  407864:	48 8d 9c 24 2c 06 00 	lea    0x62c(%rsp),%rbx
  40786b:	00 
  40786c:	c7 84 24 2c 06 00 00 	movl   $0x1,0x62c(%rsp)
  407873:	01 00 00 00 
  407877:	31 c0                	xor    %eax,%eax
  407879:	48 89 df             	mov    %rbx,%rdi
  40787c:	48 63 ed             	movslq %ebp,%rbp
  40787f:	e8 fc 2f 00 00       	callq  40a880 <timer_read_>
  407884:	8b 84 24 2c 06 00 00 	mov    0x62c(%rsp),%eax
  40788b:	f2 0f 11 84 ec 88 05 	movsd  %xmm0,0x588(%rsp,%rbp,8)
  407892:	00 00 
  407894:	8d 68 01             	lea    0x1(%rax),%ebp
  407897:	83 f8 10             	cmp    $0x10,%eax
  40789a:	89 ac 24 2c 06 00 00 	mov    %ebp,0x62c(%rsp)
  4078a1:	75 d4                	jne    407877 <print_timers_+0x27>
  4078a3:	f2 0f 10 84 24 d8 05 	movsd  0x5d8(%rsp),%xmm0
  4078aa:	00 00 
  4078ac:	4c 8d a4 24 90 05 00 	lea    0x590(%rsp),%r12
  4078b3:	00 
  4078b4:	f2 0f 10 8c 24 90 05 	movsd  0x590(%rsp),%xmm1
  4078bb:	00 00 
  4078bd:	48 8d ac 24 28 06 00 	lea    0x628(%rsp),%rbp
  4078c4:	00 
  4078c5:	f2 0f 58 84 24 f0 05 	addsd  0x5f0(%rsp),%xmm0
  4078cc:	00 00 
  4078ce:	48 8d b4 24 e0 03 00 	lea    0x3e0(%rsp),%rsi
  4078d5:	00 
  4078d6:	4c 8d ac 24 70 04 00 	lea    0x470(%rsp),%r13
  4078dd:	00 
  4078de:	31 c0                	xor    %eax,%eax
  4078e0:	41 b9 60 c7 40 00    	mov    $0x40c760,%r9d
  4078e6:	41 b8 94 c8 40 00    	mov    $0x40c894,%r8d
  4078ec:	b9 60 c9 40 00       	mov    $0x40c960,%ecx
  4078f1:	ba 64 c9 40 00       	mov    $0x40c964,%edx
  4078f6:	4c 89 e7             	mov    %r12,%rdi
  4078f9:	4c 8d b4 24 00 05 00 	lea    0x500(%rsp),%r14
  407900:	00 
  407901:	48 89 6c 24 08       	mov    %rbp,0x8(%rsp)
  407906:	48 c7 04 24 60 c7 40 	movq   $0x40c760,(%rsp)
  40790d:	00 
  40790e:	f2 0f 58 84 24 00 06 	addsd  0x600(%rsp),%xmm0
  407915:	00 00 
  407917:	f2 0f 5c c8          	subsd  %xmm0,%xmm1
  40791b:	f2 0f 11 84 24 18 06 	movsd  %xmm0,0x618(%rsp)
  407922:	00 00 
  407924:	f2 0f 11 8c 24 10 06 	movsd  %xmm1,0x610(%rsp)
  40792b:	00 00 
  40792d:	e8 7e b5 ff ff       	callq  402eb0 <mpi_reduce_@plt>
  407932:	31 c0                	xor    %eax,%eax
  407934:	41 b9 60 c7 40 00    	mov    $0x40c760,%r9d
  40793a:	41 b8 58 c9 40 00    	mov    $0x40c958,%r8d
  407940:	b9 60 c9 40 00       	mov    $0x40c960,%ecx
  407945:	ba 64 c9 40 00       	mov    $0x40c964,%edx
  40794a:	4c 89 ee             	mov    %r13,%rsi
  40794d:	4c 89 e7             	mov    %r12,%rdi
  407950:	48 89 6c 24 08       	mov    %rbp,0x8(%rsp)
  407955:	48 c7 04 24 60 c7 40 	movq   $0x40c760,(%rsp)
  40795c:	00 
  40795d:	e8 4e b5 ff ff       	callq  402eb0 <mpi_reduce_@plt>
  407962:	4c 89 e7             	mov    %r12,%rdi
  407965:	31 c0                	xor    %eax,%eax
  407967:	41 b9 60 c7 40 00    	mov    $0x40c760,%r9d
  40796d:	41 b8 98 c8 40 00    	mov    $0x40c898,%r8d
  407973:	b9 60 c9 40 00       	mov    $0x40c960,%ecx
  407978:	ba 64 c9 40 00       	mov    $0x40c964,%edx
  40797d:	4c 89 f6             	mov    %r14,%rsi
  407980:	48 89 6c 24 08       	mov    %rbp,0x8(%rsp)
  407985:	48 c7 04 24 60 c7 40 	movq   $0x40c760,(%rsp)
  40798c:	00 
  40798d:	e8 1e b5 ff ff       	callq  402eb0 <mpi_reduce_@plt>
  407992:	8b 3d e8 c6 21 00    	mov    0x21c6e8(%rip),%edi        # 624080 <coords_>
  407998:	85 ff                	test   %edi,%edi
  40799a:	74 14                	je     4079b0 <print_timers_+0x160>
  40799c:	48 81 c4 30 06 00 00 	add    $0x630,%rsp
  4079a3:	5b                   	pop    %rbx
  4079a4:	5d                   	pop    %rbp
  4079a5:	41 5c                	pop    %r12
  4079a7:	41 5d                	pop    %r13
  4079a9:	41 5e                	pop    %r14
  4079ab:	c3                   	retq   
  4079ac:	0f 1f 40 00          	nopl   0x0(%rax)
  4079b0:	48 8d ac 24 00 02 00 	lea    0x200(%rsp),%rbp
  4079b7:	00 
  4079b8:	48 c7 84 24 08 02 00 	movq   $0x40ce80,0x208(%rsp)
  4079bf:	00 80 ce 40 00 
  4079c4:	c7 84 24 10 02 00 00 	movl   $0x317,0x210(%rsp)
  4079cb:	17 03 00 00 
  4079cf:	48 c7 84 24 48 02 00 	movq   $0x40c968,0x248(%rsp)
  4079d6:	00 68 c9 40 00 
  4079db:	c7 84 24 50 02 00 00 	movl   $0x51,0x250(%rsp)
  4079e2:	51 00 00 00 
  4079e6:	4c 8d a4 24 20 06 00 	lea    0x620(%rsp),%r12
  4079ed:	00 
  4079ee:	48 89 ef             	mov    %rbp,%rdi
  4079f1:	c7 84 24 00 02 00 00 	movl   $0x1000,0x200(%rsp)
  4079f8:	00 10 00 00 
  4079fc:	c7 84 24 04 02 00 00 	movl   $0x6,0x204(%rsp)
  407a03:	06 00 00 00 
  407a07:	e8 b4 b3 ff ff       	callq  402dc0 <_gfortran_st_write@plt>
  407a0c:	48 89 ef             	mov    %rbp,%rdi
  407a0f:	ba 04 00 00 00       	mov    $0x4,%edx
  407a14:	be 8c 41 62 00       	mov    $0x62418c,%esi
  407a19:	e8 62 b3 ff ff       	callq  402d80 <_gfortran_transfer_integer@plt>
  407a1e:	48 89 ef             	mov    %rbp,%rdi
  407a21:	48 8d 6c 24 20       	lea    0x20(%rsp),%rbp
  407a26:	e8 e5 b4 ff ff       	callq  402f10 <_gfortran_st_write_done@plt>
  407a2b:	c7 84 24 2c 06 00 00 	movl   $0x1,0x62c(%rsp)
  407a32:	01 00 00 00 
  407a36:	b8 01 00 00 00       	mov    $0x1,%eax
  407a3b:	66 0f 57 c0          	xorpd  %xmm0,%xmm0
  407a3f:	eb 1a                	jmp    407a5b <print_timers_+0x20b>
  407a41:	0f 1f 80 00 00 00 00 	nopl   0x0(%rax)
  407a48:	83 f8 12             	cmp    $0x12,%eax
  407a4b:	0f 84 4b ff ff ff    	je     40799c <print_timers_+0x14c>
  407a51:	83 c0 01             	add    $0x1,%eax
  407a54:	89 84 24 2c 06 00 00 	mov    %eax,0x62c(%rsp)
  407a5b:	48 63 d0             	movslq %eax,%rdx
  407a5e:	66 0f 2e 84 d4 d8 03 	ucomisd 0x3d8(%rsp,%rdx,8),%xmm0
  407a65:	00 00 
  407a67:	7a 02                	jp     407a6b <print_timers_+0x21b>
  407a69:	74 dd                	je     407a48 <print_timers_+0x1f8>
  407a6b:	48 89 ef             	mov    %rbp,%rdi
  407a6e:	f2 0f 11 44 24 10    	movsd  %xmm0,0x10(%rsp)
  407a74:	48 c7 44 24 28 80 ce 	movq   $0x40ce80,0x28(%rsp)
  407a7b:	40 00 
  407a7d:	c7 44 24 30 1a 03 00 	movl   $0x31a,0x30(%rsp)
  407a84:	00 
  407a85:	48 c7 44 24 68 c0 c9 	movq   $0x40c9c0,0x68(%rsp)
  407a8c:	40 00 
  407a8e:	c7 44 24 70 2d 00 00 	movl   $0x2d,0x70(%rsp)
  407a95:	00 
  407a96:	c7 44 24 20 00 10 00 	movl   $0x1000,0x20(%rsp)
  407a9d:	00 
  407a9e:	c7 44 24 24 06 00 00 	movl   $0x6,0x24(%rsp)
  407aa5:	00 
  407aa6:	e8 15 b3 ff ff       	callq  402dc0 <_gfortran_st_write@plt>
  407aab:	ba 04 00 00 00       	mov    $0x4,%edx
  407ab0:	48 89 de             	mov    %rbx,%rsi
  407ab3:	48 89 ef             	mov    %rbp,%rdi
  407ab6:	e8 c5 b2 ff ff       	callq  402d80 <_gfortran_transfer_integer@plt>
  407abb:	48 63 84 24 2c 06 00 	movslq 0x62c(%rsp),%rax
  407ac2:	00 
  407ac3:	ba 19 00 00 00       	mov    $0x19,%edx
  407ac8:	48 89 ef             	mov    %rbp,%rdi
  407acb:	48 8d 44 80 fb       	lea    -0x5(%rax,%rax,4),%rax
  407ad0:	48 8d b4 80 60 e4 60 	lea    0x60e460(%rax,%rax,4),%rsi
  407ad7:	00 
  407ad8:	e8 23 b4 ff ff       	callq  402f00 <_gfortran_transfer_character@plt>
  407add:	48 63 84 24 2c 06 00 	movslq 0x62c(%rsp),%rax
  407ae4:	00 
  407ae5:	ba 08 00 00 00       	mov    $0x8,%edx
  407aea:	48 89 ef             	mov    %rbp,%rdi
  407aed:	49 8d 74 c5 f8       	lea    -0x8(%r13,%rax,8),%rsi
  407af2:	e8 79 b1 ff ff       	callq  402c70 <_gfortran_transfer_real@plt>
  407af7:	48 63 84 24 2c 06 00 	movslq 0x62c(%rsp),%rax
  407afe:	00 
  407aff:	ba 08 00 00 00       	mov    $0x8,%edx
  407b04:	48 89 ef             	mov    %rbp,%rdi
  407b07:	49 8d 74 c6 f8       	lea    -0x8(%r14,%rax,8),%rsi
  407b0c:	e8 5f b1 ff ff       	callq  402c70 <_gfortran_transfer_real@plt>
  407b11:	f2 0f 2a 15 73 c6 21 	cvtsi2sdl 0x21c673(%rip),%xmm2        # 62418c <procgrid_+0xc>
  407b18:	00 
  407b19:	48 63 84 24 2c 06 00 	movslq 0x62c(%rsp),%rax
  407b20:	00 
  407b21:	ba 08 00 00 00       	mov    $0x8,%edx
  407b26:	4c 89 e6             	mov    %r12,%rsi
  407b29:	48 89 ef             	mov    %rbp,%rdi
  407b2c:	f2 0f 10 8c c4 d8 03 	movsd  0x3d8(%rsp,%rax,8),%xmm1
  407b33:	00 00 
  407b35:	f2 0f 5e ca          	divsd  %xmm2,%xmm1
  407b39:	f2 0f 11 8c 24 20 06 	movsd  %xmm1,0x620(%rsp)
  407b40:	00 00 
  407b42:	e8 29 b1 ff ff       	callq  402c70 <_gfortran_transfer_real@plt>
  407b47:	48 89 ef             	mov    %rbp,%rdi
  407b4a:	e8 c1 b3 ff ff       	callq  402f10 <_gfortran_st_write_done@plt>
  407b4f:	8b 84 24 2c 06 00 00 	mov    0x62c(%rsp),%eax
  407b56:	f2 0f 10 44 24 10    	movsd  0x10(%rsp),%xmm0
  407b5c:	e9 e7 fe ff ff       	jmpq   407a48 <print_timers_+0x1f8>
  407b61:	66 66 66 66 66 66 2e 	data32 data32 data32 data32 data32 nopw %cs:0x0(%rax,%rax,1)
  407b68:	0f 1f 84 00 00 00 00 
  407b6f:	00 

0000000000407b70 <compute_indexmap_>:
  407b70:	41 57                	push   %r15
  407b72:	31 c9                	xor    %ecx,%ecx
  407b74:	41 56                	push   %r14
  407b76:	41 55                	push   %r13
  407b78:	41 54                	push   %r12
  407b7a:	55                   	push   %rbp
  407b7b:	53                   	push   %rbx
  407b7c:	48 89 fb             	mov    %rdi,%rbx
  407b7f:	48 81 ec 38 02 00 00 	sub    $0x238,%rsp
  407b86:	48 63 06             	movslq (%rsi),%rax
  407b89:	48 85 c0             	test   %rax,%rax
  407b8c:	48 0f 48 c1          	cmovs  %rcx,%rax
  407b90:	48 89 44 24 30       	mov    %rax,0x30(%rsp)
  407b95:	48 63 02             	movslq (%rdx),%rax
  407b98:	48 0f af 44 24 30    	imul   0x30(%rsp),%rax
  407b9e:	8b 15 e4 c5 21 00    	mov    0x21c5e4(%rip),%edx        # 624188 <procgrid_+0x8>
  407ba4:	48 85 c0             	test   %rax,%rax
  407ba7:	48 0f 49 c8          	cmovns %rax,%rcx
  407bab:	48 8b 44 24 30       	mov    0x30(%rsp),%rax
  407bb0:	48 89 4c 24 10       	mov    %rcx,0x10(%rsp)
  407bb5:	48 f7 d0             	not    %rax
  407bb8:	48 29 c8             	sub    %rcx,%rax
  407bbb:	85 d2                	test   %edx,%edx
  407bbd:	0f 85 8b 01 00 00    	jne    407d4e <compute_indexmap_+0x1de>
  407bc3:	8b 15 0f c5 21 00    	mov    0x21c50f(%rip),%edx        # 6240d8 <layout_+0x18>
  407bc9:	85 d2                	test   %edx,%edx
  407bcb:	0f 8e 6b 01 00 00    	jle    407d3c <compute_indexmap_+0x1cc>
  407bd1:	8b 35 15 c5 21 00    	mov    0x21c515(%rip),%esi        # 6240ec <layout_+0x2c>
  407bd7:	8b 3d 03 c5 21 00    	mov    0x21c503(%rip),%edi        # 6240e0 <layout_+0x20>
  407bdd:	4c 8b 44 24 30       	mov    0x30(%rsp),%r8
  407be2:	8b 0d f4 c4 21 00    	mov    0x21c4f4(%rip),%ecx        # 6240dc <layout_+0x1c>
  407be8:	44 8b 35 15 c5 21 00 	mov    0x21c515(%rip),%r14d        # 624104 <layout_+0x44>
  407bef:	48 89 5c 24 28       	mov    %rbx,0x28(%rsp)
  407bf4:	8d 6e 1f             	lea    0x1f(%rsi),%ebp
  407bf7:	89 7c 24 18          	mov    %edi,0x18(%rsp)
  407bfb:	8d 54 16 1f          	lea    0x1f(%rsi,%rdx,1),%edx
  407bff:	89 4c 24 44          	mov    %ecx,0x44(%rsp)
  407c03:	8b 0d ef c4 21 00    	mov    0x21c4ef(%rip),%ecx        # 6240f8 <layout_+0x38>
  407c09:	89 6c 24 20          	mov    %ebp,0x20(%rsp)
  407c0d:	48 8b 6c 24 10       	mov    0x10(%rsp),%rbp
  407c12:	89 54 24 48          	mov    %edx,0x48(%rsp)
  407c16:	41 8d 56 1f          	lea    0x1f(%r14),%edx
  407c1a:	4a 8d 7c 05 01       	lea    0x1(%rbp,%r8,1),%rdi
  407c1f:	44 8d 41 1f          	lea    0x1f(%rcx),%r8d
  407c23:	49 89 ef             	mov    %rbp,%r15
  407c26:	89 54 24 24          	mov    %edx,0x24(%rsp)
  407c2a:	49 c1 e7 03          	shl    $0x3,%r15
  407c2e:	48 01 c7             	add    %rax,%rdi
  407c31:	8b 44 24 44          	mov    0x44(%rsp),%eax
  407c35:	44 89 44 24 4c       	mov    %r8d,0x4c(%rsp)
  407c3a:	48 89 7c 24 38       	mov    %rdi,0x38(%rsp)
  407c3f:	8d 4c 01 1f          	lea    0x1f(%rcx,%rax,1),%ecx
  407c43:	89 4c 24 1c          	mov    %ecx,0x1c(%rsp)
  407c47:	8b 4c 24 18          	mov    0x18(%rsp),%ecx
  407c4b:	46 8d 74 31 1f       	lea    0x1f(%rcx,%r14,1),%r14d
  407c50:	8b 54 24 20          	mov    0x20(%rsp),%edx
  407c54:	8b 44 24 20          	mov    0x20(%rsp),%eax
  407c58:	44 8b 64 24 44       	mov    0x44(%rsp),%r12d
  407c5d:	c1 fa 1f             	sar    $0x1f,%edx
  407c60:	c1 ea 1a             	shr    $0x1a,%edx
  407c63:	01 d0                	add    %edx,%eax
  407c65:	83 e0 3f             	and    $0x3f,%eax
  407c68:	29 d0                	sub    %edx,%eax
  407c6a:	83 e8 20             	sub    $0x20,%eax
  407c6d:	0f af c0             	imul   %eax,%eax
  407c70:	45 85 e4             	test   %r12d,%r12d
  407c73:	89 44 24 10          	mov    %eax,0x10(%rsp)
  407c77:	0f 8e a6 00 00 00    	jle    407d23 <compute_indexmap_+0x1b3>
  407c7d:	48 8b 7c 24 38       	mov    0x38(%rsp),%rdi
  407c82:	8b 5c 24 4c          	mov    0x4c(%rsp),%ebx
  407c86:	48 89 7c 24 08       	mov    %rdi,0x8(%rsp)
  407c8b:	0f 1f 44 00 00       	nopl   0x0(%rax,%rax,1)
  407c90:	89 d8                	mov    %ebx,%eax
  407c92:	44 8b 5c 24 18       	mov    0x18(%rsp),%r11d
  407c97:	c1 f8 1f             	sar    $0x1f,%eax
  407c9a:	c1 e8 1a             	shr    $0x1a,%eax
  407c9d:	44 8d 2c 03          	lea    (%rbx,%rax,1),%r13d
  407ca1:	41 83 e5 3f          	and    $0x3f,%r13d
  407ca5:	41 29 c5             	sub    %eax,%r13d
  407ca8:	41 83 ed 20          	sub    $0x20,%r13d
  407cac:	45 0f af ed          	imul   %r13d,%r13d
  407cb0:	44 03 6c 24 10       	add    0x10(%rsp),%r13d
  407cb5:	45 85 db             	test   %r11d,%r11d
  407cb8:	7e 52                	jle    407d0c <compute_indexmap_+0x19c>
  407cba:	4c 8b 44 24 08       	mov    0x8(%rsp),%r8
  407cbf:	48 8b 44 24 28       	mov    0x28(%rsp),%rax
  407cc4:	8b 6c 24 24          	mov    0x24(%rsp),%ebp
  407cc8:	4e 8d 24 c0          	lea    (%rax,%r8,8),%r12
  407ccc:	0f 1f 40 00          	nopl   0x0(%rax)
  407cd0:	89 ea                	mov    %ebp,%edx
  407cd2:	c1 fa 1f             	sar    $0x1f,%edx
  407cd5:	c1 ea 1a             	shr    $0x1a,%edx
  407cd8:	8d 44 15 00          	lea    0x0(%rbp,%rdx,1),%eax
  407cdc:	83 c5 01             	add    $0x1,%ebp
  407cdf:	83 e0 3f             	and    $0x3f,%eax
  407ce2:	29 d0                	sub    %edx,%eax
  407ce4:	83 e8 20             	sub    $0x20,%eax
  407ce7:	0f af c0             	imul   %eax,%eax
  407cea:	44 01 e8             	add    %r13d,%eax
  407ced:	f2 0f 2a c0          	cvtsi2sd %eax,%xmm0
  407cf1:	f2 0f 59 05 cf 51 00 	mulsd  0x51cf(%rip),%xmm0        # 40cec8 <options.0.1652+0x68>
  407cf8:	00 
  407cf9:	e8 52 b1 ff ff       	callq  402e50 <exp@plt>
  407cfe:	f2 41 0f 11 04 24    	movsd  %xmm0,(%r12)
  407d04:	4d 01 fc             	add    %r15,%r12
  407d07:	44 39 f5             	cmp    %r14d,%ebp
  407d0a:	75 c4                	jne    407cd0 <compute_indexmap_+0x160>
  407d0c:	83 c3 01             	add    $0x1,%ebx
  407d0f:	48 8b 54 24 30       	mov    0x30(%rsp),%rdx
  407d14:	48 01 54 24 08       	add    %rdx,0x8(%rsp)
  407d19:	3b 5c 24 1c          	cmp    0x1c(%rsp),%ebx
  407d1d:	0f 85 6d ff ff ff    	jne    407c90 <compute_indexmap_+0x120>
  407d23:	83 44 24 20 01       	addl   $0x1,0x20(%rsp)
  407d28:	48 83 44 24 38 01    	addq   $0x1,0x38(%rsp)
  407d2e:	8b 4c 24 48          	mov    0x48(%rsp),%ecx
  407d32:	39 4c 24 20          	cmp    %ecx,0x20(%rsp)
  407d36:	0f 85 14 ff ff ff    	jne    407c50 <compute_indexmap_+0xe0>
  407d3c:	48 81 c4 38 02 00 00 	add    $0x238,%rsp
  407d43:	5b                   	pop    %rbx
  407d44:	5d                   	pop    %rbp
  407d45:	41 5c                	pop    %r12
  407d47:	41 5d                	pop    %r13
  407d49:	41 5e                	pop    %r14
  407d4b:	41 5f                	pop    %r15
  407d4d:	c3                   	retq   
  407d4e:	83 fa 01             	cmp    $0x1,%edx
  407d51:	0f 84 7e 01 00 00    	je     407ed5 <compute_indexmap_+0x365>
  407d57:	83 fa 02             	cmp    $0x2,%edx
  407d5a:	0f 85 f3 02 00 00    	jne    408053 <compute_indexmap_+0x4e3>
  407d60:	8b 15 76 c3 21 00    	mov    0x21c376(%rip),%edx        # 6240dc <layout_+0x1c>
  407d66:	85 d2                	test   %edx,%edx
  407d68:	7e d2                	jle    407d3c <compute_indexmap_+0x1cc>
  407d6a:	8b 35 7c c3 21 00    	mov    0x21c37c(%rip),%esi        # 6240ec <layout_+0x2c>
  407d70:	8b 3d 62 c3 21 00    	mov    0x21c362(%rip),%edi        # 6240d8 <layout_+0x18>
  407d76:	4c 8b 44 24 30       	mov    0x30(%rsp),%r8
  407d7b:	8b 0d 5f c3 21 00    	mov    0x21c35f(%rip),%ecx        # 6240e0 <layout_+0x20>
  407d81:	44 8b 35 7c c3 21 00 	mov    0x21c37c(%rip),%r14d        # 624104 <layout_+0x44>
  407d88:	48 89 5c 24 28       	mov    %rbx,0x28(%rsp)
  407d8d:	8d 6e 1f             	lea    0x1f(%rsi),%ebp
  407d90:	89 7c 24 18          	mov    %edi,0x18(%rsp)
  407d94:	8d 54 16 1f          	lea    0x1f(%rsi,%rdx,1),%edx
  407d98:	89 4c 24 44          	mov    %ecx,0x44(%rsp)
  407d9c:	8b 0d 56 c3 21 00    	mov    0x21c356(%rip),%ecx        # 6240f8 <layout_+0x38>
  407da2:	89 6c 24 20          	mov    %ebp,0x20(%rsp)
  407da6:	48 8b 6c 24 10       	mov    0x10(%rsp),%rbp
  407dab:	89 54 24 48          	mov    %edx,0x48(%rsp)
  407daf:	41 8d 56 1f          	lea    0x1f(%r14),%edx
  407db3:	4a 8d 7c 05 01       	lea    0x1(%rbp,%r8,1),%rdi
  407db8:	44 8d 41 1f          	lea    0x1f(%rcx),%r8d
  407dbc:	89 54 24 24          	mov    %edx,0x24(%rsp)
  407dc0:	48 01 c7             	add    %rax,%rdi
  407dc3:	8b 44 24 44          	mov    0x44(%rsp),%eax
  407dc7:	44 89 44 24 4c       	mov    %r8d,0x4c(%rsp)
  407dcc:	48 89 7c 24 38       	mov    %rdi,0x38(%rsp)
  407dd1:	8d 4c 01 1f          	lea    0x1f(%rcx,%rax,1),%ecx
  407dd5:	89 4c 24 1c          	mov    %ecx,0x1c(%rsp)
  407dd9:	8b 4c 24 18          	mov    0x18(%rsp),%ecx
  407ddd:	46 8d 74 31 1f       	lea    0x1f(%rcx,%r14,1),%r14d
  407de2:	66 0f 1f 44 00 00    	nopw   0x0(%rax,%rax,1)
  407de8:	8b 54 24 20          	mov    0x20(%rsp),%edx
  407dec:	8b 44 24 20          	mov    0x20(%rsp),%eax
  407df0:	44 8b 44 24 44       	mov    0x44(%rsp),%r8d
  407df5:	c1 fa 1f             	sar    $0x1f,%edx
  407df8:	c1 ea 1a             	shr    $0x1a,%edx
  407dfb:	01 d0                	add    %edx,%eax
  407dfd:	83 e0 3f             	and    $0x3f,%eax
  407e00:	29 d0                	sub    %edx,%eax
  407e02:	83 e8 20             	sub    $0x20,%eax
  407e05:	0f af c0             	imul   %eax,%eax
  407e08:	45 85 c0             	test   %r8d,%r8d
  407e0b:	89 44 24 08          	mov    %eax,0x8(%rsp)
  407e0f:	0f 8e 9c 00 00 00    	jle    407eb1 <compute_indexmap_+0x341>
  407e15:	44 8b 7c 24 4c       	mov    0x4c(%rsp),%r15d
  407e1a:	48 8b 5c 24 38       	mov    0x38(%rsp),%rbx
  407e1f:	90                   	nop
  407e20:	44 89 f8             	mov    %r15d,%eax
  407e23:	8b 6c 24 18          	mov    0x18(%rsp),%ebp
  407e27:	c1 f8 1f             	sar    $0x1f,%eax
  407e2a:	c1 e8 1a             	shr    $0x1a,%eax
  407e2d:	45 8d 2c 07          	lea    (%r15,%rax,1),%r13d
  407e31:	41 83 e5 3f          	and    $0x3f,%r13d
  407e35:	41 29 c5             	sub    %eax,%r13d
  407e38:	41 83 ed 20          	sub    $0x20,%r13d
  407e3c:	45 0f af ed          	imul   %r13d,%r13d
  407e40:	44 03 6c 24 08       	add    0x8(%rsp),%r13d
  407e45:	85 ed                	test   %ebp,%ebp
  407e47:	7e 54                	jle    407e9d <compute_indexmap_+0x32d>
  407e49:	48 8b 7c 24 28       	mov    0x28(%rsp),%rdi
  407e4e:	8b 6c 24 24          	mov    0x24(%rsp),%ebp
  407e52:	4c 8d 24 df          	lea    (%rdi,%rbx,8),%r12
  407e56:	66 2e 0f 1f 84 00 00 	nopw   %cs:0x0(%rax,%rax,1)
  407e5d:	00 00 00 
  407e60:	89 ea                	mov    %ebp,%edx
  407e62:	c1 fa 1f             	sar    $0x1f,%edx
  407e65:	c1 ea 1a             	shr    $0x1a,%edx
  407e68:	8d 44 15 00          	lea    0x0(%rbp,%rdx,1),%eax
  407e6c:	83 c5 01             	add    $0x1,%ebp
  407e6f:	83 e0 3f             	and    $0x3f,%eax
  407e72:	29 d0                	sub    %edx,%eax
  407e74:	83 e8 20             	sub    $0x20,%eax
  407e77:	0f af c0             	imul   %eax,%eax
  407e7a:	44 01 e8             	add    %r13d,%eax
  407e7d:	f2 0f 2a c0          	cvtsi2sd %eax,%xmm0
  407e81:	f2 0f 59 05 3f 50 00 	mulsd  0x503f(%rip),%xmm0        # 40cec8 <options.0.1652+0x68>
  407e88:	00 
  407e89:	e8 c2 af ff ff       	callq  402e50 <exp@plt>
  407e8e:	f2 41 0f 11 04 24    	movsd  %xmm0,(%r12)
  407e94:	49 83 c4 08          	add    $0x8,%r12
  407e98:	44 39 f5             	cmp    %r14d,%ebp
  407e9b:	75 c3                	jne    407e60 <compute_indexmap_+0x2f0>
  407e9d:	41 83 c7 01          	add    $0x1,%r15d
  407ea1:	48 03 5c 24 10       	add    0x10(%rsp),%rbx
  407ea6:	44 3b 7c 24 1c       	cmp    0x1c(%rsp),%r15d
  407eab:	0f 85 6f ff ff ff    	jne    407e20 <compute_indexmap_+0x2b0>
  407eb1:	83 44 24 20 01       	addl   $0x1,0x20(%rsp)
  407eb6:	48 8b 6c 24 30       	mov    0x30(%rsp),%rbp
  407ebb:	44 8b 44 24 48       	mov    0x48(%rsp),%r8d
  407ec0:	48 01 6c 24 38       	add    %rbp,0x38(%rsp)
  407ec5:	44 39 44 24 20       	cmp    %r8d,0x20(%rsp)
  407eca:	0f 85 18 ff ff ff    	jne    407de8 <compute_indexmap_+0x278>
  407ed0:	e9 67 fe ff ff       	jmpq   407d3c <compute_indexmap_+0x1cc>
  407ed5:	8b 0d 01 c2 21 00    	mov    0x21c201(%rip),%ecx        # 6240dc <layout_+0x1c>
  407edb:	85 c9                	test   %ecx,%ecx
  407edd:	0f 8e 59 fe ff ff    	jle    407d3c <compute_indexmap_+0x1cc>
  407ee3:	8b 35 03 c2 21 00    	mov    0x21c203(%rip),%esi        # 6240ec <layout_+0x2c>
  407ee9:	8b 2d e9 c1 21 00    	mov    0x21c1e9(%rip),%ebp        # 6240d8 <layout_+0x18>
  407eef:	8b 3d eb c1 21 00    	mov    0x21c1eb(%rip),%edi        # 6240e0 <layout_+0x20>
  407ef5:	8b 15 fd c1 21 00    	mov    0x21c1fd(%rip),%edx        # 6240f8 <layout_+0x38>
  407efb:	44 8b 35 02 c2 21 00 	mov    0x21c202(%rip),%r14d        # 624104 <layout_+0x44>
  407f02:	48 89 5c 24 28       	mov    %rbx,0x28(%rsp)
  407f07:	44 8d 46 1f          	lea    0x1f(%rsi),%r8d
  407f0b:	89 6c 24 18          	mov    %ebp,0x18(%rsp)
  407f0f:	48 8b 6c 24 30       	mov    0x30(%rsp),%rbp
  407f14:	8d 4c 0e 1f          	lea    0x1f(%rsi,%rcx,1),%ecx
  407f18:	89 7c 24 44          	mov    %edi,0x44(%rsp)
  407f1c:	44 89 44 24 20       	mov    %r8d,0x20(%rsp)
  407f21:	4c 8b 44 24 10       	mov    0x10(%rsp),%r8
  407f26:	89 4c 24 48          	mov    %ecx,0x48(%rsp)
  407f2a:	8b 4c 24 44          	mov    0x44(%rsp),%ecx
  407f2e:	49 8d 7c 28 01       	lea    0x1(%r8,%rbp,1),%rdi
  407f33:	8b 6c 24 18          	mov    0x18(%rsp),%ebp
  407f37:	48 01 c7             	add    %rax,%rdi
  407f3a:	8d 42 1f             	lea    0x1f(%rdx),%eax
  407f3d:	8d 54 0a 1f          	lea    0x1f(%rdx,%rcx,1),%edx
  407f41:	48 89 7c 24 38       	mov    %rdi,0x38(%rsp)
  407f46:	41 8d 7e 1f          	lea    0x1f(%r14),%edi
  407f4a:	46 8d 74 35 1f       	lea    0x1f(%rbp,%r14,1),%r14d
  407f4f:	89 44 24 4c          	mov    %eax,0x4c(%rsp)
  407f53:	89 54 24 1c          	mov    %edx,0x1c(%rsp)
  407f57:	89 7c 24 24          	mov    %edi,0x24(%rsp)
  407f5b:	0f 1f 44 00 00       	nopl   0x0(%rax,%rax,1)
  407f60:	8b 54 24 20          	mov    0x20(%rsp),%edx
  407f64:	8b 44 24 20          	mov    0x20(%rsp),%eax
  407f68:	44 8b 54 24 44       	mov    0x44(%rsp),%r10d
  407f6d:	c1 fa 1f             	sar    $0x1f,%edx
  407f70:	c1 ea 1a             	shr    $0x1a,%edx
  407f73:	01 d0                	add    %edx,%eax
  407f75:	83 e0 3f             	and    $0x3f,%eax
  407f78:	29 d0                	sub    %edx,%eax
  407f7a:	83 e8 20             	sub    $0x20,%eax
  407f7d:	0f af c0             	imul   %eax,%eax
  407f80:	45 85 d2             	test   %r10d,%r10d
  407f83:	89 44 24 08          	mov    %eax,0x8(%rsp)
  407f87:	0f 8e a4 00 00 00    	jle    408031 <compute_indexmap_+0x4c1>
  407f8d:	44 8b 7c 24 4c       	mov    0x4c(%rsp),%r15d
  407f92:	48 8b 5c 24 38       	mov    0x38(%rsp),%rbx
  407f97:	66 0f 1f 84 00 00 00 	nopw   0x0(%rax,%rax,1)
  407f9e:	00 00 
  407fa0:	44 89 f8             	mov    %r15d,%eax
  407fa3:	44 8b 4c 24 18       	mov    0x18(%rsp),%r9d
  407fa8:	c1 f8 1f             	sar    $0x1f,%eax
  407fab:	c1 e8 1a             	shr    $0x1a,%eax
  407fae:	45 8d 2c 07          	lea    (%r15,%rax,1),%r13d
  407fb2:	41 83 e5 3f          	and    $0x3f,%r13d
  407fb6:	41 29 c5             	sub    %eax,%r13d
  407fb9:	41 83 ed 20          	sub    $0x20,%r13d
  407fbd:	45 0f af ed          	imul   %r13d,%r13d
  407fc1:	44 03 6c 24 08       	add    0x8(%rsp),%r13d
  407fc6:	45 85 c9             	test   %r9d,%r9d
  407fc9:	7e 52                	jle    40801d <compute_indexmap_+0x4ad>
  407fcb:	4c 8b 44 24 28       	mov    0x28(%rsp),%r8
  407fd0:	8b 6c 24 24          	mov    0x24(%rsp),%ebp
  407fd4:	4d 8d 24 d8          	lea    (%r8,%rbx,8),%r12
  407fd8:	0f 1f 84 00 00 00 00 	nopl   0x0(%rax,%rax,1)
  407fdf:	00 
  407fe0:	89 ea                	mov    %ebp,%edx
  407fe2:	c1 fa 1f             	sar    $0x1f,%edx
  407fe5:	c1 ea 1a             	shr    $0x1a,%edx
  407fe8:	8d 44 15 00          	lea    0x0(%rbp,%rdx,1),%eax
  407fec:	83 c5 01             	add    $0x1,%ebp
  407fef:	83 e0 3f             	and    $0x3f,%eax
  407ff2:	29 d0                	sub    %edx,%eax
  407ff4:	83 e8 20             	sub    $0x20,%eax
  407ff7:	0f af c0             	imul   %eax,%eax
  407ffa:	44 01 e8             	add    %r13d,%eax
  407ffd:	f2 0f 2a c0          	cvtsi2sd %eax,%xmm0
  408001:	f2 0f 59 05 bf 4e 00 	mulsd  0x4ebf(%rip),%xmm0        # 40cec8 <options.0.1652+0x68>
  408008:	00 
  408009:	e8 42 ae ff ff       	callq  402e50 <exp@plt>
  40800e:	f2 41 0f 11 04 24    	movsd  %xmm0,(%r12)
  408014:	49 83 c4 08          	add    $0x8,%r12
  408018:	44 39 f5             	cmp    %r14d,%ebp
  40801b:	75 c3                	jne    407fe0 <compute_indexmap_+0x470>
  40801d:	41 83 c7 01          	add    $0x1,%r15d
  408021:	48 03 5c 24 10       	add    0x10(%rsp),%rbx
  408026:	44 3b 7c 24 1c       	cmp    0x1c(%rsp),%r15d
  40802b:	0f 85 6f ff ff ff    	jne    407fa0 <compute_indexmap_+0x430>
  408031:	83 44 24 20 01       	addl   $0x1,0x20(%rsp)
  408036:	48 8b 44 24 30       	mov    0x30(%rsp),%rax
  40803b:	8b 54 24 48          	mov    0x48(%rsp),%edx
  40803f:	48 01 44 24 38       	add    %rax,0x38(%rsp)
  408044:	39 54 24 20          	cmp    %edx,0x20(%rsp)
  408048:	0f 85 12 ff ff ff    	jne    407f60 <compute_indexmap_+0x3f0>
  40804e:	e9 e9 fc ff ff       	jmpq   407d3c <compute_indexmap_+0x1cc>
  408053:	48 8d 5c 24 50       	lea    0x50(%rsp),%rbx
  408058:	48 c7 44 24 58 80 ce 	movq   $0x40ce80,0x58(%rsp)
  40805f:	40 00 
  408061:	c7 44 24 60 de 02 00 	movl   $0x2de,0x60(%rsp)
  408068:	00 
  408069:	c7 44 24 50 80 00 00 	movl   $0x80,0x50(%rsp)
  408070:	00 
  408071:	c7 44 24 54 06 00 00 	movl   $0x6,0x54(%rsp)
  408078:	00 
  408079:	48 89 df             	mov    %rbx,%rdi
  40807c:	e8 3f ad ff ff       	callq  402dc0 <_gfortran_st_write@plt>
  408081:	ba 15 00 00 00       	mov    $0x15,%edx
  408086:	be ed c9 40 00       	mov    $0x40c9ed,%esi
  40808b:	48 89 df             	mov    %rbx,%rdi
  40808e:	e8 6d ae ff ff       	callq  402f00 <_gfortran_transfer_character@plt>
  408093:	ba 04 00 00 00       	mov    $0x4,%edx
  408098:	be 88 41 62 00       	mov    $0x624188,%esi
  40809d:	48 89 df             	mov    %rbx,%rdi
  4080a0:	e8 db ac ff ff       	callq  402d80 <_gfortran_transfer_integer@plt>
  4080a5:	48 89 df             	mov    %rbx,%rdi
  4080a8:	e8 63 ae ff ff       	callq  402f10 <_gfortran_st_write_done@plt>
  4080ad:	83 cf ff             	or     $0xffffffffffffffff,%edi
  4080b0:	e8 7b ad ff ff       	callq  402e30 <_gfortran_stop_numeric@plt>
  4080b5:	66 66 2e 0f 1f 84 00 	data32 nopw %cs:0x0(%rax,%rax,1)
  4080bc:	00 00 00 00 

00000000004080c0 <setup_>:
  4080c0:	55                   	push   %rbp
  4080c1:	31 c0                	xor    %eax,%eax
  4080c3:	be 8c 41 62 00       	mov    $0x62418c,%esi
  4080c8:	bf 60 c7 40 00       	mov    $0x40c760,%edi
  4080cd:	53                   	push   %rbx
  4080ce:	48 81 ec 98 2b 00 00 	sub    $0x2b98,%rsp
  4080d5:	c7 05 d1 bf 21 00 00 	movl   $0x0,0x21bfd1(%rip)        # 6240b0 <dbg_>
  4080dc:	00 00 00 
  4080df:	48 8d 9c 24 88 2b 00 	lea    0x2b88(%rsp),%rbx
  4080e6:	00 
  4080e7:	48 89 da             	mov    %rbx,%rdx
  4080ea:	e8 31 ac ff ff       	callq  402d20 <mpi_comm_size_@plt>
  4080ef:	be 80 40 62 00       	mov    $0x624080,%esi
  4080f4:	31 c0                	xor    %eax,%eax
  4080f6:	48 89 da             	mov    %rbx,%rdx
  4080f9:	bf 60 c7 40 00       	mov    $0x40c760,%edi
  4080fe:	e8 9d ad ff ff       	callq  402ea0 <mpi_comm_rank_@plt>
  408103:	8b 35 77 bf 21 00    	mov    0x21bf77(%rip),%esi        # 624080 <coords_>
  408109:	c7 05 5d c0 21 00 16 	movl   $0x16,0x21c05d(%rip)        # 624170 <mpistuff_>
  408110:	00 00 00 
  408113:	85 f6                	test   %esi,%esi
  408115:	0f 84 85 03 00 00    	je     4084a0 <setup_+0x3e0>
  40811b:	41 b8 60 c7 40 00    	mov    $0x40c760,%r8d
  408121:	31 c0                	xor    %eax,%eax
  408123:	49 89 d9             	mov    %rbx,%r9
  408126:	4c 89 c1             	mov    %r8,%rcx
  408129:	ba 4c c9 40 00       	mov    $0x40c94c,%edx
  40812e:	be 98 c8 40 00       	mov    $0x40c898,%esi
  408133:	bf 80 41 62 00       	mov    $0x624180,%edi
  408138:	e8 83 ab ff ff       	callq  402cc0 <mpi_bcast_@plt>
  40813d:	41 b8 60 c7 40 00    	mov    $0x40c760,%r8d
  408143:	31 c0                	xor    %eax,%eax
  408145:	49 89 d9             	mov    %rbx,%r9
  408148:	4c 89 c1             	mov    %r8,%rcx
  40814b:	ba 4c c9 40 00       	mov    $0x40c94c,%edx
  408150:	be 98 c8 40 00       	mov    $0x40c898,%esi
  408155:	bf 84 41 62 00       	mov    $0x624184,%edi
  40815a:	e8 61 ab ff ff       	callq  402cc0 <mpi_bcast_@plt>
  40815f:	41 b8 60 c7 40 00    	mov    $0x40c760,%r8d
  408165:	31 c0                	xor    %eax,%eax
  408167:	49 89 d9             	mov    %rbx,%r9
  40816a:	4c 89 c1             	mov    %r8,%rcx
  40816d:	ba 4c c9 40 00       	mov    $0x40c94c,%edx
  408172:	be 98 c8 40 00       	mov    $0x40c898,%esi
  408177:	bf 88 41 62 00       	mov    $0x624188,%edi
  40817c:	e8 3f ab ff ff       	callq  402cc0 <mpi_bcast_@plt>
  408181:	41 b8 60 c7 40 00    	mov    $0x40c760,%r8d
  408187:	31 c0                	xor    %eax,%eax
  408189:	49 89 d9             	mov    %rbx,%r9
  40818c:	4c 89 c1             	mov    %r8,%rcx
  40818f:	ba 4c c9 40 00       	mov    $0x40c94c,%edx
  408194:	be 98 c8 40 00       	mov    $0x40c898,%esi
  408199:	bf f0 46 70 00       	mov    $0x7046f0,%edi
  40819e:	e8 1d ab ff ff       	callq  402cc0 <mpi_bcast_@plt>
  4081a3:	41 b8 60 c7 40 00    	mov    $0x40c760,%r8d
  4081a9:	31 c0                	xor    %eax,%eax
  4081ab:	49 89 d9             	mov    %rbx,%r9
  4081ae:	4c 89 c1             	mov    %r8,%rcx
  4081b1:	ba 50 c9 40 00       	mov    $0x40c950,%edx
  4081b6:	be 98 c8 40 00       	mov    $0x40c898,%esi
  4081bb:	bf b8 40 62 00       	mov    $0x6240b8,%edi
  4081c0:	e8 fb aa ff ff       	callq  402cc0 <mpi_bcast_@plt>
  4081c5:	83 3d b4 bf 21 00 01 	cmpl   $0x1,0x21bfb4(%rip)        # 624180 <procgrid_>
  4081cc:	0f 84 ee 07 00 00    	je     4089c0 <setup_+0x900>
  4081d2:	c7 05 ac bf 21 00 02 	movl   $0x2,0x21bfac(%rip)        # 624188 <procgrid_+0x8>
  4081d9:	00 00 00 
  4081dc:	8b 35 9e bf 21 00    	mov    0x21bf9e(%rip),%esi        # 624180 <procgrid_>
  4081e2:	ba 40 00 00 00       	mov    $0x40,%edx
  4081e7:	c7 05 d7 be 21 00 40 	movl   $0x40,0x21bed7(%rip)        # 6240c8 <layout_+0x8>
  4081ee:	00 00 00 
  4081f1:	89 d0                	mov    %edx,%eax
  4081f3:	c1 fa 1f             	sar    $0x1f,%edx
  4081f6:	8b 0d 88 bf 21 00    	mov    0x21bf88(%rip),%ecx        # 624184 <procgrid_+0x4>
  4081fc:	c7 05 ca be 21 00 40 	movl   $0x40,0x21beca(%rip)        # 6240d0 <layout_+0x10>
  408203:	00 00 00 
  408206:	c7 05 c4 be 21 00 40 	movl   $0x40,0x21bec4(%rip)        # 6240d4 <layout_+0x14>
  40820d:	00 00 00 
  408210:	49 89 d8             	mov    %rbx,%r8
  408213:	f7 fe                	idiv   %esi
  408215:	8b 15 ad be 21 00    	mov    0x21bead(%rip),%edx        # 6240c8 <layout_+0x8>
  40821b:	c7 05 b7 be 21 00 40 	movl   $0x40,0x21beb7(%rip)        # 6240dc <layout_+0x1c>
  408222:	00 00 00 
  408225:	bf 60 c7 40 00       	mov    $0x40c760,%edi
  40822a:	c7 05 ac be 21 00 40 	movl   $0x40,0x21beac(%rip)        # 6240e0 <layout_+0x20>
  408231:	00 00 00 
  408234:	c7 05 82 be 21 00 40 	movl   $0x40,0x21be82(%rip)        # 6240c0 <layout_>
  40823b:	00 00 00 
  40823e:	c7 05 84 be 21 00 40 	movl   $0x40,0x21be84(%rip)        # 6240cc <layout_+0xc>
  408245:	00 00 00 
  408248:	c7 05 86 be 21 00 40 	movl   $0x40,0x21be86(%rip)        # 6240d8 <layout_+0x18>
  40824f:	00 00 00 
  408252:	89 05 6c be 21 00    	mov    %eax,0x21be6c(%rip)        # 6240c4 <layout_+0x4>
  408258:	89 d0                	mov    %edx,%eax
  40825a:	c1 fa 1f             	sar    $0x1f,%edx
  40825d:	f7 f9                	idiv   %ecx
  40825f:	8b 15 6b be 21 00    	mov    0x21be6b(%rip),%edx        # 6240d0 <layout_+0x10>
  408265:	89 05 5d be 21 00    	mov    %eax,0x21be5d(%rip)        # 6240c8 <layout_+0x8>
  40826b:	89 d0                	mov    %edx,%eax
  40826d:	c1 fa 1f             	sar    $0x1f,%edx
  408270:	f7 fe                	idiv   %esi
  408272:	8b 15 5c be 21 00    	mov    0x21be5c(%rip),%edx        # 6240d4 <layout_+0x14>
  408278:	89 05 52 be 21 00    	mov    %eax,0x21be52(%rip)        # 6240d0 <layout_+0x10>
  40827e:	89 d0                	mov    %edx,%eax
  408280:	c1 fa 1f             	sar    $0x1f,%edx
  408283:	f7 f9                	idiv   %ecx
  408285:	8b 15 51 be 21 00    	mov    0x21be51(%rip),%edx        # 6240dc <layout_+0x1c>
  40828b:	89 05 43 be 21 00    	mov    %eax,0x21be43(%rip)        # 6240d4 <layout_+0x14>
  408291:	89 d0                	mov    %edx,%eax
  408293:	c1 fa 1f             	sar    $0x1f,%edx
  408296:	f7 fe                	idiv   %esi
  408298:	8b 15 42 be 21 00    	mov    0x21be42(%rip),%edx        # 6240e0 <layout_+0x20>
  40829e:	be 84 40 62 00       	mov    $0x624084,%esi
  4082a3:	89 05 33 be 21 00    	mov    %eax,0x21be33(%rip)        # 6240dc <layout_+0x1c>
  4082a9:	89 d0                	mov    %edx,%eax
  4082ab:	c1 fa 1f             	sar    $0x1f,%edx
  4082ae:	f7 f9                	idiv   %ecx
  4082b0:	8b 15 ca bd 21 00    	mov    0x21bdca(%rip),%edx        # 624080 <coords_>
  4082b6:	89 05 24 be 21 00    	mov    %eax,0x21be24(%rip)        # 6240e0 <layout_+0x20>
  4082bc:	89 d0                	mov    %edx,%eax
  4082be:	c1 fa 1f             	sar    $0x1f,%edx
  4082c1:	f7 f9                	idiv   %ecx
  4082c3:	b9 00 47 70 00       	mov    $0x704700,%ecx
  4082c8:	89 15 ba bd 21 00    	mov    %edx,0x21bdba(%rip)        # 624088 <coords_+0x8>
  4082ce:	89 05 b0 bd 21 00    	mov    %eax,0x21bdb0(%rip)        # 624084 <coords_+0x4>
  4082d4:	ba 88 40 62 00       	mov    $0x624088,%edx
  4082d9:	31 c0                	xor    %eax,%eax
  4082db:	e8 d0 aa ff ff       	callq  402db0 <mpi_comm_split_@plt>
  4082e0:	31 c0                	xor    %eax,%eax
  4082e2:	49 89 d8             	mov    %rbx,%r8
  4082e5:	b9 04 47 70 00       	mov    $0x704704,%ecx
  4082ea:	ba 84 40 62 00       	mov    $0x624084,%edx
  4082ef:	be 88 40 62 00       	mov    $0x624088,%esi
  4082f4:	bf 60 c7 40 00       	mov    $0x40c760,%edi
  4082f9:	e8 b2 aa ff ff       	callq  402db0 <mpi_comm_split_@plt>
  4082fe:	8b 05 ac bd 21 00    	mov    0x21bdac(%rip),%eax        # 6240b0 <dbg_>
  408304:	85 c0                	test   %eax,%eax
  408306:	0f 85 14 01 00 00    	jne    408420 <setup_+0x360>
  40830c:	8b 05 76 be 21 00    	mov    0x21be76(%rip),%eax        # 624188 <procgrid_+0x8>
  408312:	85 c0                	test   %eax,%eax
  408314:	0f 85 d6 00 00 00    	jne    4083f0 <setup_+0x330>
  40831a:	c7 05 c0 bd 21 00 01 	movl   $0x1,0x21bdc0(%rip)        # 6240e4 <layout_+0x24>
  408321:	00 00 00 
  408324:	c7 05 da bd 21 00 40 	movl   $0x40,0x21bdda(%rip)        # 624108 <layout_+0x48>
  40832b:	00 00 00 
  40832e:	c7 05 b8 bd 21 00 01 	movl   $0x1,0x21bdb8(%rip)        # 6240f0 <layout_+0x30>
  408335:	00 00 00 
  408338:	c7 05 d2 bd 21 00 40 	movl   $0x40,0x21bdd2(%rip)        # 624114 <layout_+0x54>
  40833f:	00 00 00 
  408342:	c7 05 b0 bd 21 00 01 	movl   $0x1,0x21bdb0(%rip)        # 6240fc <layout_+0x3c>
  408349:	00 00 00 
  40834c:	c7 05 ca bd 21 00 40 	movl   $0x40,0x21bdca(%rip)        # 624120 <layout_+0x60>
  408353:	00 00 00 
  408356:	c7 05 88 bd 21 00 01 	movl   $0x1,0x21bd88(%rip)        # 6240e8 <layout_+0x28>
  40835d:	00 00 00 
  408360:	c7 05 a2 bd 21 00 40 	movl   $0x40,0x21bda2(%rip)        # 62410c <layout_+0x4c>
  408367:	00 00 00 
  40836a:	c7 05 80 bd 21 00 01 	movl   $0x1,0x21bd80(%rip)        # 6240f4 <layout_+0x34>
  408371:	00 00 00 
  408374:	c7 05 9a bd 21 00 40 	movl   $0x40,0x21bd9a(%rip)        # 624118 <layout_+0x58>
  40837b:	00 00 00 
  40837e:	c7 05 78 bd 21 00 01 	movl   $0x1,0x21bd78(%rip)        # 624100 <layout_+0x40>
  408385:	00 00 00 
  408388:	c7 05 92 bd 21 00 40 	movl   $0x40,0x21bd92(%rip)        # 624124 <layout_+0x64>
  40838f:	00 00 00 
  408392:	c7 05 50 bd 21 00 01 	movl   $0x1,0x21bd50(%rip)        # 6240ec <layout_+0x2c>
  408399:	00 00 00 
  40839c:	c7 05 6a bd 21 00 40 	movl   $0x40,0x21bd6a(%rip)        # 624110 <layout_+0x50>
  4083a3:	00 00 00 
  4083a6:	c7 05 48 bd 21 00 01 	movl   $0x1,0x21bd48(%rip)        # 6240f8 <layout_+0x38>
  4083ad:	00 00 00 
  4083b0:	c7 05 62 bd 21 00 40 	movl   $0x40,0x21bd62(%rip)        # 62411c <layout_+0x5c>
  4083b7:	00 00 00 
  4083ba:	c7 05 40 bd 21 00 01 	movl   $0x1,0x21bd40(%rip)        # 624104 <layout_+0x44>
  4083c1:	00 00 00 
  4083c4:	c7 05 5a bd 21 00 40 	movl   $0x40,0x21bd5a(%rip)        # 624128 <layout_+0x68>
  4083cb:	00 00 00 
  4083ce:	c7 05 b8 bc 21 00 10 	movl   $0x10,0x21bcb8(%rip)        # 624090 <blockinfo_>
  4083d5:	00 00 00 
  4083d8:	c7 05 b2 bc 21 00 12 	movl   $0x12,0x21bcb2(%rip)        # 624094 <blockinfo_+0x4>
  4083df:	00 00 00 
  4083e2:	48 81 c4 98 2b 00 00 	add    $0x2b98,%rsp
  4083e9:	5b                   	pop    %rbx
  4083ea:	5d                   	pop    %rbp
  4083eb:	c3                   	retq   
  4083ec:	0f 1f 40 00          	nopl   0x0(%rax)
  4083f0:	83 f8 01             	cmp    $0x1,%eax
  4083f3:	0f 84 df 09 00 00    	je     408dd8 <setup_+0xd18>
  4083f9:	83 f8 02             	cmp    $0x2,%eax
  4083fc:	0f 84 a6 0a 00 00    	je     408ea8 <setup_+0xde8>
  408402:	c7 05 84 bc 21 00 10 	movl   $0x10,0x21bc84(%rip)        # 624090 <blockinfo_>
  408409:	00 00 00 
  40840c:	c7 05 7e bc 21 00 12 	movl   $0x12,0x21bc7e(%rip)        # 624094 <blockinfo_+0x4>
  408413:	00 00 00 
  408416:	48 81 c4 98 2b 00 00 	add    $0x2b98,%rsp
  40841d:	5b                   	pop    %rbx
  40841e:	5d                   	pop    %rbp
  40841f:	c3                   	retq   
  408420:	48 89 e7             	mov    %rsp,%rdi
  408423:	48 c7 44 24 08 80 ce 	movq   $0x40ce80,0x8(%rsp)
  40842a:	40 00 
  40842c:	c7 44 24 10 37 02 00 	movl   $0x237,0x10(%rsp)
  408433:	00 
  408434:	c7 04 24 80 00 00 00 	movl   $0x80,(%rsp)
  40843b:	c7 44 24 04 06 00 00 	movl   $0x6,0x4(%rsp)
  408442:	00 
  408443:	e8 78 a9 ff ff       	callq  402dc0 <_gfortran_st_write@plt>
  408448:	48 89 e7             	mov    %rsp,%rdi
  40844b:	ba 0d 00 00 00       	mov    $0xd,%edx
  408450:	be 69 cd 40 00       	mov    $0x40cd69,%esi
  408455:	e8 a6 aa ff ff       	callq  402f00 <_gfortran_transfer_character@plt>
  40845a:	48 89 e7             	mov    %rsp,%rdi
  40845d:	ba 04 00 00 00       	mov    $0x4,%edx
  408462:	be 80 40 62 00       	mov    $0x624080,%esi
  408467:	e8 14 a9 ff ff       	callq  402d80 <_gfortran_transfer_integer@plt>
  40846c:	48 89 e7             	mov    %rsp,%rdi
  40846f:	ba 04 00 00 00       	mov    $0x4,%edx
  408474:	be 84 40 62 00       	mov    $0x624084,%esi
  408479:	e8 02 a9 ff ff       	callq  402d80 <_gfortran_transfer_integer@plt>
  40847e:	48 89 e7             	mov    %rsp,%rdi
  408481:	ba 04 00 00 00       	mov    $0x4,%edx
  408486:	be 88 40 62 00       	mov    $0x624088,%esi
  40848b:	e8 f0 a8 ff ff       	callq  402d80 <_gfortran_transfer_integer@plt>
  408490:	48 89 e7             	mov    %rsp,%rdi
  408493:	e8 78 aa ff ff       	callq  402f10 <_gfortran_st_write_done@plt>
  408498:	e9 6f fe ff ff       	jmpq   40830c <setup_+0x24c>
  40849d:	0f 1f 00             	nopl   (%rax)
  4084a0:	48 8d ac 24 60 27 00 	lea    0x2760(%rsp),%rbp
  4084a7:	00 
  4084a8:	48 c7 84 24 68 27 00 	movq   $0x40ce80,0x2768(%rsp)
  4084af:	00 80 ce 40 00 
  4084b4:	c7 84 24 70 27 00 00 	movl   $0x173,0x2770(%rsp)
  4084bb:	73 01 00 00 
  4084bf:	48 c7 84 24 a8 27 00 	movq   $0x40ca08,0x27a8(%rsp)
  4084c6:	00 08 ca 40 00 
  4084cb:	c7 84 24 b0 27 00 00 	movl   $0x35,0x27b0(%rsp)
  4084d2:	35 00 00 00 
  4084d6:	48 89 ef             	mov    %rbp,%rdi
  4084d9:	c7 84 24 60 27 00 00 	movl   $0x1000,0x2760(%rsp)
  4084e0:	00 10 00 00 
  4084e4:	c7 84 24 64 27 00 00 	movl   $0x6,0x2764(%rsp)
  4084eb:	06 00 00 00 
  4084ef:	e8 cc a8 ff ff       	callq  402dc0 <_gfortran_st_write@plt>
  4084f4:	48 89 ef             	mov    %rbp,%rdi
  4084f7:	48 8d ac 24 8c 2b 00 	lea    0x2b8c(%rsp),%rbp
  4084fe:	00 
  4084ff:	e8 0c aa ff ff       	callq  402f10 <_gfortran_st_write_done@plt>
  408504:	48 8d bc 24 20 2a 00 	lea    0x2a20(%rsp),%rdi
  40850b:	00 
  40850c:	48 c7 84 24 28 2a 00 	movq   $0x40ce80,0x2a28(%rsp)
  408513:	00 80 ce 40 00 
  408518:	c7 84 24 30 2a 00 00 	movl   $0x175,0x2a30(%rsp)
  40851f:	75 01 00 00 
  408523:	c7 84 24 8c 2b 00 00 	movl   $0x0,0x2b8c(%rsp)
  40852a:	00 00 00 00 
  40852e:	48 89 ac 24 40 2a 00 	mov    %rbp,0x2a40(%rsp)
  408535:	00 
  408536:	48 c7 84 24 50 2a 00 	movq   $0x40ca3d,0x2a50(%rsp)
  40853d:	00 3d ca 40 00 
  408542:	c7 84 24 4c 2a 00 00 	movl   $0xa,0x2a4c(%rsp)
  408549:	0a 00 00 00 
  40854d:	48 c7 84 24 58 2a 00 	movq   $0x40ca47,0x2a58(%rsp)
  408554:	00 47 ca 40 00 
  408559:	c7 84 24 60 2a 00 00 	movl   $0x3,0x2a60(%rsp)
  408560:	03 00 00 00 
  408564:	c7 84 24 20 2a 00 00 	movl   $0x320,0x2a20(%rsp)
  40856b:	20 03 00 00 
  40856f:	c7 84 24 24 2a 00 00 	movl   $0x2,0x2a24(%rsp)
  408576:	02 00 00 00 
  40857a:	e8 a1 a9 ff ff       	callq  402f20 <_gfortran_st_open@plt>
  40857f:	8b 8c 24 8c 2b 00 00 	mov    0x2b8c(%rsp),%ecx
  408586:	c7 05 28 bb 21 00 00 	movl   $0x0,0x21bb28(%rip)        # 6240b8 <dbg_+0x8>
  40858d:	00 00 00 
  408590:	85 c9                	test   %ecx,%ecx
  408592:	0f 84 78 0a 00 00    	je     409010 <setup_+0xf50>
  408598:	48 8d bc 24 40 29 00 	lea    0x2940(%rsp),%rdi
  40859f:	00 
  4085a0:	48 c7 84 24 48 29 00 	movq   $0x40ce80,0x2948(%rsp)
  4085a7:	00 80 ce 40 00 
  4085ac:	c7 84 24 50 29 00 00 	movl   $0x17c,0x2950(%rsp)
  4085b3:	7c 01 00 00 
  4085b7:	c7 84 24 8c 2b 00 00 	movl   $0x0,0x2b8c(%rsp)
  4085be:	00 00 00 00 
  4085c2:	48 89 ac 24 60 29 00 	mov    %rbp,0x2960(%rsp)
  4085c9:	00 
  4085ca:	48 c7 84 24 70 29 00 	movq   $0x40ca4a,0x2970(%rsp)
  4085d1:	00 4a ca 40 00 
  4085d6:	c7 84 24 6c 29 00 00 	movl   $0xc,0x296c(%rsp)
  4085dd:	0c 00 00 00 
  4085e1:	48 c7 84 24 78 29 00 	movq   $0x40ca47,0x2978(%rsp)
  4085e8:	00 47 ca 40 00 
  4085ed:	c7 84 24 80 29 00 00 	movl   $0x3,0x2980(%rsp)
  4085f4:	03 00 00 00 
  4085f8:	c7 84 24 40 29 00 00 	movl   $0x320,0x2940(%rsp)
  4085ff:	20 03 00 00 
  408603:	c7 84 24 44 29 00 00 	movl   $0x2,0x2944(%rsp)
  40860a:	02 00 00 00 
  40860e:	e8 0d a9 ff ff       	callq  402f20 <_gfortran_st_open@plt>
  408613:	8b 94 24 8c 2b 00 00 	mov    0x2b8c(%rsp),%edx
  40861a:	85 d2                	test   %edx,%edx
  40861c:	0f 84 be 03 00 00    	je     4089e0 <setup_+0x920>
  408622:	48 8d ac 24 a0 14 00 	lea    0x14a0(%rsp),%rbp
  408629:	00 
  40862a:	48 c7 84 24 a8 14 00 	movq   $0x40ce80,0x14a8(%rsp)
  408631:	00 80 ce 40 00 
  408636:	c7 84 24 b0 14 00 00 	movl   $0x1b9,0x14b0(%rsp)
  40863d:	b9 01 00 00 
  408641:	48 c7 84 24 e8 14 00 	movq   $0x40cb98,0x14e8(%rsp)
  408648:	00 98 cb 40 00 
  40864d:	c7 84 24 f0 14 00 00 	movl   $0x38,0x14f0(%rsp)
  408654:	38 00 00 00 
  408658:	48 89 ef             	mov    %rbp,%rdi
  40865b:	c7 84 24 a0 14 00 00 	movl   $0x1000,0x14a0(%rsp)
  408662:	00 10 00 00 
  408666:	c7 84 24 a4 14 00 00 	movl   $0x6,0x14a4(%rsp)
  40866d:	06 00 00 00 
  408671:	e8 4a a7 ff ff       	callq  402dc0 <_gfortran_st_write@plt>
  408676:	48 89 ef             	mov    %rbp,%rdi
  408679:	e8 92 a8 ff ff       	callq  402f10 <_gfortran_st_write_done@plt>
  40867e:	8b 05 08 bb 21 00    	mov    0x21bb08(%rip),%eax        # 62418c <procgrid_+0xc>
  408684:	c7 05 62 c0 2f 00 06 	movl   $0x6,0x2fc062(%rip)        # 7046f0 <iter_>
  40868b:	00 00 00 
  40868e:	83 f8 01             	cmp    $0x1,%eax
  408691:	0f 84 89 0c 00 00    	je     409320 <setup_+0x1260>
  408697:	83 f8 40             	cmp    $0x40,%eax
  40869a:	0f 8f b8 0b 00 00    	jg     409258 <setup_+0x1198>
  4086a0:	c7 05 d6 ba 21 00 01 	movl   $0x1,0x21bad6(%rip)        # 624180 <procgrid_>
  4086a7:	00 00 00 
  4086aa:	89 05 d4 ba 21 00    	mov    %eax,0x21bad4(%rip)        # 624184 <procgrid_+0x4>
  4086b0:	c7 05 ce ba 21 00 01 	movl   $0x1,0x21bace(%rip)        # 624188 <procgrid_+0x8>
  4086b7:	00 00 00 
  4086ba:	66 0f 1f 44 00 00    	nopw   0x0(%rax,%rax,1)
  4086c0:	83 3d c5 ba 21 00 0f 	cmpl   $0xf,0x21bac5(%rip)        # 62418c <procgrid_+0xc>
  4086c7:	0f 8e 93 09 00 00    	jle    409060 <setup_+0xfa0>
  4086cd:	48 8d ac 24 00 0f 00 	lea    0xf00(%rsp),%rbp
  4086d4:	00 
  4086d5:	48 c7 84 24 08 0f 00 	movq   $0x40ce80,0xf08(%rsp)
  4086dc:	00 80 ce 40 00 
  4086e1:	c7 84 24 10 0f 00 00 	movl   $0x1d3,0xf10(%rsp)
  4086e8:	d3 01 00 00 
  4086ec:	48 c7 84 24 48 0f 00 	movq   $0x40cc30,0xf48(%rsp)
  4086f3:	00 30 cc 40 00 
  4086f8:	c7 84 24 50 0f 00 00 	movl   $0x31,0xf50(%rsp)
  4086ff:	31 00 00 00 
  408703:	48 89 ef             	mov    %rbp,%rdi
  408706:	c7 84 24 00 0f 00 00 	movl   $0x1000,0xf00(%rsp)
  40870d:	00 10 00 00 
  408711:	c7 84 24 04 0f 00 00 	movl   $0x6,0xf04(%rsp)
  408718:	06 00 00 00 
  40871c:	e8 9f a6 ff ff       	callq  402dc0 <_gfortran_st_write@plt>
  408721:	48 89 ef             	mov    %rbp,%rdi
  408724:	ba 04 00 00 00       	mov    $0x4,%edx
  408729:	be 64 cc 40 00       	mov    $0x40cc64,%esi
  40872e:	e8 4d a6 ff ff       	callq  402d80 <_gfortran_transfer_integer@plt>
  408733:	48 89 ef             	mov    %rbp,%rdi
  408736:	ba 04 00 00 00       	mov    $0x4,%edx
  40873b:	be 64 cc 40 00       	mov    $0x40cc64,%esi
  408740:	e8 3b a6 ff ff       	callq  402d80 <_gfortran_transfer_integer@plt>
  408745:	ba 04 00 00 00       	mov    $0x4,%edx
  40874a:	be 64 cc 40 00       	mov    $0x40cc64,%esi
  40874f:	48 89 ef             	mov    %rbp,%rdi
  408752:	e8 29 a6 ff ff       	callq  402d80 <_gfortran_transfer_integer@plt>
  408757:	48 89 ef             	mov    %rbp,%rdi
  40875a:	48 8d ac 24 20 0d 00 	lea    0xd20(%rsp),%rbp
  408761:	00 
  408762:	e8 a9 a7 ff ff       	callq  402f10 <_gfortran_st_write_done@plt>
  408767:	48 89 ef             	mov    %rbp,%rdi
  40876a:	48 c7 84 24 28 0d 00 	movq   $0x40ce80,0xd28(%rsp)
  408771:	00 80 ce 40 00 
  408776:	c7 84 24 30 0d 00 00 	movl   $0x1d4,0xd30(%rsp)
  40877d:	d4 01 00 00 
  408781:	48 c7 84 24 68 0d 00 	movq   $0x40cc68,0xd68(%rsp)
  408788:	00 68 cc 40 00 
  40878d:	c7 84 24 70 0d 00 00 	movl   $0x23,0xd70(%rsp)
  408794:	23 00 00 00 
  408798:	c7 84 24 20 0d 00 00 	movl   $0x1000,0xd20(%rsp)
  40879f:	00 10 00 00 
  4087a3:	c7 84 24 24 0d 00 00 	movl   $0x6,0xd24(%rsp)
  4087aa:	06 00 00 00 
  4087ae:	e8 0d a6 ff ff       	callq  402dc0 <_gfortran_st_write@plt>
  4087b3:	ba 04 00 00 00       	mov    $0x4,%edx
  4087b8:	be f0 46 70 00       	mov    $0x7046f0,%esi
  4087bd:	48 89 ef             	mov    %rbp,%rdi
  4087c0:	e8 bb a5 ff ff       	callq  402d80 <_gfortran_transfer_integer@plt>
  4087c5:	48 89 ef             	mov    %rbp,%rdi
  4087c8:	48 8d ac 24 40 0b 00 	lea    0xb40(%rsp),%rbp
  4087cf:	00 
  4087d0:	e8 3b a7 ff ff       	callq  402f10 <_gfortran_st_write_done@plt>
  4087d5:	48 89 ef             	mov    %rbp,%rdi
  4087d8:	48 c7 84 24 48 0b 00 	movq   $0x40ce80,0xb48(%rsp)
  4087df:	00 80 ce 40 00 
  4087e4:	c7 84 24 50 0b 00 00 	movl   $0x1d5,0xb50(%rsp)
  4087eb:	d5 01 00 00 
  4087ef:	48 c7 84 24 88 0b 00 	movq   $0x40cc90,0xb88(%rsp)
  4087f6:	00 90 cc 40 00 
  4087fb:	c7 84 24 90 0b 00 00 	movl   $0x23,0xb90(%rsp)
  408802:	23 00 00 00 
  408806:	c7 84 24 40 0b 00 00 	movl   $0x1000,0xb40(%rsp)
  40880d:	00 10 00 00 
  408811:	c7 84 24 44 0b 00 00 	movl   $0x6,0xb44(%rsp)
  408818:	06 00 00 00 
  40881c:	e8 9f a5 ff ff       	callq  402dc0 <_gfortran_st_write@plt>
  408821:	ba 04 00 00 00       	mov    $0x4,%edx
  408826:	be 8c 41 62 00       	mov    $0x62418c,%esi
  40882b:	48 89 ef             	mov    %rbp,%rdi
  40882e:	e8 4d a5 ff ff       	callq  402d80 <_gfortran_transfer_integer@plt>
  408833:	48 89 ef             	mov    %rbp,%rdi
  408836:	48 8d ac 24 60 09 00 	lea    0x960(%rsp),%rbp
  40883d:	00 
  40883e:	e8 cd a6 ff ff       	callq  402f10 <_gfortran_st_write_done@plt>
  408843:	48 89 ef             	mov    %rbp,%rdi
  408846:	48 c7 84 24 68 09 00 	movq   $0x40ce80,0x968(%rsp)
  40884d:	00 80 ce 40 00 
  408852:	c7 84 24 70 09 00 00 	movl   $0x1d6,0x970(%rsp)
  408859:	d6 01 00 00 
  40885d:	48 c7 84 24 a8 09 00 	movq   $0x40ccb8,0x9a8(%rsp)
  408864:	00 b8 cc 40 00 
  408869:	c7 84 24 b0 09 00 00 	movl   $0x2c,0x9b0(%rsp)
  408870:	2c 00 00 00 
  408874:	c7 84 24 60 09 00 00 	movl   $0x1000,0x960(%rsp)
  40887b:	00 10 00 00 
  40887f:	c7 84 24 64 09 00 00 	movl   $0x6,0x964(%rsp)
  408886:	06 00 00 00 
  40888a:	e8 31 a5 ff ff       	callq  402dc0 <_gfortran_st_write@plt>
  40888f:	ba 04 00 00 00       	mov    $0x4,%edx
  408894:	be 80 41 62 00       	mov    $0x624180,%esi
  408899:	48 89 ef             	mov    %rbp,%rdi
  40889c:	e8 df a4 ff ff       	callq  402d80 <_gfortran_transfer_integer@plt>
  4088a1:	ba 04 00 00 00       	mov    $0x4,%edx
  4088a6:	be 84 41 62 00       	mov    $0x624184,%esi
  4088ab:	48 89 ef             	mov    %rbp,%rdi
  4088ae:	e8 cd a4 ff ff       	callq  402d80 <_gfortran_transfer_integer@plt>
  4088b3:	48 89 ef             	mov    %rbp,%rdi
  4088b6:	e8 55 a6 ff ff       	callq  402f10 <_gfortran_st_write_done@plt>
  4088bb:	83 3d ca b8 21 00 10 	cmpl   $0x10,0x21b8ca(%rip)        # 62418c <procgrid_+0xc>
  4088c2:	74 6e                	je     408932 <setup_+0x872>
  4088c4:	48 8d ac 24 80 07 00 	lea    0x780(%rsp),%rbp
  4088cb:	00 
  4088cc:	48 c7 84 24 88 07 00 	movq   $0x40ce80,0x788(%rsp)
  4088d3:	00 80 ce 40 00 
  4088d8:	c7 84 24 90 07 00 00 	movl   $0x1d7,0x790(%rsp)
  4088df:	d7 01 00 00 
  4088e3:	48 c7 84 24 c8 07 00 	movq   $0x40cce8,0x7c8(%rsp)
  4088ea:	00 e8 cc 40 00 
  4088ef:	c7 84 24 d0 07 00 00 	movl   $0x58,0x7d0(%rsp)
  4088f6:	58 00 00 00 
  4088fa:	48 89 ef             	mov    %rbp,%rdi
  4088fd:	c7 84 24 80 07 00 00 	movl   $0x1000,0x780(%rsp)
  408904:	00 10 00 00 
  408908:	c7 84 24 84 07 00 00 	movl   $0x6,0x784(%rsp)
  40890f:	06 00 00 00 
  408913:	e8 a8 a4 ff ff       	callq  402dc0 <_gfortran_st_write@plt>
  408918:	48 89 ef             	mov    %rbp,%rdi
  40891b:	ba 04 00 00 00       	mov    $0x4,%edx
  408920:	be 00 cc 40 00       	mov    $0x40cc00,%esi
  408925:	e8 56 a4 ff ff       	callq  402d80 <_gfortran_transfer_integer@plt>
  40892a:	48 89 ef             	mov    %rbp,%rdi
  40892d:	e8 de a5 ff ff       	callq  402f10 <_gfortran_st_write_done@plt>
  408932:	8b 05 50 b8 21 00    	mov    0x21b850(%rip),%eax        # 624188 <procgrid_+0x8>
  408938:	85 c0                	test   %eax,%eax
  40893a:	0f 84 18 08 00 00    	je     409158 <setup_+0x1098>
  408940:	83 f8 01             	cmp    $0x1,%eax
  408943:	0f 84 97 08 00 00    	je     4091e0 <setup_+0x1120>
  408949:	48 8d ac 24 e0 01 00 	lea    0x1e0(%rsp),%rbp
  408950:	00 
  408951:	48 c7 84 24 e8 01 00 	movq   $0x40ce80,0x1e8(%rsp)
  408958:	00 80 ce 40 00 
  40895d:	c7 84 24 f0 01 00 00 	movl   $0x1de,0x1f0(%rsp)
  408964:	de 01 00 00 
  408968:	48 c7 84 24 28 02 00 	movq   $0x40cd40,0x228(%rsp)
  40896f:	00 40 cd 40 00 
  408974:	c7 84 24 30 02 00 00 	movl   $0x23,0x230(%rsp)
  40897b:	23 00 00 00 
  40897f:	48 89 ef             	mov    %rbp,%rdi
  408982:	c7 84 24 e0 01 00 00 	movl   $0x1000,0x1e0(%rsp)
  408989:	00 10 00 00 
  40898d:	c7 84 24 e4 01 00 00 	movl   $0x6,0x1e4(%rsp)
  408994:	06 00 00 00 
  408998:	e8 23 a4 ff ff       	callq  402dc0 <_gfortran_st_write@plt>
  40899d:	48 89 ef             	mov    %rbp,%rdi
  4089a0:	ba 02 00 00 00       	mov    $0x2,%edx
  4089a5:	be 67 cd 40 00       	mov    $0x40cd67,%esi
  4089aa:	e8 51 a5 ff ff       	callq  402f00 <_gfortran_transfer_character@plt>
  4089af:	48 89 ef             	mov    %rbp,%rdi
  4089b2:	e8 59 a5 ff ff       	callq  402f10 <_gfortran_st_write_done@plt>
  4089b7:	e9 5f f7 ff ff       	jmpq   40811b <setup_+0x5b>
  4089bc:	0f 1f 40 00          	nopl   0x0(%rax)
  4089c0:	83 3d bd b7 21 00 01 	cmpl   $0x1,0x21b7bd(%rip)        # 624184 <procgrid_+0x4>
  4089c7:	0f 84 03 08 00 00    	je     4091d0 <setup_+0x1110>
  4089cd:	c7 05 b1 b7 21 00 01 	movl   $0x1,0x21b7b1(%rip)        # 624188 <procgrid_+0x8>
  4089d4:	00 00 00 
  4089d7:	e9 00 f8 ff ff       	jmpq   4081dc <setup_+0x11c>
  4089dc:	0f 1f 40 00          	nopl   0x0(%rax)
  4089e0:	48 8d ac 24 80 25 00 	lea    0x2580(%rsp),%rbp
  4089e7:	00 
  4089e8:	48 c7 84 24 88 25 00 	movq   $0x40ce80,0x2588(%rsp)
  4089ef:	00 80 ce 40 00 
  4089f4:	c7 84 24 90 25 00 00 	movl   $0x17f,0x2590(%rsp)
  4089fb:	7f 01 00 00 
  4089ff:	48 c7 84 24 c8 25 00 	movq   $0x40ca58,0x25c8(%rsp)
  408a06:	00 58 ca 40 00 
  408a0b:	c7 84 24 d0 25 00 00 	movl   $0x29,0x25d0(%rsp)
  408a12:	29 00 00 00 
  408a16:	48 89 ef             	mov    %rbp,%rdi
  408a19:	c7 84 24 80 25 00 00 	movl   $0x1000,0x2580(%rsp)
  408a20:	00 10 00 00 
  408a24:	c7 84 24 84 25 00 00 	movl   $0x6,0x2584(%rsp)
  408a2b:	06 00 00 00 
  408a2f:	e8 8c a3 ff ff       	callq  402dc0 <_gfortran_st_write@plt>
  408a34:	48 89 ef             	mov    %rbp,%rdi
  408a37:	48 8d ac 24 a0 23 00 	lea    0x23a0(%rsp),%rbp
  408a3e:	00 
  408a3f:	e8 cc a4 ff ff       	callq  402f10 <_gfortran_st_write_done@plt>
  408a44:	48 89 ef             	mov    %rbp,%rdi
  408a47:	48 c7 84 24 a8 23 00 	movq   $0x40ce80,0x23a8(%rsp)
  408a4e:	00 80 ce 40 00 
  408a53:	c7 84 24 b0 23 00 00 	movl   $0x181,0x23b0(%rsp)
  408a5a:	81 01 00 00 
  408a5e:	c7 84 24 a0 23 00 00 	movl   $0x80,0x23a0(%rsp)
  408a65:	80 00 00 00 
  408a69:	c7 84 24 a4 23 00 00 	movl   $0x2,0x23a4(%rsp)
  408a70:	02 00 00 00 
  408a74:	e8 f7 a3 ff ff       	callq  402e70 <_gfortran_st_read@plt>
  408a79:	ba 04 00 00 00       	mov    $0x4,%edx
  408a7e:	be f0 46 70 00       	mov    $0x7046f0,%esi
  408a83:	48 89 ef             	mov    %rbp,%rdi
  408a86:	e8 f5 a2 ff ff       	callq  402d80 <_gfortran_transfer_integer@plt>
  408a8b:	48 89 ef             	mov    %rbp,%rdi
  408a8e:	48 8d ac 24 c0 21 00 	lea    0x21c0(%rsp),%rbp
  408a95:	00 
  408a96:	e8 f5 a2 ff ff       	callq  402d90 <_gfortran_st_read_done@plt>
  408a9b:	48 89 ef             	mov    %rbp,%rdi
  408a9e:	48 c7 84 24 c8 21 00 	movq   $0x40ce80,0x21c8(%rsp)
  408aa5:	00 80 ce 40 00 
  408aaa:	c7 84 24 d0 21 00 00 	movl   $0x182,0x21d0(%rsp)
  408ab1:	82 01 00 00 
  408ab5:	c7 84 24 c0 21 00 00 	movl   $0x80,0x21c0(%rsp)
  408abc:	80 00 00 00 
  408ac0:	c7 84 24 c4 21 00 00 	movl   $0x2,0x21c4(%rsp)
  408ac7:	02 00 00 00 
  408acb:	e8 a0 a3 ff ff       	callq  402e70 <_gfortran_st_read@plt>
  408ad0:	ba 04 00 00 00       	mov    $0x4,%edx
  408ad5:	be 88 41 62 00       	mov    $0x624188,%esi
  408ada:	48 89 ef             	mov    %rbp,%rdi
  408add:	e8 9e a2 ff ff       	callq  402d80 <_gfortran_transfer_integer@plt>
  408ae2:	48 89 ef             	mov    %rbp,%rdi
  408ae5:	48 8d ac 24 e0 1f 00 	lea    0x1fe0(%rsp),%rbp
  408aec:	00 
  408aed:	e8 9e a2 ff ff       	callq  402d90 <_gfortran_st_read_done@plt>
  408af2:	48 89 ef             	mov    %rbp,%rdi
  408af5:	48 c7 84 24 e8 1f 00 	movq   $0x40ce80,0x1fe8(%rsp)
  408afc:	00 80 ce 40 00 
  408b01:	c7 84 24 f0 1f 00 00 	movl   $0x183,0x1ff0(%rsp)
  408b08:	83 01 00 00 
  408b0c:	c7 84 24 e0 1f 00 00 	movl   $0x80,0x1fe0(%rsp)
  408b13:	80 00 00 00 
  408b17:	c7 84 24 e4 1f 00 00 	movl   $0x2,0x1fe4(%rsp)
  408b1e:	02 00 00 00 
  408b22:	e8 49 a3 ff ff       	callq  402e70 <_gfortran_st_read@plt>
  408b27:	ba 04 00 00 00       	mov    $0x4,%edx
  408b2c:	be 80 41 62 00       	mov    $0x624180,%esi
  408b31:	48 89 ef             	mov    %rbp,%rdi
  408b34:	e8 47 a2 ff ff       	callq  402d80 <_gfortran_transfer_integer@plt>
  408b39:	ba 04 00 00 00       	mov    $0x4,%edx
  408b3e:	be 84 41 62 00       	mov    $0x624184,%esi
  408b43:	48 89 ef             	mov    %rbp,%rdi
  408b46:	e8 35 a2 ff ff       	callq  402d80 <_gfortran_transfer_integer@plt>
  408b4b:	48 89 ef             	mov    %rbp,%rdi
  408b4e:	e8 3d a2 ff ff       	callq  402d90 <_gfortran_st_read_done@plt>
  408b53:	48 8d bc 24 00 2b 00 	lea    0x2b00(%rsp),%rdi
  408b5a:	00 
  408b5b:	48 c7 84 24 08 2b 00 	movq   $0x40ce80,0x2b08(%rsp)
  408b62:	00 80 ce 40 00 
  408b67:	c7 84 24 10 2b 00 00 	movl   $0x184,0x2b10(%rsp)
  408b6e:	84 01 00 00 
  408b72:	c7 84 24 00 2b 00 00 	movl   $0x0,0x2b00(%rsp)
  408b79:	00 00 00 00 
  408b7d:	c7 84 24 04 2b 00 00 	movl   $0x2,0x2b04(%rsp)
  408b84:	02 00 00 00 
  408b88:	e8 b3 a2 ff ff       	callq  402e40 <_gfortran_st_close@plt>
  408b8d:	8b 05 f1 b5 21 00    	mov    0x21b5f1(%rip),%eax        # 624184 <procgrid_+0x4>
  408b93:	0f af 05 e6 b5 21 00 	imul   0x21b5e6(%rip),%eax        # 624180 <procgrid_>
  408b9a:	3b 05 ec b5 21 00    	cmp    0x21b5ec(%rip),%eax        # 62418c <procgrid_+0xc>
  408ba0:	0f 84 07 01 00 00    	je     408cad <setup_+0xbed>
  408ba6:	48 8d ac 24 00 1e 00 	lea    0x1e00(%rsp),%rbp
  408bad:	00 
  408bae:	48 c7 84 24 08 1e 00 	movq   $0x40ce80,0x1e08(%rsp)
  408bb5:	00 80 ce 40 00 
  408bba:	c7 84 24 10 1e 00 00 	movl   $0x190,0x1e10(%rsp)
  408bc1:	90 01 00 00 
  408bc5:	48 c7 84 24 48 1e 00 	movq   $0x40ca88,0x1e48(%rsp)
  408bcc:	00 88 ca 40 00 
  408bd1:	c7 84 24 50 1e 00 00 	movl   $0x33,0x1e50(%rsp)
  408bd8:	33 00 00 00 
  408bdc:	48 89 ef             	mov    %rbp,%rdi
  408bdf:	c7 84 24 00 1e 00 00 	movl   $0x1000,0x1e00(%rsp)
  408be6:	00 10 00 00 
  408bea:	c7 84 24 04 1e 00 00 	movl   $0x6,0x1e04(%rsp)
  408bf1:	06 00 00 00 
  408bf5:	e8 c6 a1 ff ff       	callq  402dc0 <_gfortran_st_write@plt>
  408bfa:	48 89 ef             	mov    %rbp,%rdi
  408bfd:	48 8d ac 24 20 1c 00 	lea    0x1c20(%rsp),%rbp
  408c04:	00 
  408c05:	e8 06 a3 ff ff       	callq  402f10 <_gfortran_st_write_done@plt>
  408c0a:	48 89 ef             	mov    %rbp,%rdi
  408c0d:	48 c7 84 24 28 1c 00 	movq   $0x40ce80,0x1c28(%rsp)
  408c14:	00 80 ce 40 00 
  408c19:	c7 84 24 30 1c 00 00 	movl   $0x192,0x1c30(%rsp)
  408c20:	92 01 00 00 
  408c24:	48 c7 84 24 68 1c 00 	movq   $0x40cac0,0x1c68(%rsp)
  408c2b:	00 c0 ca 40 00 
  408c30:	c7 84 24 70 1c 00 00 	movl   $0x2b,0x1c70(%rsp)
  408c37:	2b 00 00 00 
  408c3b:	c7 84 24 20 1c 00 00 	movl   $0x1000,0x1c20(%rsp)
  408c42:	00 10 00 00 
  408c46:	c7 84 24 24 1c 00 00 	movl   $0x6,0x1c24(%rsp)
  408c4d:	06 00 00 00 
  408c51:	e8 6a a1 ff ff       	callq  402dc0 <_gfortran_st_write@plt>
  408c56:	8b 05 28 b5 21 00    	mov    0x21b528(%rip),%eax        # 624184 <procgrid_+0x4>
  408c5c:	48 8d b4 24 84 2b 00 	lea    0x2b84(%rsp),%rsi
  408c63:	00 
  408c64:	ba 04 00 00 00       	mov    $0x4,%edx
  408c69:	0f af 05 10 b5 21 00 	imul   0x21b510(%rip),%eax        # 624180 <procgrid_>
  408c70:	48 89 ef             	mov    %rbp,%rdi
  408c73:	89 84 24 84 2b 00 00 	mov    %eax,0x2b84(%rsp)
  408c7a:	e8 01 a1 ff ff       	callq  402d80 <_gfortran_transfer_integer@plt>
  408c7f:	ba 04 00 00 00       	mov    $0x4,%edx
  408c84:	be 8c 41 62 00       	mov    $0x62418c,%esi
  408c89:	48 89 ef             	mov    %rbp,%rdi
  408c8c:	e8 ef a0 ff ff       	callq  402d80 <_gfortran_transfer_integer@plt>
  408c91:	48 89 ef             	mov    %rbp,%rdi
  408c94:	e8 77 a2 ff ff       	callq  402f10 <_gfortran_st_write_done@plt>
  408c99:	48 89 da             	mov    %rbx,%rdx
  408c9c:	be 98 c8 40 00       	mov    $0x40c898,%esi
  408ca1:	bf 60 c7 40 00       	mov    $0x40c760,%edi
  408ca6:	31 c0                	xor    %eax,%eax
  408ca8:	e8 e3 9f ff ff       	callq  402c90 <mpi_abort_@plt>
  408cad:	8b 05 d5 b4 21 00    	mov    0x21b4d5(%rip),%eax        # 624188 <procgrid_+0x8>
  408cb3:	83 f8 02             	cmp    $0x2,%eax
  408cb6:	0f 87 e4 05 00 00    	ja     4092a0 <setup_+0x11e0>
  408cbc:	85 c0                	test   %eax,%eax
  408cbe:	0f 85 83 00 00 00    	jne    408d47 <setup_+0xc87>
  408cc4:	83 3d b5 b4 21 00 01 	cmpl   $0x1,0x21b4b5(%rip)        # 624180 <procgrid_>
  408ccb:	0f 84 b7 05 00 00    	je     409288 <setup_+0x11c8>
  408cd1:	48 8d ac 24 60 18 00 	lea    0x1860(%rsp),%rbp
  408cd8:	00 
  408cd9:	48 c7 84 24 68 18 00 	movq   $0x40ce80,0x1868(%rsp)
  408ce0:	00 80 ce 40 00 
  408ce5:	c7 84 24 70 18 00 00 	movl   $0x1aa,0x1870(%rsp)
  408cec:	aa 01 00 00 
  408cf0:	48 c7 84 24 a8 18 00 	movq   $0x40cb40,0x18a8(%rsp)
  408cf7:	00 40 cb 40 00 
  408cfc:	c7 84 24 b0 18 00 00 	movl   $0x2f,0x18b0(%rsp)
  408d03:	2f 00 00 00 
  408d07:	48 89 ef             	mov    %rbp,%rdi
  408d0a:	c7 84 24 60 18 00 00 	movl   $0x1000,0x1860(%rsp)
  408d11:	00 10 00 00 
  408d15:	c7 84 24 64 18 00 00 	movl   $0x6,0x1864(%rsp)
  408d1c:	06 00 00 00 
  408d20:	e8 9b a0 ff ff       	callq  402dc0 <_gfortran_st_write@plt>
  408d25:	48 89 ef             	mov    %rbp,%rdi
  408d28:	e8 e3 a1 ff ff       	callq  402f10 <_gfortran_st_write_done@plt>
  408d2d:	31 c0                	xor    %eax,%eax
  408d2f:	48 89 da             	mov    %rbx,%rdx
  408d32:	be 98 c8 40 00       	mov    $0x40c898,%esi
  408d37:	bf 60 c7 40 00       	mov    $0x40c760,%edi
  408d3c:	e8 4f 9f ff ff       	callq  402c90 <mpi_abort_@plt>
  408d41:	8b 05 41 b4 21 00    	mov    0x21b441(%rip),%eax        # 624188 <procgrid_+0x8>
  408d47:	83 f8 01             	cmp    $0x1,%eax
  408d4a:	0f 85 70 f9 ff ff    	jne    4086c0 <setup_+0x600>
  408d50:	83 3d 29 b4 21 00 01 	cmpl   $0x1,0x21b429(%rip)        # 624180 <procgrid_>
  408d57:	0f 84 63 f9 ff ff    	je     4086c0 <setup_+0x600>
  408d5d:	48 8d ac 24 80 16 00 	lea    0x1680(%rsp),%rbp
  408d64:	00 
  408d65:	48 c7 84 24 88 16 00 	movq   $0x40ce80,0x1688(%rsp)
  408d6c:	00 80 ce 40 00 
  408d71:	c7 84 24 90 16 00 00 	movl   $0x1b3,0x1690(%rsp)
  408d78:	b3 01 00 00 
  408d7c:	48 c7 84 24 c8 16 00 	movq   $0x40cb70,0x16c8(%rsp)
  408d83:	00 70 cb 40 00 
  408d88:	c7 84 24 d0 16 00 00 	movl   $0x22,0x16d0(%rsp)
  408d8f:	22 00 00 00 
  408d93:	48 89 ef             	mov    %rbp,%rdi
  408d96:	c7 84 24 80 16 00 00 	movl   $0x1000,0x1680(%rsp)
  408d9d:	00 10 00 00 
  408da1:	c7 84 24 84 16 00 00 	movl   $0x6,0x1684(%rsp)
  408da8:	06 00 00 00 
  408dac:	e8 0f a0 ff ff       	callq  402dc0 <_gfortran_st_write@plt>
  408db1:	48 89 ef             	mov    %rbp,%rdi
  408db4:	e8 57 a1 ff ff       	callq  402f10 <_gfortran_st_write_done@plt>
  408db9:	48 89 da             	mov    %rbx,%rdx
  408dbc:	be 98 c8 40 00       	mov    $0x40c898,%esi
  408dc1:	bf 60 c7 40 00       	mov    $0x40c760,%edi
  408dc6:	31 c0                	xor    %eax,%eax
  408dc8:	e8 c3 9e ff ff       	callq  402c90 <mpi_abort_@plt>
  408dcd:	e9 ee f8 ff ff       	jmpq   4086c0 <setup_+0x600>
  408dd2:	66 0f 1f 44 00 00    	nopw   0x0(%rax,%rax,1)
  408dd8:	8b 35 aa b2 21 00    	mov    0x21b2aa(%rip),%esi        # 624088 <coords_+0x8>
  408dde:	8b 0d a0 b3 21 00    	mov    0x21b3a0(%rip),%ecx        # 624184 <procgrid_+0x4>
  408de4:	c7 05 f6 b2 21 00 01 	movl   $0x1,0x21b2f6(%rip)        # 6240e4 <layout_+0x24>
  408deb:	00 00 00 
  408dee:	c7 05 10 b3 21 00 40 	movl   $0x40,0x21b310(%rip)        # 624108 <layout_+0x48>
  408df5:	00 00 00 
  408df8:	c7 05 ee b2 21 00 01 	movl   $0x1,0x21b2ee(%rip)        # 6240f0 <layout_+0x30>
  408dff:	00 00 00 
  408e02:	c7 05 08 b3 21 00 40 	movl   $0x40,0x21b308(%rip)        # 624114 <layout_+0x54>
  408e09:	00 00 00 
  408e0c:	89 f2                	mov    %esi,%edx
  408e0e:	c7 05 d0 b2 21 00 01 	movl   $0x1,0x21b2d0(%rip)        # 6240e8 <layout_+0x28>
  408e15:	00 00 00 
  408e18:	c7 05 ea b2 21 00 40 	movl   $0x40,0x21b2ea(%rip)        # 62410c <layout_+0x4c>
  408e1f:	00 00 00 
  408e22:	c1 e2 06             	shl    $0x6,%edx
  408e25:	c7 05 c5 b2 21 00 01 	movl   $0x1,0x21b2c5(%rip)        # 6240f4 <layout_+0x34>
  408e2c:	00 00 00 
  408e2f:	c7 05 df b2 21 00 40 	movl   $0x40,0x21b2df(%rip)        # 624118 <layout_+0x58>
  408e36:	00 00 00 
  408e39:	89 d0                	mov    %edx,%eax
  408e3b:	c1 fa 1f             	sar    $0x1f,%edx
  408e3e:	c7 05 a4 b2 21 00 01 	movl   $0x1,0x21b2a4(%rip)        # 6240ec <layout_+0x2c>
  408e45:	00 00 00 
  408e48:	f7 f9                	idiv   %ecx
  408e4a:	8d 56 01             	lea    0x1(%rsi),%edx
  408e4d:	c7 05 b9 b2 21 00 40 	movl   $0x40,0x21b2b9(%rip)        # 624110 <layout_+0x50>
  408e54:	00 00 00 
  408e57:	c7 05 a3 b2 21 00 01 	movl   $0x1,0x21b2a3(%rip)        # 624104 <layout_+0x44>
  408e5e:	00 00 00 
  408e61:	c7 05 bd b2 21 00 40 	movl   $0x40,0x21b2bd(%rip)        # 624128 <layout_+0x68>
  408e68:	00 00 00 
  408e6b:	c1 e2 06             	shl    $0x6,%edx
  408e6e:	8d 58 01             	lea    0x1(%rax),%ebx
  408e71:	89 d0                	mov    %edx,%eax
  408e73:	c1 fa 1f             	sar    $0x1f,%edx
  408e76:	f7 f9                	idiv   %ecx
  408e78:	89 1d 7e b2 21 00    	mov    %ebx,0x21b27e(%rip)        # 6240fc <layout_+0x3c>
  408e7e:	89 1d 7c b2 21 00    	mov    %ebx,0x21b27c(%rip)        # 624100 <layout_+0x40>
  408e84:	89 1d 6e b2 21 00    	mov    %ebx,0x21b26e(%rip)        # 6240f8 <layout_+0x38>
  408e8a:	89 05 90 b2 21 00    	mov    %eax,0x21b290(%rip)        # 624120 <layout_+0x60>
  408e90:	89 05 8e b2 21 00    	mov    %eax,0x21b28e(%rip)        # 624124 <layout_+0x64>
  408e96:	89 05 80 b2 21 00    	mov    %eax,0x21b280(%rip)        # 62411c <layout_+0x5c>
  408e9c:	e9 61 f5 ff ff       	jmpq   408402 <setup_+0x342>
  408ea1:	0f 1f 80 00 00 00 00 	nopl   0x0(%rax)
  408ea8:	8b 35 d6 b1 21 00    	mov    0x21b1d6(%rip),%esi        # 624084 <coords_+0x4>
  408eae:	8b 0d cc b2 21 00    	mov    0x21b2cc(%rip),%ecx        # 624180 <procgrid_>
  408eb4:	8b 2d ce b1 21 00    	mov    0x21b1ce(%rip),%ebp        # 624088 <coords_+0x8>
  408eba:	c7 05 20 b2 21 00 01 	movl   $0x1,0x21b220(%rip)        # 6240e4 <layout_+0x24>
  408ec1:	00 00 00 
  408ec4:	c7 05 3a b2 21 00 40 	movl   $0x40,0x21b23a(%rip)        # 624108 <layout_+0x48>
  408ecb:	00 00 00 
  408ece:	c7 05 1c b2 21 00 01 	movl   $0x1,0x21b21c(%rip)        # 6240f4 <layout_+0x34>
  408ed5:	00 00 00 
  408ed8:	89 f2                	mov    %esi,%edx
  408eda:	c7 05 34 b2 21 00 40 	movl   $0x40,0x21b234(%rip)        # 624118 <layout_+0x58>
  408ee1:	00 00 00 
  408ee4:	c7 05 16 b2 21 00 01 	movl   $0x1,0x21b216(%rip)        # 624104 <layout_+0x44>
  408eeb:	00 00 00 
  408eee:	c1 e2 06             	shl    $0x6,%edx
  408ef1:	c7 05 2d b2 21 00 40 	movl   $0x40,0x21b22d(%rip)        # 624128 <layout_+0x68>
  408ef8:	00 00 00 
  408efb:	c7 05 8b b1 21 00 10 	movl   $0x10,0x21b18b(%rip)        # 624090 <blockinfo_>
  408f02:	00 00 00 
  408f05:	89 d0                	mov    %edx,%eax
  408f07:	c1 fa 1f             	sar    $0x1f,%edx
  408f0a:	c7 05 80 b1 21 00 12 	movl   $0x12,0x21b180(%rip)        # 624094 <blockinfo_+0x4>
  408f11:	00 00 00 
  408f14:	f7 f9                	idiv   %ecx
  408f16:	8d 56 01             	lea    0x1(%rsi),%edx
  408f19:	c1 e2 06             	shl    $0x6,%edx
  408f1c:	8d 78 01             	lea    0x1(%rax),%edi
  408f1f:	89 d0                	mov    %edx,%eax
  408f21:	c1 fa 1f             	sar    $0x1f,%edx
  408f24:	f7 f9                	idiv   %ecx
  408f26:	8b 0d 58 b2 21 00    	mov    0x21b258(%rip),%ecx        # 624184 <procgrid_+0x4>
  408f2c:	89 ea                	mov    %ebp,%edx
  408f2e:	89 3d bc b1 21 00    	mov    %edi,0x21b1bc(%rip)        # 6240f0 <layout_+0x30>
  408f34:	c1 e2 06             	shl    $0x6,%edx
  408f37:	89 3d ab b1 21 00    	mov    %edi,0x21b1ab(%rip)        # 6240e8 <layout_+0x28>
  408f3d:	89 3d a9 b1 21 00    	mov    %edi,0x21b1a9(%rip)        # 6240ec <layout_+0x2c>
  408f43:	89 c6                	mov    %eax,%esi
  408f45:	89 05 c9 b1 21 00    	mov    %eax,0x21b1c9(%rip)        # 624114 <layout_+0x54>
  408f4b:	89 d0                	mov    %edx,%eax
  408f4d:	c1 fa 1f             	sar    $0x1f,%edx
  408f50:	89 35 b6 b1 21 00    	mov    %esi,0x21b1b6(%rip)        # 62410c <layout_+0x4c>
  408f56:	89 35 b4 b1 21 00    	mov    %esi,0x21b1b4(%rip)        # 624110 <layout_+0x50>
  408f5c:	f7 f9                	idiv   %ecx
  408f5e:	8d 55 01             	lea    0x1(%rbp),%edx
  408f61:	c1 e2 06             	shl    $0x6,%edx
  408f64:	8d 58 01             	lea    0x1(%rax),%ebx
  408f67:	89 d0                	mov    %edx,%eax
  408f69:	c1 fa 1f             	sar    $0x1f,%edx
  408f6c:	f7 f9                	idiv   %ecx
  408f6e:	89 1d 88 b1 21 00    	mov    %ebx,0x21b188(%rip)        # 6240fc <layout_+0x3c>
  408f74:	89 1d 86 b1 21 00    	mov    %ebx,0x21b186(%rip)        # 624100 <layout_+0x40>
  408f7a:	89 1d 78 b1 21 00    	mov    %ebx,0x21b178(%rip)        # 6240f8 <layout_+0x38>
  408f80:	89 05 9a b1 21 00    	mov    %eax,0x21b19a(%rip)        # 624120 <layout_+0x60>
  408f86:	89 05 98 b1 21 00    	mov    %eax,0x21b198(%rip)        # 624124 <layout_+0x64>
  408f8c:	89 05 8a b1 21 00    	mov    %eax,0x21b18a(%rip)        # 62411c <layout_+0x5c>
  408f92:	8b 05 2c b1 21 00    	mov    0x21b12c(%rip),%eax        # 6240c4 <layout_+0x4>
  408f98:	83 f8 0f             	cmp    $0xf,%eax
  408f9b:	7e 43                	jle    408fe0 <setup_+0xf20>
  408f9d:	8b 15 2d b1 21 00    	mov    0x21b12d(%rip),%edx        # 6240d0 <layout_+0x10>
  408fa3:	b8 10 00 00 00       	mov    $0x10,%eax
  408fa8:	39 d0                	cmp    %edx,%eax
  408faa:	7f 44                	jg     408ff0 <setup_+0xf30>
  408fac:	89 c2                	mov    %eax,%edx
  408fae:	8b 05 28 b1 21 00    	mov    0x21b128(%rip),%eax        # 6240dc <layout_+0x1c>
  408fb4:	39 c2                	cmp    %eax,%edx
  408fb6:	7f 48                	jg     409000 <setup_+0xf40>
  408fb8:	89 d0                	mov    %edx,%eax
  408fba:	83 f8 10             	cmp    $0x10,%eax
  408fbd:	0f 84 1f f4 ff ff    	je     4083e2 <setup_+0x322>
  408fc3:	83 c0 03             	add    $0x3,%eax
  408fc6:	89 05 c8 b0 21 00    	mov    %eax,0x21b0c8(%rip)        # 624094 <blockinfo_+0x4>
  408fcc:	48 81 c4 98 2b 00 00 	add    $0x2b98,%rsp
  408fd3:	5b                   	pop    %rbx
  408fd4:	5d                   	pop    %rbp
  408fd5:	c3                   	retq   
  408fd6:	66 2e 0f 1f 84 00 00 	nopw   %cs:0x0(%rax,%rax,1)
  408fdd:	00 00 00 
  408fe0:	8b 15 ea b0 21 00    	mov    0x21b0ea(%rip),%edx        # 6240d0 <layout_+0x10>
  408fe6:	89 05 a4 b0 21 00    	mov    %eax,0x21b0a4(%rip)        # 624090 <blockinfo_>
  408fec:	39 d0                	cmp    %edx,%eax
  408fee:	7e bc                	jle    408fac <setup_+0xeec>
  408ff0:	8b 05 e6 b0 21 00    	mov    0x21b0e6(%rip),%eax        # 6240dc <layout_+0x1c>
  408ff6:	89 15 94 b0 21 00    	mov    %edx,0x21b094(%rip)        # 624090 <blockinfo_>
  408ffc:	39 c2                	cmp    %eax,%edx
  408ffe:	7e b8                	jle    408fb8 <setup_+0xef8>
  409000:	89 05 8a b0 21 00    	mov    %eax,0x21b08a(%rip)        # 624090 <blockinfo_>
  409006:	eb b2                	jmp    408fba <setup_+0xefa>
  409008:	0f 1f 84 00 00 00 00 	nopl   0x0(%rax,%rax,1)
  40900f:	00 
  409010:	48 8d bc 24 40 2b 00 	lea    0x2b40(%rsp),%rdi
  409017:	00 
  409018:	48 c7 84 24 48 2b 00 	movq   $0x40ce80,0x2b48(%rsp)
  40901f:	00 80 ce 40 00 
  409024:	c7 84 24 50 2b 00 00 	movl   $0x179,0x2b50(%rsp)
  40902b:	79 01 00 00 
  40902f:	c7 84 24 40 2b 00 00 	movl   $0x0,0x2b40(%rsp)
  409036:	00 00 00 00 
  40903a:	c7 84 24 44 2b 00 00 	movl   $0x2,0x2b44(%rsp)
  409041:	02 00 00 00 
  409045:	c7 05 69 b0 21 00 01 	movl   $0x1,0x21b069(%rip)        # 6240b8 <dbg_+0x8>
  40904c:	00 00 00 
  40904f:	e8 ec 9d ff ff       	callq  402e40 <_gfortran_st_close@plt>
  409054:	e9 3f f5 ff ff       	jmpq   408598 <setup_+0x4d8>
  409059:	0f 1f 80 00 00 00 00 	nopl   0x0(%rax)
  409060:	48 8d ac 24 c0 12 00 	lea    0x12c0(%rsp),%rbp
  409067:	00 
  409068:	48 c7 84 24 c8 12 00 	movq   $0x40ce80,0x12c8(%rsp)
  40906f:	00 80 ce 40 00 
  409074:	c7 84 24 d0 12 00 00 	movl   $0x1cb,0x12d0(%rsp)
  40907b:	cb 01 00 00 
  40907f:	48 c7 84 24 08 13 00 	movq   $0x40cbd0,0x1308(%rsp)
  409086:	00 d0 cb 40 00 
  40908b:	c7 84 24 10 13 00 00 	movl   $0x2e,0x1310(%rsp)
  409092:	2e 00 00 00 
  409096:	48 89 ef             	mov    %rbp,%rdi
  409099:	c7 84 24 c0 12 00 00 	movl   $0x1000,0x12c0(%rsp)
  4090a0:	00 10 00 00 
  4090a4:	c7 84 24 c4 12 00 00 	movl   $0x6,0x12c4(%rsp)
  4090ab:	06 00 00 00 
  4090af:	e8 0c 9d ff ff       	callq  402dc0 <_gfortran_st_write@plt>
  4090b4:	ba 04 00 00 00       	mov    $0x4,%edx
  4090b9:	be 00 cc 40 00       	mov    $0x40cc00,%esi
  4090be:	48 89 ef             	mov    %rbp,%rdi
  4090c1:	e8 ba 9c ff ff       	callq  402d80 <_gfortran_transfer_integer@plt>
  4090c6:	48 89 ef             	mov    %rbp,%rdi
  4090c9:	48 8d ac 24 e0 10 00 	lea    0x10e0(%rsp),%rbp
  4090d0:	00 
  4090d1:	e8 3a 9e ff ff       	callq  402f10 <_gfortran_st_write_done@plt>
  4090d6:	48 89 ef             	mov    %rbp,%rdi
  4090d9:	48 c7 84 24 e8 10 00 	movq   $0x40ce80,0x10e8(%rsp)
  4090e0:	00 80 ce 40 00 
  4090e5:	c7 84 24 f0 10 00 00 	movl   $0x1cd,0x10f0(%rsp)
  4090ec:	cd 01 00 00 
  4090f0:	48 c7 84 24 28 11 00 	movq   $0x40cc08,0x1128(%rsp)
  4090f7:	00 08 cc 40 00 
  4090fc:	c7 84 24 30 11 00 00 	movl   $0x25,0x1130(%rsp)
  409103:	25 00 00 00 
  409107:	c7 84 24 e0 10 00 00 	movl   $0x1000,0x10e0(%rsp)
  40910e:	00 10 00 00 
  409112:	c7 84 24 e4 10 00 00 	movl   $0x6,0x10e4(%rsp)
  409119:	06 00 00 00 
  40911d:	e8 9e 9c ff ff       	callq  402dc0 <_gfortran_st_write@plt>
  409122:	ba 04 00 00 00       	mov    $0x4,%edx
  409127:	be 8c 41 62 00       	mov    $0x62418c,%esi
  40912c:	48 89 ef             	mov    %rbp,%rdi
  40912f:	e8 4c 9c ff ff       	callq  402d80 <_gfortran_transfer_integer@plt>
  409134:	48 89 ef             	mov    %rbp,%rdi
  409137:	e8 d4 9d ff ff       	callq  402f10 <_gfortran_st_write_done@plt>
  40913c:	48 89 da             	mov    %rbx,%rdx
  40913f:	be 98 c8 40 00       	mov    $0x40c898,%esi
  409144:	bf 60 c7 40 00       	mov    $0x40c760,%edi
  409149:	31 c0                	xor    %eax,%eax
  40914b:	e8 40 9b ff ff       	callq  402c90 <mpi_abort_@plt>
  409150:	e9 78 f5 ff ff       	jmpq   4086cd <setup_+0x60d>
  409155:	0f 1f 00             	nopl   (%rax)
  409158:	48 8d ac 24 a0 05 00 	lea    0x5a0(%rsp),%rbp
  40915f:	00 
  409160:	48 c7 84 24 a8 05 00 	movq   $0x40ce80,0x5a8(%rsp)
  409167:	00 80 ce 40 00 
  40916c:	c7 84 24 b0 05 00 00 	movl   $0x1da,0x5b0(%rsp)
  409173:	da 01 00 00 
  409177:	48 c7 84 24 e8 05 00 	movq   $0x40cd40,0x5e8(%rsp)
  40917e:	00 40 cd 40 00 
  409183:	c7 84 24 f0 05 00 00 	movl   $0x23,0x5f0(%rsp)
  40918a:	23 00 00 00 
  40918e:	48 89 ef             	mov    %rbp,%rdi
  409191:	c7 84 24 a0 05 00 00 	movl   $0x1000,0x5a0(%rsp)
  409198:	00 10 00 00 
  40919c:	c7 84 24 a4 05 00 00 	movl   $0x6,0x5a4(%rsp)
  4091a3:	06 00 00 00 
  4091a7:	e8 14 9c ff ff       	callq  402dc0 <_gfortran_st_write@plt>
  4091ac:	48 89 ef             	mov    %rbp,%rdi
  4091af:	ba 02 00 00 00       	mov    $0x2,%edx
  4091b4:	be 63 cd 40 00       	mov    $0x40cd63,%esi
  4091b9:	e8 42 9d ff ff       	callq  402f00 <_gfortran_transfer_character@plt>
  4091be:	48 89 ef             	mov    %rbp,%rdi
  4091c1:	e8 4a 9d ff ff       	callq  402f10 <_gfortran_st_write_done@plt>
  4091c6:	e9 50 ef ff ff       	jmpq   40811b <setup_+0x5b>
  4091cb:	0f 1f 44 00 00       	nopl   0x0(%rax,%rax,1)
  4091d0:	c7 05 ae af 21 00 00 	movl   $0x0,0x21afae(%rip)        # 624188 <procgrid_+0x8>
  4091d7:	00 00 00 
  4091da:	e9 fd ef ff ff       	jmpq   4081dc <setup_+0x11c>
  4091df:	90                   	nop
  4091e0:	48 8d ac 24 c0 03 00 	lea    0x3c0(%rsp),%rbp
  4091e7:	00 
  4091e8:	48 c7 84 24 c8 03 00 	movq   $0x40ce80,0x3c8(%rsp)
  4091ef:	00 80 ce 40 00 
  4091f4:	c7 84 24 d0 03 00 00 	movl   $0x1dc,0x3d0(%rsp)
  4091fb:	dc 01 00 00 
  4091ff:	48 c7 84 24 08 04 00 	movq   $0x40cd40,0x408(%rsp)
  409206:	00 40 cd 40 00 
  40920b:	c7 84 24 10 04 00 00 	movl   $0x23,0x410(%rsp)
  409212:	23 00 00 00 
  409216:	48 89 ef             	mov    %rbp,%rdi
  409219:	c7 84 24 c0 03 00 00 	movl   $0x1000,0x3c0(%rsp)
  409220:	00 10 00 00 
  409224:	c7 84 24 c4 03 00 00 	movl   $0x6,0x3c4(%rsp)
  40922b:	06 00 00 00 
  40922f:	e8 8c 9b ff ff       	callq  402dc0 <_gfortran_st_write@plt>
  409234:	48 89 ef             	mov    %rbp,%rdi
  409237:	ba 02 00 00 00       	mov    $0x2,%edx
  40923c:	be 65 cd 40 00       	mov    $0x40cd65,%esi
  409241:	e8 ba 9c ff ff       	callq  402f00 <_gfortran_transfer_character@plt>
  409246:	48 89 ef             	mov    %rbp,%rdi
  409249:	e8 c2 9c ff ff       	callq  402f10 <_gfortran_st_write_done@plt>
  40924e:	e9 c8 ee ff ff       	jmpq   40811b <setup_+0x5b>
  409253:	0f 1f 44 00 00       	nopl   0x0(%rax,%rax,1)
  409258:	8d 50 3f             	lea    0x3f(%rax),%edx
  40925b:	85 c0                	test   %eax,%eax
  40925d:	c7 05 19 af 21 00 40 	movl   $0x40,0x21af19(%rip)        # 624180 <procgrid_>
  409264:	00 00 00 
  409267:	c7 05 17 af 21 00 02 	movl   $0x2,0x21af17(%rip)        # 624188 <procgrid_+0x8>
  40926e:	00 00 00 
  409271:	0f 48 c2             	cmovs  %edx,%eax
  409274:	c1 f8 06             	sar    $0x6,%eax
  409277:	89 05 07 af 21 00    	mov    %eax,0x21af07(%rip)        # 624184 <procgrid_+0x4>
  40927d:	e9 3e f4 ff ff       	jmpq   4086c0 <setup_+0x600>
  409282:	66 0f 1f 44 00 00    	nopw   0x0(%rax,%rax,1)
  409288:	83 3d f5 ae 21 00 01 	cmpl   $0x1,0x21aef5(%rip)        # 624184 <procgrid_+0x4>
  40928f:	0f 85 3c fa ff ff    	jne    408cd1 <setup_+0xc11>
  409295:	e9 26 f4 ff ff       	jmpq   4086c0 <setup_+0x600>
  40929a:	66 0f 1f 44 00 00    	nopw   0x0(%rax,%rax,1)
  4092a0:	48 8d ac 24 40 1a 00 	lea    0x1a40(%rsp),%rbp
  4092a7:	00 
  4092a8:	48 c7 84 24 48 1a 00 	movq   $0x40ce80,0x1a48(%rsp)
  4092af:	00 80 ce 40 00 
  4092b4:	c7 84 24 50 1a 00 00 	movl   $0x19e,0x1a50(%rsp)
  4092bb:	9e 01 00 00 
  4092bf:	48 c7 84 24 88 1a 00 	movq   $0x40caf0,0x1a88(%rsp)
  4092c6:	00 f0 ca 40 00 
  4092cb:	c7 84 24 90 1a 00 00 	movl   $0x4f,0x1a90(%rsp)
  4092d2:	4f 00 00 00 
  4092d6:	48 89 ef             	mov    %rbp,%rdi
  4092d9:	c7 84 24 40 1a 00 00 	movl   $0x1000,0x1a40(%rsp)
  4092e0:	00 10 00 00 
  4092e4:	c7 84 24 44 1a 00 00 	movl   $0x6,0x1a44(%rsp)
  4092eb:	06 00 00 00 
  4092ef:	e8 cc 9a ff ff       	callq  402dc0 <_gfortran_st_write@plt>
  4092f4:	48 89 ef             	mov    %rbp,%rdi
  4092f7:	e8 14 9c ff ff       	callq  402f10 <_gfortran_st_write_done@plt>
  4092fc:	31 c0                	xor    %eax,%eax
  4092fe:	48 89 da             	mov    %rbx,%rdx
  409301:	be 98 c8 40 00       	mov    $0x40c898,%esi
  409306:	bf 60 c7 40 00       	mov    $0x40c760,%edi
  40930b:	e8 80 99 ff ff       	callq  402c90 <mpi_abort_@plt>
  409310:	8b 05 72 ae 21 00    	mov    0x21ae72(%rip),%eax        # 624188 <procgrid_+0x8>
  409316:	e9 a1 f9 ff ff       	jmpq   408cbc <setup_+0xbfc>
  40931b:	0f 1f 44 00 00       	nopl   0x0(%rax,%rax,1)
  409320:	c7 05 56 ae 21 00 01 	movl   $0x1,0x21ae56(%rip)        # 624180 <procgrid_>
  409327:	00 00 00 
  40932a:	c7 05 50 ae 21 00 01 	movl   $0x1,0x21ae50(%rip)        # 624184 <procgrid_+0x4>
  409331:	00 00 00 
  409334:	c7 05 4a ae 21 00 00 	movl   $0x0,0x21ae4a(%rip)        # 624188 <procgrid_+0x8>
  40933b:	00 00 00 
  40933e:	e9 7d f3 ff ff       	jmpq   4086c0 <setup_+0x600>
  409343:	66 66 66 66 2e 0f 1f 	data32 data32 data32 nopw %cs:0x0(%rax,%rax,1)
  40934a:	84 00 00 00 00 00 

0000000000409350 <ipow46_>:
  409350:	41 56                	push   %r14
  409352:	49 b8 00 00 00 00 00 	mov    $0x3ff0000000000000,%r8
  409359:	00 f0 3f 
  40935c:	49 89 ce             	mov    %rcx,%r14
  40935f:	41 55                	push   %r13
  409361:	41 54                	push   %r12
  409363:	55                   	push   %rbp
  409364:	53                   	push   %rbx
  409365:	48 89 d3             	mov    %rdx,%rbx
  409368:	48 83 ec 10          	sub    $0x10,%rsp
  40936c:	8b 2a                	mov    (%rdx),%ebp
  40936e:	4c 89 01             	mov    %r8,(%rcx)
  409371:	85 ed                	test   %ebp,%ebp
  409373:	0f 84 93 00 00 00    	je     40940c <ipow46_+0xbc>
  409379:	8b 06                	mov    (%rsi),%eax
  40937b:	85 c0                	test   %eax,%eax
  40937d:	0f 84 89 00 00 00    	je     40940c <ipow46_+0xbc>
  409383:	48 8b 17             	mov    (%rdi),%rdx
  409386:	4c 8d 64 24 08       	lea    0x8(%rsp),%r12
  40938b:	48 bf 00 00 00 00 00 	mov    $0x3ff0000000000000,%rdi
  409392:	00 f0 3f 
  409395:	48 89 3c 24          	mov    %rdi,(%rsp)
  409399:	48 89 54 24 08       	mov    %rdx,0x8(%rsp)
  40939e:	89 c5                	mov    %eax,%ebp
  4093a0:	c1 ed 1f             	shr    $0x1f,%ebp
  4093a3:	01 c5                	add    %eax,%ebp
  4093a5:	d1 fd                	sar    %ebp
  4093a7:	8d 54 2d 00          	lea    0x0(%rbp,%rbp,1),%edx
  4093ab:	39 c2                	cmp    %eax,%edx
  4093ad:	74 71                	je     409420 <ipow46_+0xd0>
  4093af:	0f af 03             	imul   (%rbx),%eax
  4093b2:	83 f8 01             	cmp    $0x1,%eax
  4093b5:	89 c3                	mov    %eax,%ebx
  4093b7:	7f 1c                	jg     4093d5 <ipow46_+0x85>
  4093b9:	eb 3d                	jmp    4093f8 <ipow46_+0xa8>
  4093bb:	0f 1f 44 00 00       	nopl   0x0(%rax,%rax,1)
  4093c0:	31 c0                	xor    %eax,%eax
  4093c2:	4c 89 e6             	mov    %r12,%rsi
  4093c5:	48 89 e7             	mov    %rsp,%rdi
  4093c8:	83 eb 01             	sub    $0x1,%ebx
  4093cb:	e8 c0 07 00 00       	callq  409b90 <randlc_>
  4093d0:	83 fb 01             	cmp    $0x1,%ebx
  4093d3:	7e 23                	jle    4093f8 <ipow46_+0xa8>
  4093d5:	89 dd                	mov    %ebx,%ebp
  4093d7:	d1 fd                	sar    %ebp
  4093d9:	8d 44 2d 00          	lea    0x0(%rbp,%rbp,1),%eax
  4093dd:	39 d8                	cmp    %ebx,%eax
  4093df:	75 df                	jne    4093c0 <ipow46_+0x70>
  4093e1:	31 c0                	xor    %eax,%eax
  4093e3:	4c 89 e6             	mov    %r12,%rsi
  4093e6:	4c 89 e7             	mov    %r12,%rdi
  4093e9:	89 eb                	mov    %ebp,%ebx
  4093eb:	e8 a0 07 00 00       	callq  409b90 <randlc_>
  4093f0:	83 fb 01             	cmp    $0x1,%ebx
  4093f3:	7f e0                	jg     4093d5 <ipow46_+0x85>
  4093f5:	0f 1f 00             	nopl   (%rax)
  4093f8:	31 c0                	xor    %eax,%eax
  4093fa:	4c 89 e6             	mov    %r12,%rsi
  4093fd:	48 89 e7             	mov    %rsp,%rdi
  409400:	e8 8b 07 00 00       	callq  409b90 <randlc_>
  409405:	48 8b 04 24          	mov    (%rsp),%rax
  409409:	49 89 06             	mov    %rax,(%r14)
  40940c:	48 83 c4 10          	add    $0x10,%rsp
  409410:	5b                   	pop    %rbx
  409411:	5d                   	pop    %rbp
  409412:	41 5c                	pop    %r12
  409414:	41 5d                	pop    %r13
  409416:	41 5e                	pop    %r14
  409418:	c3                   	retq   
  409419:	0f 1f 80 00 00 00 00 	nopl   0x0(%rax)
  409420:	31 c0                	xor    %eax,%eax
  409422:	4c 89 e6             	mov    %r12,%rsi
  409425:	4c 89 e7             	mov    %r12,%rdi
  409428:	e8 63 07 00 00       	callq  409b90 <randlc_>
  40942d:	89 e8                	mov    %ebp,%eax
  40942f:	e9 6a ff ff ff       	jmpq   40939e <ipow46_+0x4e>
  409434:	66 66 66 2e 0f 1f 84 	data32 data32 nopw %cs:0x0(%rax,%rax,1)
  40943b:	00 00 00 00 00 

0000000000409440 <compute_initial_conditions_>:
  409440:	41 57                	push   %r15
  409442:	49 b9 00 00 00 a1 b0 	mov    $0x41b2b9b0a1000000,%r9
  409449:	b9 b2 41 
  40944c:	41 56                	push   %r14
  40944e:	49 89 fe             	mov    %rdi,%r14
  409451:	bf 80 cd 40 00       	mov    $0x40cd80,%edi
  409456:	41 55                	push   %r13
  409458:	41 54                	push   %r12
  40945a:	55                   	push   %rbp
  40945b:	53                   	push   %rbx
  40945c:	48 83 ec 28          	sub    $0x28,%rsp
  409460:	8b 05 96 ac 21 00    	mov    0x21ac96(%rip),%eax        # 6240fc <layout_+0x3c>
  409466:	8b 2a                	mov    (%rdx),%ebp
  409468:	8b 15 82 ac 21 00    	mov    0x21ac82(%rip),%edx        # 6240f0 <layout_+0x30>
  40946e:	4c 8d 6c 24 10       	lea    0x10(%rsp),%r13
  409473:	8b 1e                	mov    (%rsi),%ebx
  409475:	be 78 cd 40 00       	mov    $0x40cd78,%esi
  40947a:	4c 89 4c 24 08       	mov    %r9,0x8(%rsp)
  40947f:	c1 e0 06             	shl    $0x6,%eax
  409482:	4c 89 e9             	mov    %r13,%rcx
  409485:	8d 44 10 bf          	lea    -0x41(%rax,%rdx,1),%eax
  409489:	48 8d 54 24 1c       	lea    0x1c(%rsp),%rdx
  40948e:	89 44 24 1c          	mov    %eax,0x1c(%rsp)
  409492:	31 c0                	xor    %eax,%eax
  409494:	e8 b7 fe ff ff       	callq  409350 <ipow46_>
  409499:	48 8d 7c 24 08       	lea    0x8(%rsp),%rdi
  40949e:	31 c0                	xor    %eax,%eax
  4094a0:	4c 89 ee             	mov    %r13,%rsi
  4094a3:	e8 e8 06 00 00       	callq  409b90 <randlc_>
  4094a8:	31 c0                	xor    %eax,%eax
  4094aa:	4c 89 e9             	mov    %r13,%rcx
  4094ad:	ba 64 cc 40 00       	mov    $0x40cc64,%edx
  4094b2:	be 78 cd 40 00       	mov    $0x40cd78,%esi
  4094b7:	bf 80 cd 40 00       	mov    $0x40cd80,%edi
  4094bc:	e8 8f fe ff ff       	callq  409350 <ipow46_>
  4094c1:	44 8b 25 00 ac 21 00 	mov    0x21ac00(%rip),%r12d        # 6240c8 <layout_+0x8>
  4094c8:	45 85 e4             	test   %r12d,%r12d
  4094cb:	0f 8e 7e 00 00 00    	jle    40954f <compute_initial_conditions_+0x10f>
  4094d1:	48 63 db             	movslq %ebx,%rbx
  4094d4:	45 31 ff             	xor    %r15d,%r15d
  4094d7:	48 63 ed             	movslq %ebp,%rbp
  4094da:	48 85 db             	test   %rbx,%rbx
  4094dd:	49 0f 48 df          	cmovs  %r15,%rbx
  4094e1:	48 0f af eb          	imul   %rbx,%rbp
  4094e5:	bb 01 00 00 00       	mov    $0x1,%ebx
  4094ea:	48 85 ed             	test   %rbp,%rbp
  4094ed:	4c 0f 49 fd          	cmovns %rbp,%r15
  4094f1:	31 ed                	xor    %ebp,%ebp
  4094f3:	eb 06                	jmp    4094fb <compute_initial_conditions_+0xbb>
  4094f5:	0f 1f 00             	nopl   (%rax)
  4094f8:	83 c3 01             	add    $0x1,%ebx
  4094fb:	48 8b 44 24 08       	mov    0x8(%rsp),%rax
  409500:	48 89 e9             	mov    %rbp,%rcx
  409503:	48 8d 7c 24 18       	lea    0x18(%rsp),%rdi
  409508:	48 c1 e1 04          	shl    $0x4,%rcx
  40950c:	ba 80 cd 40 00       	mov    $0x40cd80,%edx
  409511:	48 89 e6             	mov    %rsp,%rsi
  409514:	49 8d 0c 0e          	lea    (%r14,%rcx,1),%rcx
  409518:	48 89 04 24          	mov    %rax,(%rsp)
  40951c:	8b 05 a2 ab 21 00    	mov    0x21aba2(%rip),%eax        # 6240c4 <layout_+0x4>
  409522:	c1 e0 07             	shl    $0x7,%eax
  409525:	89 44 24 18          	mov    %eax,0x18(%rsp)
  409529:	31 c0                	xor    %eax,%eax
  40952b:	e8 a0 06 00 00       	callq  409bd0 <vranlc_>
  409530:	39 1d 92 ab 21 00    	cmp    %ebx,0x21ab92(%rip)        # 6240c8 <layout_+0x8>
  409536:	74 0f                	je     409547 <compute_initial_conditions_+0x107>
  409538:	48 8d 7c 24 08       	lea    0x8(%rsp),%rdi
  40953d:	4c 89 ee             	mov    %r13,%rsi
  409540:	31 c0                	xor    %eax,%eax
  409542:	e8 49 06 00 00       	callq  409b90 <randlc_>
  409547:	4c 01 fd             	add    %r15,%rbp
  40954a:	44 39 e3             	cmp    %r12d,%ebx
  40954d:	75 a9                	jne    4094f8 <compute_initial_conditions_+0xb8>
  40954f:	48 83 c4 28          	add    $0x28,%rsp
  409553:	5b                   	pop    %rbx
  409554:	5d                   	pop    %rbp
  409555:	41 5c                	pop    %r12
  409557:	41 5d                	pop    %r13
  409559:	41 5e                	pop    %r14
  40955b:	41 5f                	pop    %r15
  40955d:	c3                   	retq   
  40955e:	66 90                	xchg   %ax,%ax

0000000000409560 <MAIN__>:
  409560:	41 54                	push   %r12
  409562:	be 60 ce 40 00       	mov    $0x40ce60,%esi
  409567:	bf 08 00 00 00       	mov    $0x8,%edi
  40956c:	55                   	push   %rbp
  40956d:	53                   	push   %rbx
  40956e:	48 81 ec f0 02 00 00 	sub    $0x2f0,%rsp
  409575:	48 8d ac 24 e4 02 00 	lea    0x2e4(%rsp),%rbp
  40957c:	00 
  40957d:	48 8d 9c 24 e8 02 00 	lea    0x2e8(%rsp),%rbx
  409584:	00 
  409585:	e8 46 99 ff ff       	callq  402ed0 <_gfortran_set_options@plt>
  40958a:	48 89 ef             	mov    %rbp,%rdi
  40958d:	31 c0                	xor    %eax,%eax
  40958f:	e8 ac 97 ff ff       	callq  402d40 <mpi_init_@plt>
  409594:	c7 84 24 e8 02 00 00 	movl   $0x1,0x2e8(%rsp)
  40959b:	01 00 00 00 
  40959f:	31 c0                	xor    %eax,%eax
  4095a1:	48 89 df             	mov    %rbx,%rdi
  4095a4:	e8 c7 12 00 00       	callq  40a870 <timer_clear_>
  4095a9:	8b 84 24 e8 02 00 00 	mov    0x2e8(%rsp),%eax
  4095b0:	8d 50 01             	lea    0x1(%rax),%edx
  4095b3:	83 f8 10             	cmp    $0x10,%eax
  4095b6:	89 94 24 e8 02 00 00 	mov    %edx,0x2e8(%rsp)
  4095bd:	75 e0                	jne    40959f <MAIN__+0x3f>
  4095bf:	bf 00 cc 40 00       	mov    $0x40cc00,%edi
  4095c4:	31 c0                	xor    %eax,%eax
  4095c6:	e8 f5 12 00 00       	callq  40a8c0 <timer_start_>
  4095cb:	31 c0                	xor    %eax,%eax
  4095cd:	e8 ee ea ff ff       	callq  4080c0 <setup_>
  4095d2:	31 c0                	xor    %eax,%eax
  4095d4:	b9 e0 40 62 00       	mov    $0x6240e0,%ecx
  4095d9:	ba dc 40 62 00       	mov    $0x6240dc,%edx
  4095de:	be d8 40 62 00       	mov    $0x6240d8,%esi
  4095e3:	bf 30 42 6e 00       	mov    $0x6e4230,%edi
  4095e8:	e8 83 e5 ff ff       	callq  407b70 <compute_indexmap_>
  4095ed:	b9 c8 40 62 00       	mov    $0x6240c8,%ecx
  4095f2:	ba c4 40 62 00       	mov    $0x6240c4,%edx
  4095f7:	be c0 40 62 00       	mov    $0x6240c0,%esi
  4095fc:	31 c0                	xor    %eax,%eax
  4095fe:	bf d0 41 66 00       	mov    $0x6641d0,%edi
  409603:	e8 38 fe ff ff       	callq  409440 <compute_initial_conditions_>
  409608:	31 c0                	xor    %eax,%eax
  40960a:	bf c0 40 62 00       	mov    $0x6240c0,%edi
  40960f:	e8 ec d0 ff ff       	callq  406700 <fft_init_>
  409614:	31 c0                	xor    %eax,%eax
  409616:	ba a0 41 62 00       	mov    $0x6241a0,%edx
  40961b:	be d0 41 66 00       	mov    $0x6641d0,%esi
  409620:	bf 98 c8 40 00       	mov    $0x40c898,%edi
  409625:	e8 c6 dc ff ff       	callq  4072f0 <fft_>
  40962a:	31 c0                	xor    %eax,%eax
  40962c:	bf 00 cc 40 00       	mov    $0x40cc00,%edi
  409631:	e8 5a 12 00 00       	callq  40a890 <timer_stop_>
  409636:	8b 05 44 aa 21 00    	mov    0x21aa44(%rip),%eax        # 624080 <coords_>
  40963c:	85 c0                	test   %eax,%eax
  40963e:	0f 84 bc 04 00 00    	je     409b00 <MAIN__+0x5a0>
  409644:	c7 84 24 e8 02 00 00 	movl   $0x1,0x2e8(%rsp)
  40964b:	01 00 00 00 
  40964f:	31 c0                	xor    %eax,%eax
  409651:	48 89 df             	mov    %rbx,%rdi
  409654:	e8 17 12 00 00       	callq  40a870 <timer_clear_>
  409659:	8b 84 24 e8 02 00 00 	mov    0x2e8(%rsp),%eax
  409660:	8d 50 01             	lea    0x1(%rax),%edx
  409663:	83 f8 10             	cmp    $0x10,%eax
  409666:	89 94 24 e8 02 00 00 	mov    %edx,0x2e8(%rsp)
  40966d:	75 e0                	jne    40964f <MAIN__+0xef>
  40966f:	31 c0                	xor    %eax,%eax
  409671:	48 89 ee             	mov    %rbp,%rsi
  409674:	bf 60 c7 40 00       	mov    $0x40c760,%edi
  409679:	e8 b2 96 ff ff       	callq  402d30 <mpi_barrier_@plt>
  40967e:	31 c0                	xor    %eax,%eax
  409680:	bf 98 c8 40 00       	mov    $0x40c898,%edi
  409685:	e8 36 12 00 00       	callq  40a8c0 <timer_start_>
  40968a:	44 8b 25 27 aa 21 00 	mov    0x21aa27(%rip),%r12d        # 6240b8 <dbg_+0x8>
  409691:	45 85 e4             	test   %r12d,%r12d
  409694:	0f 85 4e 04 00 00    	jne    409ae8 <MAIN__+0x588>
  40969a:	31 c0                	xor    %eax,%eax
  40969c:	b9 e0 40 62 00       	mov    $0x6240e0,%ecx
  4096a1:	ba dc 40 62 00       	mov    $0x6240dc,%edx
  4096a6:	be d8 40 62 00       	mov    $0x6240d8,%esi
  4096ab:	bf 30 42 6e 00       	mov    $0x6e4230,%edi
  4096b0:	e8 bb e4 ff ff       	callq  407b70 <compute_indexmap_>
  4096b5:	31 c0                	xor    %eax,%eax
  4096b7:	b9 c8 40 62 00       	mov    $0x6240c8,%ecx
  4096bc:	ba c4 40 62 00       	mov    $0x6240c4,%edx
  4096c1:	be c0 40 62 00       	mov    $0x6240c0,%esi
  4096c6:	bf d0 41 66 00       	mov    $0x6641d0,%edi
  4096cb:	e8 70 fd ff ff       	callq  409440 <compute_initial_conditions_>
  4096d0:	31 c0                	xor    %eax,%eax
  4096d2:	bf c0 40 62 00       	mov    $0x6240c0,%edi
  4096d7:	e8 24 d0 ff ff       	callq  406700 <fft_init_>
  4096dc:	44 8b 1d d5 a9 21 00 	mov    0x21a9d5(%rip),%r11d        # 6240b8 <dbg_+0x8>
  4096e3:	45 85 db             	test   %r11d,%r11d
  4096e6:	0f 85 cc 03 00 00    	jne    409ab8 <MAIN__+0x558>
  4096ec:	31 c0                	xor    %eax,%eax
  4096ee:	ba a0 41 62 00       	mov    $0x6241a0,%edx
  4096f3:	be d0 41 66 00       	mov    $0x6641d0,%esi
  4096f8:	bf 98 c8 40 00       	mov    $0x40c898,%edi
  4096fd:	e8 ee db ff ff       	callq  4072f0 <fft_>
  409702:	44 8b 0d af a9 21 00 	mov    0x21a9af(%rip),%r9d        # 6240b8 <dbg_+0x8>
  409709:	45 85 c9             	test   %r9d,%r9d
  40970c:	0f 85 8e 03 00 00    	jne    409aa0 <MAIN__+0x540>
  409712:	8b 1d d8 af 2f 00    	mov    0x2fafd8(%rip),%ebx        # 7046f0 <iter_>
  409718:	c7 84 24 e0 02 00 00 	movl   $0x1,0x2e0(%rsp)
  40971f:	01 00 00 00 
  409723:	85 db                	test   %ebx,%ebx
  409725:	0f 8e 45 01 00 00    	jle    409870 <MAIN__+0x310>
  40972b:	4c 8d a4 24 e0 02 00 	lea    0x2e0(%rsp),%r12
  409732:	00 
  409733:	e9 9f 00 00 00       	jmpq   4097d7 <MAIN__+0x277>
  409738:	0f 1f 84 00 00 00 00 	nopl   0x0(%rax,%rax,1)
  40973f:	00 
  409740:	bf a0 41 62 00       	mov    $0x6241a0,%edi
  409745:	31 c0                	xor    %eax,%eax
  409747:	41 b9 c8 40 62 00    	mov    $0x6240c8,%r9d
  40974d:	41 b8 c4 40 62 00    	mov    $0x6240c4,%r8d
  409753:	b9 c0 40 62 00       	mov    $0x6240c0,%ecx
  409758:	ba 30 42 6e 00       	mov    $0x6e4230,%edx
  40975d:	be d0 41 66 00       	mov    $0x6641d0,%esi
  409762:	e8 49 99 ff ff       	callq  4030b0 <evolve_>
  409767:	8b 3d 4b a9 21 00    	mov    0x21a94b(%rip),%edi        # 6240b8 <dbg_+0x8>
  40976d:	85 ff                	test   %edi,%edi
  40976f:	0f 85 cb 00 00 00    	jne    409840 <MAIN__+0x2e0>
  409775:	31 c0                	xor    %eax,%eax
  409777:	ba 00 42 6a 00       	mov    $0x6a4200,%edx
  40977c:	be d0 41 66 00       	mov    $0x6641d0,%esi
  409781:	bf 5c c9 40 00       	mov    $0x40c95c,%edi
  409786:	e8 65 db ff ff       	callq  4072f0 <fft_>
  40978b:	8b 0d 27 a9 21 00    	mov    0x21a927(%rip),%ecx        # 6240b8 <dbg_+0x8>
  409791:	85 c9                	test   %ecx,%ecx
  409793:	75 7b                	jne    409810 <MAIN__+0x2b0>
  409795:	31 c0                	xor    %eax,%eax
  409797:	41 b8 c8 40 62 00    	mov    $0x6240c8,%r8d
  40979d:	b9 c4 40 62 00       	mov    $0x6240c4,%ecx
  4097a2:	ba c0 40 62 00       	mov    $0x6240c0,%edx
  4097a7:	be 00 42 6a 00       	mov    $0x6a4200,%esi
  4097ac:	4c 89 e7             	mov    %r12,%rdi
  4097af:	e8 4c b1 ff ff       	callq  404900 <checksum_>
  4097b4:	8b 05 fe a8 21 00    	mov    0x21a8fe(%rip),%eax        # 6240b8 <dbg_+0x8>
  4097ba:	85 c0                	test   %eax,%eax
  4097bc:	75 42                	jne    409800 <MAIN__+0x2a0>
  4097be:	8b 84 24 e0 02 00 00 	mov    0x2e0(%rsp),%eax
  4097c5:	8d 50 01             	lea    0x1(%rax),%edx
  4097c8:	39 c3                	cmp    %eax,%ebx
  4097ca:	89 94 24 e0 02 00 00 	mov    %edx,0x2e0(%rsp)
  4097d1:	0f 84 99 00 00 00    	je     409870 <MAIN__+0x310>
  4097d7:	44 8b 05 da a8 21 00 	mov    0x21a8da(%rip),%r8d        # 6240b8 <dbg_+0x8>
  4097de:	45 85 c0             	test   %r8d,%r8d
  4097e1:	0f 84 59 ff ff ff    	je     409740 <MAIN__+0x1e0>
  4097e7:	bf a0 cd 40 00       	mov    $0x40cda0,%edi
  4097ec:	31 c0                	xor    %eax,%eax
  4097ee:	e8 cd 10 00 00       	callq  40a8c0 <timer_start_>
  4097f3:	e9 48 ff ff ff       	jmpq   409740 <MAIN__+0x1e0>
  4097f8:	0f 1f 84 00 00 00 00 	nopl   0x0(%rax,%rax,1)
  4097ff:	00 
  409800:	bf a4 cd 40 00       	mov    $0x40cda4,%edi
  409805:	31 c0                	xor    %eax,%eax
  409807:	e8 84 10 00 00       	callq  40a890 <timer_stop_>
  40980c:	eb b0                	jmp    4097be <MAIN__+0x25e>
  40980e:	66 90                	xchg   %ax,%ax
  409810:	31 c0                	xor    %eax,%eax
  409812:	bf 94 c8 40 00       	mov    $0x40c894,%edi
  409817:	e8 74 10 00 00       	callq  40a890 <timer_stop_>
  40981c:	8b 15 96 a8 21 00    	mov    0x21a896(%rip),%edx        # 6240b8 <dbg_+0x8>
  409822:	85 d2                	test   %edx,%edx
  409824:	0f 84 6b ff ff ff    	je     409795 <MAIN__+0x235>
  40982a:	bf a4 cd 40 00       	mov    $0x40cda4,%edi
  40982f:	31 c0                	xor    %eax,%eax
  409831:	e8 8a 10 00 00       	callq  40a8c0 <timer_start_>
  409836:	e9 5a ff ff ff       	jmpq   409795 <MAIN__+0x235>
  40983b:	0f 1f 44 00 00       	nopl   0x0(%rax,%rax,1)
  409840:	31 c0                	xor    %eax,%eax
  409842:	bf a0 cd 40 00       	mov    $0x40cda0,%edi
  409847:	e8 44 10 00 00       	callq  40a890 <timer_stop_>
  40984c:	8b 35 66 a8 21 00    	mov    0x21a866(%rip),%esi        # 6240b8 <dbg_+0x8>
  409852:	85 f6                	test   %esi,%esi
  409854:	0f 84 1b ff ff ff    	je     409775 <MAIN__+0x215>
  40985a:	bf 94 c8 40 00       	mov    $0x40c894,%edi
  40985f:	31 c0                	xor    %eax,%eax
  409861:	e8 5a 10 00 00       	callq  40a8c0 <timer_start_>
  409866:	e9 0a ff ff ff       	jmpq   409775 <MAIN__+0x215>
  40986b:	0f 1f 44 00 00       	nopl   0x0(%rax,%rax,1)
  409870:	4c 8d a4 24 ef 02 00 	lea    0x2ef(%rsp),%r12
  409877:	00 
  409878:	48 8d 9c 24 dc 02 00 	lea    0x2dc(%rsp),%rbx
  40987f:	00 
  409880:	ba 64 cc 40 00       	mov    $0x40cc64,%edx
  409885:	48 89 d7             	mov    %rdx,%rdi
  409888:	31 c0                	xor    %eax,%eax
  40988a:	b9 f0 46 70 00       	mov    $0x7046f0,%ecx
  40988f:	4d 89 e1             	mov    %r12,%r9
  409892:	49 89 d8             	mov    %rbx,%r8
  409895:	48 89 d6             	mov    %rdx,%rsi
  409898:	c7 04 24 01 00 00 00 	movl   $0x1,(%rsp)
  40989f:	e8 3c 9b ff ff       	callq  4033e0 <verify_>
  4098a4:	31 c0                	xor    %eax,%eax
  4098a6:	bf 98 c8 40 00       	mov    $0x40c898,%edi
  4098ab:	e8 e0 0f 00 00       	callq  40a890 <timer_stop_>
  4098b0:	83 3d d5 a8 21 00 10 	cmpl   $0x10,0x21a8d5(%rip)        # 62418c <procgrid_+0xc>
  4098b7:	74 0b                	je     4098c4 <MAIN__+0x364>
  4098b9:	c7 84 24 dc 02 00 00 	movl   $0x0,0x2dc(%rsp)
  4098c0:	00 00 00 00 
  4098c4:	31 c0                	xor    %eax,%eax
  4098c6:	bf 98 c8 40 00       	mov    $0x40c898,%edi
  4098cb:	e8 b0 0f 00 00       	callq  40a880 <timer_read_>
  4098d0:	66 0f 57 c9          	xorpd  %xmm1,%xmm1
  4098d4:	f2 0f 11 84 24 c8 02 	movsd  %xmm0,0x2c8(%rsp)
  4098db:	00 00 
  4098dd:	66 0f 2e c1          	ucomisd %xmm1,%xmm0
  4098e1:	7a 02                	jp     4098e5 <MAIN__+0x385>
  4098e3:	74 6b                	je     409950 <MAIN__+0x3f0>
  4098e5:	f2 0f 2a 0d 03 ae 2f 	cvtsi2sdl 0x2fae03(%rip),%xmm1        # 7046f0 <iter_>
  4098ec:	00 
  4098ed:	f2 0f 59 0d db 35 00 	mulsd  0x35db(%rip),%xmm1        # 40ced0 <options.0.1652+0x70>
  4098f4:	00 
  4098f5:	44 8b 1d 84 a7 21 00 	mov    0x21a784(%rip),%r11d        # 624080 <coords_>
  4098fc:	45 85 db             	test   %r11d,%r11d
  4098ff:	f2 0f 58 0d d1 35 00 	addsd  0x35d1(%rip),%xmm1        # 40ced8 <options.0.1652+0x78>
  409906:	00 
  409907:	f2 0f 59 0d d1 35 00 	mulsd  0x35d1(%rip),%xmm1        # 40cee0 <options.0.1652+0x80>
  40990e:	00 
  40990f:	f2 0f 5e c8          	divsd  %xmm0,%xmm1
  409913:	f2 0f 11 8c 24 d0 02 	movsd  %xmm1,0x2d0(%rsp)
  40991a:	00 00 
  40991c:	74 47                	je     409965 <MAIN__+0x405>
  40991e:	44 8b 15 93 a7 21 00 	mov    0x21a793(%rip),%r10d        # 6240b8 <dbg_+0x8>
  409925:	45 85 d2             	test   %r10d,%r10d
  409928:	74 07                	je     409931 <MAIN__+0x3d1>
  40992a:	31 c0                	xor    %eax,%eax
  40992c:	e8 1f df ff ff       	callq  407850 <print_timers_>
  409931:	48 89 ef             	mov    %rbp,%rdi
  409934:	31 c0                	xor    %eax,%eax
  409936:	e8 b5 94 ff ff       	callq  402df0 <mpi_finalize_@plt>
  40993b:	48 81 c4 f0 02 00 00 	add    $0x2f0,%rsp
  409942:	5b                   	pop    %rbx
  409943:	5d                   	pop    %rbp
  409944:	41 5c                	pop    %r12
  409946:	c3                   	retq   
  409947:	66 0f 1f 84 00 00 00 	nopw   0x0(%rax,%rax,1)
  40994e:	00 00 
  409950:	44 8b 1d 29 a7 21 00 	mov    0x21a729(%rip),%r11d        # 624080 <coords_>
  409957:	f2 0f 11 8c 24 d0 02 	movsd  %xmm1,0x2d0(%rsp)
  40995e:	00 00 
  409960:	45 85 db             	test   %r11d,%r11d
  409963:	75 b9                	jne    40991e <MAIN__+0x3be>
  409965:	48 8d 84 24 d0 02 00 	lea    0x2d0(%rsp),%rax
  40996c:	00 
  40996d:	41 b8 64 cc 40 00    	mov    $0x40cc64,%r8d
  409973:	41 b9 f0 46 70 00    	mov    $0x7046f0,%r9d
  409979:	4c 89 c1             	mov    %r8,%rcx
  40997c:	4c 89 c2             	mov    %r8,%rdx
  40997f:	4c 89 e6             	mov    %r12,%rsi
  409982:	48 89 44 24 18       	mov    %rax,0x18(%rsp)
  409987:	48 8d 84 24 c8 02 00 	lea    0x2c8(%rsp),%rax
  40998e:	00 
  40998f:	bf a8 cd 40 00       	mov    $0x40cda8,%edi
  409994:	c7 84 24 d0 00 00 00 	movl   $0x6,0xd0(%rsp)
  40999b:	06 00 00 00 
  40999f:	c7 84 24 c8 00 00 00 	movl   $0x1e,0xc8(%rsp)
  4099a6:	1e 00 00 00 
  4099aa:	48 89 44 24 10       	mov    %rax,0x10(%rsp)
  4099af:	31 c0                	xor    %eax,%eax
  4099b1:	c7 84 24 c0 00 00 00 	movl   $0x3,0xc0(%rsp)
  4099b8:	03 00 00 00 
  4099bc:	c7 84 24 b8 00 00 00 	movl   $0x14,0xb8(%rsp)
  4099c3:	14 00 00 00 
  4099c7:	c7 84 24 b0 00 00 00 	movl   $0x2e,0xb0(%rsp)
  4099ce:	2e 00 00 00 
  4099d2:	c7 84 24 a8 00 00 00 	movl   $0x9,0xa8(%rsp)
  4099d9:	09 00 00 00 
  4099dd:	c7 84 24 a0 00 00 00 	movl   $0xb,0xa0(%rsp)
  4099e4:	0b 00 00 00 
  4099e8:	c7 84 24 98 00 00 00 	movl   $0xb,0x98(%rsp)
  4099ef:	0b 00 00 00 
  4099f3:	c7 84 24 90 00 00 00 	movl   $0x5,0x90(%rsp)
  4099fa:	05 00 00 00 
  4099fe:	c7 84 24 88 00 00 00 	movl   $0x18,0x88(%rsp)
  409a05:	18 00 00 00 
  409a09:	c7 84 24 80 00 00 00 	movl   $0x1,0x80(%rsp)
  409a10:	01 00 00 00 
  409a14:	c7 44 24 78 02 00 00 	movl   $0x2,0x78(%rsp)
  409a1b:	00 
  409a1c:	48 c7 44 24 70 aa cd 	movq   $0x40cdaa,0x70(%rsp)
  409a23:	40 00 
  409a25:	48 c7 44 24 68 b0 cd 	movq   $0x40cdb0,0x68(%rsp)
  409a2c:	40 00 
  409a2e:	48 c7 44 24 60 ce cd 	movq   $0x40cdce,0x60(%rsp)
  409a35:	40 00 
  409a37:	48 c7 44 24 58 d1 cd 	movq   $0x40cdd1,0x58(%rsp)
  409a3e:	40 00 
  409a40:	48 c7 44 24 50 e8 cd 	movq   $0x40cde8,0x50(%rsp)
  409a47:	40 00 
  409a49:	48 c7 44 24 48 16 ce 	movq   $0x40ce16,0x48(%rsp)
  409a50:	40 00 
  409a52:	48 c7 44 24 40 1f ce 	movq   $0x40ce1f,0x40(%rsp)
  409a59:	40 00 
  409a5b:	48 c7 44 24 38 2a ce 	movq   $0x40ce2a,0x38(%rsp)
  409a62:	40 00 
  409a64:	48 c7 44 24 30 35 ce 	movq   $0x40ce35,0x30(%rsp)
  409a6b:	40 00 
  409a6d:	48 89 5c 24 28       	mov    %rbx,0x28(%rsp)
  409a72:	48 c7 44 24 20 3a ce 	movq   $0x40ce3a,0x20(%rsp)
  409a79:	40 00 
  409a7b:	48 c7 44 24 08 8c 41 	movq   $0x62418c,0x8(%rsp)
  409a82:	62 00 
  409a84:	48 c7 04 24 00 cc 40 	movq   $0x40cc00,(%rsp)
  409a8b:	00 
  409a8c:	e8 bf 01 00 00       	callq  409c50 <print_results_>
  409a91:	e9 88 fe ff ff       	jmpq   40991e <MAIN__+0x3be>
  409a96:	66 2e 0f 1f 84 00 00 	nopw   %cs:0x0(%rax,%rax,1)
  409a9d:	00 00 00 
  409aa0:	bf 94 c8 40 00       	mov    $0x40c894,%edi
  409aa5:	31 c0                	xor    %eax,%eax
  409aa7:	e8 e4 0d 00 00       	callq  40a890 <timer_stop_>
  409aac:	e9 61 fc ff ff       	jmpq   409712 <MAIN__+0x1b2>
  409ab1:	0f 1f 80 00 00 00 00 	nopl   0x0(%rax)
  409ab8:	31 c0                	xor    %eax,%eax
  409aba:	bf 58 c9 40 00       	mov    $0x40c958,%edi
  409abf:	e8 cc 0d 00 00       	callq  40a890 <timer_stop_>
  409ac4:	44 8b 15 ed a5 21 00 	mov    0x21a5ed(%rip),%r10d        # 6240b8 <dbg_+0x8>
  409acb:	45 85 d2             	test   %r10d,%r10d
  409ace:	0f 84 18 fc ff ff    	je     4096ec <MAIN__+0x18c>
  409ad4:	bf 94 c8 40 00       	mov    $0x40c894,%edi
  409ad9:	31 c0                	xor    %eax,%eax
  409adb:	e8 e0 0d 00 00       	callq  40a8c0 <timer_start_>
  409ae0:	e9 07 fc ff ff       	jmpq   4096ec <MAIN__+0x18c>
  409ae5:	0f 1f 00             	nopl   (%rax)
  409ae8:	bf 58 c9 40 00       	mov    $0x40c958,%edi
  409aed:	31 c0                	xor    %eax,%eax
  409aef:	e8 cc 0d 00 00       	callq  40a8c0 <timer_start_>
  409af4:	e9 a1 fb ff ff       	jmpq   40969a <MAIN__+0x13a>
  409af9:	0f 1f 80 00 00 00 00 	nopl   0x0(%rax)
  409b00:	4c 8d a4 24 e0 00 00 	lea    0xe0(%rsp),%r12
  409b07:	00 
  409b08:	48 c7 84 24 e8 00 00 	movq   $0x40ce80,0xe8(%rsp)
  409b0f:	00 80 ce 40 00 
  409b14:	c7 84 24 f0 00 00 00 	movl   $0x8b,0xf0(%rsp)
  409b1b:	8b 00 00 00 
  409b1f:	c7 84 24 e0 00 00 00 	movl   $0x80,0xe0(%rsp)
  409b26:	80 00 00 00 
  409b2a:	c7 84 24 e4 00 00 00 	movl   $0x6,0xe4(%rsp)
  409b31:	06 00 00 00 
  409b35:	4c 89 e7             	mov    %r12,%rdi
  409b38:	e8 83 92 ff ff       	callq  402dc0 <_gfortran_st_write@plt>
  409b3d:	ba 15 00 00 00       	mov    $0x15,%edx
  409b42:	be 88 cd 40 00       	mov    $0x40cd88,%esi
  409b47:	4c 89 e7             	mov    %r12,%rdi
  409b4a:	e8 b1 93 ff ff       	callq  402f00 <_gfortran_transfer_character@plt>
  409b4f:	31 c0                	xor    %eax,%eax
  409b51:	bf 00 cc 40 00       	mov    $0x40cc00,%edi
  409b56:	e8 25 0d 00 00       	callq  40a880 <timer_read_>
  409b5b:	48 8d b4 24 c0 02 00 	lea    0x2c0(%rsp),%rsi
  409b62:	00 
  409b63:	4c 89 e7             	mov    %r12,%rdi
  409b66:	ba 08 00 00 00       	mov    $0x8,%edx
  409b6b:	f2 0f 11 84 24 c0 02 	movsd  %xmm0,0x2c0(%rsp)
  409b72:	00 00 
  409b74:	e8 f7 90 ff ff       	callq  402c70 <_gfortran_transfer_real@plt>
  409b79:	4c 89 e7             	mov    %r12,%rdi
  409b7c:	e8 8f 93 ff ff       	callq  402f10 <_gfortran_st_write_done@plt>
  409b81:	e9 be fa ff ff       	jmpq   409644 <MAIN__+0xe4>
  409b86:	90                   	nop
  409b87:	90                   	nop
  409b88:	90                   	nop
  409b89:	90                   	nop
  409b8a:	90                   	nop
  409b8b:	90                   	nop
  409b8c:	90                   	nop
  409b8d:	90                   	nop
  409b8e:	90                   	nop
  409b8f:	90                   	nop

0000000000409b90 <randlc_>:
  409b90:	f2 0f 10 07          	movsd  (%rdi),%xmm0
  409b94:	f2 0f 10 0e          	movsd  (%rsi),%xmm1
  409b98:	f2 48 0f 2c d0       	cvttsd2si %xmm0,%rdx
  409b9d:	f2 48 0f 2c c1       	cvttsd2si %xmm1,%rax
  409ba2:	48 0f af c2          	imul   %rdx,%rax
  409ba6:	48 ba ff ff ff ff ff 	mov    $0x3fffffffffff,%rdx
  409bad:	3f 00 00 
  409bb0:	48 21 d0             	and    %rdx,%rax
  409bb3:	f2 48 0f 2a c0       	cvtsi2sd %rax,%xmm0
  409bb8:	f2 0f 11 07          	movsd  %xmm0,(%rdi)
  409bbc:	f2 0f 59 05 24 33 00 	mulsd  0x3324(%rip),%xmm0        # 40cee8 <options.0.1652+0x88>
  409bc3:	00 
  409bc4:	c3                   	retq   
  409bc5:	66 66 2e 0f 1f 84 00 	data32 nopw %cs:0x0(%rax,%rax,1)
  409bcc:	00 00 00 00 

0000000000409bd0 <vranlc_>:
  409bd0:	f2 0f 10 12          	movsd  (%rdx),%xmm2
  409bd4:	8b 17                	mov    (%rdi),%edx
  409bd6:	f2 0f 10 1e          	movsd  (%rsi),%xmm3
  409bda:	f2 4c 0f 2c c2       	cvttsd2si %xmm2,%r8
  409bdf:	85 d2                	test   %edx,%edx
  409be1:	f2 48 0f 2c c3       	cvttsd2si %xmm3,%rax
  409be6:	7e 58                	jle    409c40 <vranlc_+0x70>
  409be8:	83 ea 01             	sub    $0x1,%edx
  409beb:	f2 0f 10 15 f5 32 00 	movsd  0x32f5(%rip),%xmm2        # 40cee8 <options.0.1652+0x88>
  409bf2:	00 
  409bf3:	4c 8d 0c d5 08 00 00 	lea    0x8(,%rdx,8),%r9
  409bfa:	00 
  409bfb:	48 bf ff ff ff ff ff 	mov    $0x3fffffffffff,%rdi
  409c02:	3f 00 00 
  409c05:	31 d2                	xor    %edx,%edx
  409c07:	66 0f 1f 84 00 00 00 	nopw   0x0(%rax,%rax,1)
  409c0e:	00 00 
  409c10:	49 0f af c0          	imul   %r8,%rax
  409c14:	48 21 f8             	and    %rdi,%rax
  409c17:	f2 48 0f 2a c0       	cvtsi2sd %rax,%xmm0
  409c1c:	66 0f 28 c8          	movapd %xmm0,%xmm1
  409c20:	f2 0f 59 ca          	mulsd  %xmm2,%xmm1
  409c24:	f2 0f 11 0c 11       	movsd  %xmm1,(%rcx,%rdx,1)
  409c29:	48 83 c2 08          	add    $0x8,%rdx
  409c2d:	4c 39 ca             	cmp    %r9,%rdx
  409c30:	75 de                	jne    409c10 <vranlc_+0x40>
  409c32:	f2 0f 11 06          	movsd  %xmm0,(%rsi)
  409c36:	c3                   	retq   
  409c37:	66 0f 1f 84 00 00 00 	nopw   0x0(%rax,%rax,1)
  409c3e:	00 00 
  409c40:	f2 48 0f 2a c0       	cvtsi2sd %rax,%xmm0
  409c45:	f2 0f 11 06          	movsd  %xmm0,(%rsi)
  409c49:	c3                   	retq   
  409c4a:	90                   	nop
  409c4b:	90                   	nop
  409c4c:	90                   	nop
  409c4d:	90                   	nop
  409c4e:	90                   	nop
  409c4f:	90                   	nop

0000000000409c50 <print_results_>:
  409c50:	41 57                	push   %r15
  409c52:	49 89 ff             	mov    %rdi,%r15
  409c55:	41 56                	push   %r14
  409c57:	4d 89 ce             	mov    %r9,%r14
  409c5a:	41 55                	push   %r13
  409c5c:	4d 89 c5             	mov    %r8,%r13
  409c5f:	41 54                	push   %r12
  409c61:	55                   	push   %rbp
  409c62:	53                   	push   %rbx
  409c63:	48 89 cb             	mov    %rcx,%rbx
  409c66:	48 81 ec 18 2f 00 00 	sub    $0x2f18,%rsp
  409c6d:	48 8d bc 24 10 2d 00 	lea    0x2d10(%rsp),%rdi
  409c74:	00 
  409c75:	48 89 34 24          	mov    %rsi,(%rsp)
  409c79:	48 89 54 24 08       	mov    %rdx,0x8(%rsp)
  409c7e:	4c 8b a4 24 58 2f 00 	mov    0x2f58(%rsp),%r12
  409c85:	00 
  409c86:	48 8b ac 24 68 2f 00 	mov    0x2f68(%rsp),%rbp
  409c8d:	00 
  409c8e:	48 c7 84 24 18 2d 00 	movq   $0x40cef0,0x2d18(%rsp)
  409c95:	00 f0 ce 40 00 
  409c9a:	c7 84 24 20 2d 00 00 	movl   $0x11,0x2d20(%rsp)
  409ca1:	11 00 00 00 
  409ca5:	48 c7 84 24 58 2d 00 	movq   $0x40cf00,0x2d58(%rsp)
  409cac:	00 00 cf 40 00 
  409cb1:	c7 84 24 60 2d 00 00 	movl   $0x26,0x2d60(%rsp)
  409cb8:	26 00 00 00 
  409cbc:	c7 84 24 10 2d 00 00 	movl   $0x1000,0x2d10(%rsp)
  409cc3:	00 10 00 00 
  409cc7:	c7 84 24 14 2d 00 00 	movl   $0x6,0x2d14(%rsp)
  409cce:	06 00 00 00 
  409cd2:	e8 e9 90 ff ff       	callq  402dc0 <_gfortran_st_write@plt>
  409cd7:	48 8d bc 24 10 2d 00 	lea    0x2d10(%rsp),%rdi
  409cde:	00 
  409cdf:	ba 02 00 00 00       	mov    $0x2,%edx
  409ce4:	4c 89 fe             	mov    %r15,%rsi
  409ce7:	e8 14 92 ff ff       	callq  402f00 <_gfortran_transfer_character@plt>
  409cec:	48 8d bc 24 10 2d 00 	lea    0x2d10(%rsp),%rdi
  409cf3:	00 
  409cf4:	e8 17 92 ff ff       	callq  402f10 <_gfortran_st_write_done@plt>
  409cf9:	48 8d bc 24 30 2b 00 	lea    0x2b30(%rsp),%rdi
  409d00:	00 
  409d01:	48 c7 84 24 38 2b 00 	movq   $0x40cef0,0x2b38(%rsp)
  409d08:	00 f0 ce 40 00 
  409d0d:	c7 84 24 40 2b 00 00 	movl   $0x14,0x2b40(%rsp)
  409d14:	14 00 00 00 
  409d18:	48 c7 84 24 78 2b 00 	movq   $0x40cf28,0x2b78(%rsp)
  409d1f:	00 28 cf 40 00 
  409d24:	c7 84 24 80 2b 00 00 	movl   $0x21,0x2b80(%rsp)
  409d2b:	21 00 00 00 
  409d2f:	c7 84 24 30 2b 00 00 	movl   $0x1000,0x2b30(%rsp)
  409d36:	00 10 00 00 
  409d3a:	c7 84 24 34 2b 00 00 	movl   $0x6,0x2b34(%rsp)
  409d41:	06 00 00 00 
  409d45:	e8 76 90 ff ff       	callq  402dc0 <_gfortran_st_write@plt>
  409d4a:	48 8b 34 24          	mov    (%rsp),%rsi
  409d4e:	48 8d bc 24 30 2b 00 	lea    0x2b30(%rsp),%rdi
  409d55:	00 
  409d56:	ba 01 00 00 00       	mov    $0x1,%edx
  409d5b:	e8 a0 91 ff ff       	callq  402f00 <_gfortran_transfer_character@plt>
  409d60:	48 8d bc 24 30 2b 00 	lea    0x2b30(%rsp),%rdi
  409d67:	00 
  409d68:	e8 a3 91 ff ff       	callq  402f10 <_gfortran_st_write_done@plt>
  409d6d:	8b 0b                	mov    (%rbx),%ecx
  409d6f:	85 c9                	test   %ecx,%ecx
  409d71:	75 0c                	jne    409d7f <print_results_+0x12f>
  409d73:	41 8b 55 00          	mov    0x0(%r13),%edx
  409d77:	85 d2                	test   %edx,%edx
  409d79:	0f 84 19 09 00 00    	je     40a698 <print_results_+0xa48>
  409d7f:	4c 8d bc 24 b0 23 00 	lea    0x23b0(%rsp),%r15
  409d86:	00 
  409d87:	48 c7 84 24 b8 23 00 	movq   $0x40cef0,0x23b8(%rsp)
  409d8e:	00 f0 ce 40 00 
  409d93:	c7 84 24 c0 23 00 00 	movl   $0x28,0x23c0(%rsp)
  409d9a:	28 00 00 00 
  409d9e:	48 c7 84 24 f8 23 00 	movq   $0x40cf98,0x23f8(%rsp)
  409da5:	00 98 cf 40 00 
  409daa:	c7 84 24 00 24 00 00 	movl   $0x2d,0x2400(%rsp)
  409db1:	2d 00 00 00 
  409db5:	4c 89 ff             	mov    %r15,%rdi
  409db8:	c7 84 24 b0 23 00 00 	movl   $0x1000,0x23b0(%rsp)
  409dbf:	00 10 00 00 
  409dc3:	c7 84 24 b4 23 00 00 	movl   $0x6,0x23b4(%rsp)
  409dca:	06 00 00 00 
  409dce:	e8 ed 8f ff ff       	callq  402dc0 <_gfortran_st_write@plt>
  409dd3:	48 8b 74 24 08       	mov    0x8(%rsp),%rsi
  409dd8:	ba 04 00 00 00       	mov    $0x4,%edx
  409ddd:	4c 89 ff             	mov    %r15,%rdi
  409de0:	e8 9b 8f ff ff       	callq  402d80 <_gfortran_transfer_integer@plt>
  409de5:	ba 04 00 00 00       	mov    $0x4,%edx
  409dea:	48 89 de             	mov    %rbx,%rsi
  409ded:	4c 89 ff             	mov    %r15,%rdi
  409df0:	e8 8b 8f ff ff       	callq  402d80 <_gfortran_transfer_integer@plt>
  409df5:	4c 89 ff             	mov    %r15,%rdi
  409df8:	ba 04 00 00 00       	mov    $0x4,%edx
  409dfd:	4c 89 ee             	mov    %r13,%rsi
  409e00:	e8 7b 8f ff ff       	callq  402d80 <_gfortran_transfer_integer@plt>
  409e05:	4c 89 ff             	mov    %r15,%rdi
  409e08:	e8 03 91 ff ff       	callq  402f10 <_gfortran_st_write_done@plt>
  409e0d:	48 8d 9c 24 d0 21 00 	lea    0x21d0(%rsp),%rbx
  409e14:	00 
  409e15:	48 c7 84 24 d8 21 00 	movq   $0x40cef0,0x21d8(%rsp)
  409e1c:	00 f0 ce 40 00 
  409e21:	c7 84 24 e0 21 00 00 	movl   $0x2c,0x21e0(%rsp)
  409e28:	2c 00 00 00 
  409e2c:	48 c7 84 24 18 22 00 	movq   $0x40cfc8,0x2218(%rsp)
  409e33:	00 c8 cf 40 00 
  409e38:	c7 84 24 20 22 00 00 	movl   $0x21,0x2220(%rsp)
  409e3f:	21 00 00 00 
  409e43:	48 89 df             	mov    %rbx,%rdi
  409e46:	c7 84 24 d0 21 00 00 	movl   $0x1000,0x21d0(%rsp)
  409e4d:	00 10 00 00 
  409e51:	c7 84 24 d4 21 00 00 	movl   $0x6,0x21d4(%rsp)
  409e58:	06 00 00 00 
  409e5c:	e8 5f 8f ff ff       	callq  402dc0 <_gfortran_st_write@plt>
  409e61:	ba 04 00 00 00       	mov    $0x4,%edx
  409e66:	4c 89 f6             	mov    %r14,%rsi
  409e69:	48 89 df             	mov    %rbx,%rdi
  409e6c:	e8 0f 8f ff ff       	callq  402d80 <_gfortran_transfer_integer@plt>
  409e71:	48 89 df             	mov    %rbx,%rdi
  409e74:	48 8d 9c 24 f0 1f 00 	lea    0x1ff0(%rsp),%rbx
  409e7b:	00 
  409e7c:	e8 8f 90 ff ff       	callq  402f10 <_gfortran_st_write_done@plt>
  409e81:	48 89 df             	mov    %rbx,%rdi
  409e84:	48 c7 84 24 f8 1f 00 	movq   $0x40cef0,0x1ff8(%rsp)
  409e8b:	00 f0 ce 40 00 
  409e90:	c7 84 24 00 20 00 00 	movl   $0x2f,0x2000(%rsp)
  409e97:	2f 00 00 00 
  409e9b:	48 c7 84 24 38 20 00 	movq   $0x40cff0,0x2038(%rsp)
  409ea2:	00 f0 cf 40 00 
  409ea7:	c7 84 24 40 20 00 00 	movl   $0x22,0x2040(%rsp)
  409eae:	22 00 00 00 
  409eb2:	c7 84 24 f0 1f 00 00 	movl   $0x1000,0x1ff0(%rsp)
  409eb9:	00 10 00 00 
  409ebd:	c7 84 24 f4 1f 00 00 	movl   $0x6,0x1ff4(%rsp)
  409ec4:	06 00 00 00 
  409ec8:	e8 f3 8e ff ff       	callq  402dc0 <_gfortran_st_write@plt>
  409ecd:	48 8b b4 24 60 2f 00 	mov    0x2f60(%rsp),%rsi
  409ed4:	00 
  409ed5:	ba 08 00 00 00       	mov    $0x8,%edx
  409eda:	48 89 df             	mov    %rbx,%rdi
  409edd:	e8 8e 8d ff ff       	callq  402c70 <_gfortran_transfer_real@plt>
  409ee2:	48 89 df             	mov    %rbx,%rdi
  409ee5:	48 8d 9c 24 10 1e 00 	lea    0x1e10(%rsp),%rbx
  409eec:	00 
  409eed:	e8 1e 90 ff ff       	callq  402f10 <_gfortran_st_write_done@plt>
  409ef2:	48 89 df             	mov    %rbx,%rdi
  409ef5:	48 c7 84 24 18 1e 00 	movq   $0x40cef0,0x1e18(%rsp)
  409efc:	00 f0 ce 40 00 
  409f01:	c7 84 24 20 1e 00 00 	movl   $0x32,0x1e20(%rsp)
  409f08:	32 00 00 00 
  409f0c:	48 c7 84 24 58 1e 00 	movq   $0x40d018,0x1e58(%rsp)
  409f13:	00 18 d0 40 00 
  409f18:	c7 84 24 60 1e 00 00 	movl   $0x21,0x1e60(%rsp)
  409f1f:	21 00 00 00 
  409f23:	c7 84 24 10 1e 00 00 	movl   $0x1000,0x1e10(%rsp)
  409f2a:	00 10 00 00 
  409f2e:	c7 84 24 14 1e 00 00 	movl   $0x6,0x1e14(%rsp)
  409f35:	06 00 00 00 
  409f39:	e8 82 8e ff ff       	callq  402dc0 <_gfortran_st_write@plt>
  409f3e:	ba 04 00 00 00       	mov    $0x4,%edx
  409f43:	4c 89 e6             	mov    %r12,%rsi
  409f46:	48 89 df             	mov    %rbx,%rdi
  409f49:	e8 32 8e ff ff       	callq  402d80 <_gfortran_transfer_integer@plt>
  409f4e:	48 89 df             	mov    %rbx,%rdi
  409f51:	48 8d 9c 24 30 1c 00 	lea    0x1c30(%rsp),%rbx
  409f58:	00 
  409f59:	e8 b2 8f ff ff       	callq  402f10 <_gfortran_st_write_done@plt>
  409f5e:	48 89 df             	mov    %rbx,%rdi
  409f61:	48 c7 84 24 38 1c 00 	movq   $0x40cef0,0x1c38(%rsp)
  409f68:	00 f0 ce 40 00 
  409f6d:	c7 84 24 40 1c 00 00 	movl   $0x35,0x1c40(%rsp)
  409f74:	35 00 00 00 
  409f78:	48 c7 84 24 78 1c 00 	movq   $0x40d040,0x1c78(%rsp)
  409f7f:	00 40 d0 40 00 
  409f84:	c7 84 24 80 1c 00 00 	movl   $0x21,0x1c80(%rsp)
  409f8b:	21 00 00 00 
  409f8f:	c7 84 24 30 1c 00 00 	movl   $0x1000,0x1c30(%rsp)
  409f96:	00 10 00 00 
  409f9a:	c7 84 24 34 1c 00 00 	movl   $0x6,0x1c34(%rsp)
  409fa1:	06 00 00 00 
  409fa5:	e8 16 8e ff ff       	callq  402dc0 <_gfortran_st_write@plt>
  409faa:	48 8b b4 24 50 2f 00 	mov    0x2f50(%rsp),%rsi
  409fb1:	00 
  409fb2:	ba 04 00 00 00       	mov    $0x4,%edx
  409fb7:	48 89 df             	mov    %rbx,%rdi
  409fba:	e8 c1 8d ff ff       	callq  402d80 <_gfortran_transfer_integer@plt>
  409fbf:	48 89 df             	mov    %rbx,%rdi
  409fc2:	48 8d 9c 24 50 1a 00 	lea    0x1a50(%rsp),%rbx
  409fc9:	00 
  409fca:	e8 41 8f ff ff       	callq  402f10 <_gfortran_st_write_done@plt>
  409fcf:	48 89 df             	mov    %rbx,%rdi
  409fd2:	48 c7 84 24 58 1a 00 	movq   $0x40cef0,0x1a58(%rsp)
  409fd9:	00 f0 ce 40 00 
  409fde:	c7 84 24 60 1a 00 00 	movl   $0x38,0x1a60(%rsp)
  409fe5:	38 00 00 00 
  409fe9:	48 c7 84 24 98 1a 00 	movq   $0x40d068,0x1a98(%rsp)
  409ff0:	00 68 d0 40 00 
  409ff5:	c7 84 24 a0 1a 00 00 	movl   $0x22,0x1aa0(%rsp)
  409ffc:	22 00 00 00 
  40a000:	c7 84 24 50 1a 00 00 	movl   $0x1000,0x1a50(%rsp)
  40a007:	00 10 00 00 
  40a00b:	c7 84 24 54 1a 00 00 	movl   $0x6,0x1a54(%rsp)
  40a012:	06 00 00 00 
  40a016:	e8 a5 8d ff ff       	callq  402dc0 <_gfortran_st_write@plt>
  40a01b:	ba 08 00 00 00       	mov    $0x8,%edx
  40a020:	48 89 ee             	mov    %rbp,%rsi
  40a023:	48 89 df             	mov    %rbx,%rdi
  40a026:	e8 45 8c ff ff       	callq  402c70 <_gfortran_transfer_real@plt>
  40a02b:	48 89 df             	mov    %rbx,%rdi
  40a02e:	48 8d 9c 24 70 18 00 	lea    0x1870(%rsp),%rbx
  40a035:	00 
  40a036:	e8 d5 8e ff ff       	callq  402f10 <_gfortran_st_write_done@plt>
  40a03b:	48 89 df             	mov    %rbx,%rdi
  40a03e:	48 c7 84 24 78 18 00 	movq   $0x40cef0,0x1878(%rsp)
  40a045:	00 f0 ce 40 00 
  40a04a:	c7 84 24 80 18 00 00 	movl   $0x3b,0x1880(%rsp)
  40a051:	3b 00 00 00 
  40a055:	48 c7 84 24 b8 18 00 	movq   $0x40d090,0x18b8(%rsp)
  40a05c:	00 90 d0 40 00 
  40a061:	c7 84 24 c0 18 00 00 	movl   $0x23,0x18c0(%rsp)
  40a068:	23 00 00 00 
  40a06c:	c7 84 24 70 18 00 00 	movl   $0x1000,0x1870(%rsp)
  40a073:	00 10 00 00 
  40a077:	c7 84 24 74 18 00 00 	movl   $0x6,0x1874(%rsp)
  40a07e:	06 00 00 00 
  40a082:	e8 39 8d ff ff       	callq  402dc0 <_gfortran_st_write@plt>
  40a087:	f3 41 0f 2a 0c 24    	cvtsi2ssl (%r12),%xmm1
  40a08d:	0f 14 c9             	unpcklps %xmm1,%xmm1
  40a090:	48 8d b4 24 00 2f 00 	lea    0x2f00(%rsp),%rsi
  40a097:	00 
  40a098:	f2 0f 10 45 00       	movsd  0x0(%rbp),%xmm0
  40a09d:	ba 08 00 00 00       	mov    $0x8,%edx
  40a0a2:	48 89 df             	mov    %rbx,%rdi
  40a0a5:	0f 5a c9             	cvtps2pd %xmm1,%xmm1
  40a0a8:	f2 0f 5e c1          	divsd  %xmm1,%xmm0
  40a0ac:	f2 0f 11 84 24 00 2f 	movsd  %xmm0,0x2f00(%rsp)
  40a0b3:	00 00 
  40a0b5:	e8 b6 8b ff ff       	callq  402c70 <_gfortran_transfer_real@plt>
  40a0ba:	48 89 df             	mov    %rbx,%rdi
  40a0bd:	48 8d 9c 24 90 16 00 	lea    0x1690(%rsp),%rbx
  40a0c4:	00 
  40a0c5:	e8 46 8e ff ff       	callq  402f10 <_gfortran_st_write_done@plt>
  40a0ca:	48 89 df             	mov    %rbx,%rdi
  40a0cd:	48 c7 84 24 98 16 00 	movq   $0x40cef0,0x1698(%rsp)
  40a0d4:	00 f0 ce 40 00 
  40a0d9:	c7 84 24 a0 16 00 00 	movl   $0x3e,0x16a0(%rsp)
  40a0e0:	3e 00 00 00 
  40a0e4:	48 c7 84 24 d8 16 00 	movq   $0x40d0b3,0x16d8(%rsp)
  40a0eb:	00 b3 d0 40 00 
  40a0f0:	c7 84 24 e0 16 00 00 	movl   $0x1c,0x16e0(%rsp)
  40a0f7:	1c 00 00 00 
  40a0fb:	c7 84 24 90 16 00 00 	movl   $0x1000,0x1690(%rsp)
  40a102:	00 10 00 00 
  40a106:	c7 84 24 94 16 00 00 	movl   $0x6,0x1694(%rsp)
  40a10d:	06 00 00 00 
  40a111:	e8 aa 8c ff ff       	callq  402dc0 <_gfortran_st_write@plt>
  40a116:	48 8b b4 24 70 2f 00 	mov    0x2f70(%rsp),%rsi
  40a11d:	00 
  40a11e:	ba 18 00 00 00       	mov    $0x18,%edx
  40a123:	48 89 df             	mov    %rbx,%rdi
  40a126:	e8 d5 8d ff ff       	callq  402f00 <_gfortran_transfer_character@plt>
  40a12b:	48 89 df             	mov    %rbx,%rdi
  40a12e:	e8 dd 8d ff ff       	callq  402f10 <_gfortran_st_write_done@plt>
  40a133:	48 8b 84 24 78 2f 00 	mov    0x2f78(%rsp),%rax
  40a13a:	00 
  40a13b:	8b 00                	mov    (%rax),%eax
  40a13d:	85 c0                	test   %eax,%eax
  40a13f:	0f 85 db 04 00 00    	jne    40a620 <print_results_+0x9d0>
  40a145:	48 8d 9c 24 d0 12 00 	lea    0x12d0(%rsp),%rbx
  40a14c:	00 
  40a14d:	48 c7 84 24 d8 12 00 	movq   $0x40cef0,0x12d8(%rsp)
  40a154:	00 f0 ce 40 00 
  40a159:	c7 84 24 e0 12 00 00 	movl   $0x44,0x12e0(%rsp)
  40a160:	44 00 00 00 
  40a164:	48 c7 84 24 18 13 00 	movq   $0x40d0d0,0x1318(%rsp)
  40a16b:	00 d0 d0 40 00 
  40a170:	c7 84 24 20 13 00 00 	movl   $0x1f,0x1320(%rsp)
  40a177:	1f 00 00 00 
  40a17b:	48 89 df             	mov    %rbx,%rdi
  40a17e:	c7 84 24 d0 12 00 00 	movl   $0x1000,0x12d0(%rsp)
  40a185:	00 10 00 00 
  40a189:	c7 84 24 d4 12 00 00 	movl   $0x6,0x12d4(%rsp)
  40a190:	06 00 00 00 
  40a194:	e8 27 8c ff ff       	callq  402dc0 <_gfortran_st_write@plt>
  40a199:	48 89 df             	mov    %rbx,%rdi
  40a19c:	ba 0c 00 00 00       	mov    $0xc,%edx
  40a1a1:	be fb d0 40 00       	mov    $0x40d0fb,%esi
  40a1a6:	e8 55 8d ff ff       	callq  402f00 <_gfortran_transfer_character@plt>
  40a1ab:	48 89 df             	mov    %rbx,%rdi
  40a1ae:	e8 5d 8d ff ff       	callq  402f10 <_gfortran_st_write_done@plt>
  40a1b3:	48 8d 9c 24 f0 10 00 	lea    0x10f0(%rsp),%rbx
  40a1ba:	00 
  40a1bb:	48 c7 84 24 f8 10 00 	movq   $0x40cef0,0x10f8(%rsp)
  40a1c2:	00 f0 ce 40 00 
  40a1c7:	c7 84 24 00 11 00 00 	movl   $0x48,0x1100(%rsp)
  40a1ce:	48 00 00 00 
  40a1d2:	48 c7 84 24 38 11 00 	movq   $0x40d108,0x1138(%rsp)
  40a1d9:	00 08 d1 40 00 
  40a1de:	c7 84 24 40 11 00 00 	movl   $0x21,0x1140(%rsp)
  40a1e5:	21 00 00 00 
  40a1e9:	48 89 df             	mov    %rbx,%rdi
  40a1ec:	c7 84 24 f0 10 00 00 	movl   $0x1000,0x10f0(%rsp)
  40a1f3:	00 10 00 00 
  40a1f7:	c7 84 24 f4 10 00 00 	movl   $0x6,0x10f4(%rsp)
  40a1fe:	06 00 00 00 
  40a202:	e8 b9 8b ff ff       	callq  402dc0 <_gfortran_st_write@plt>
  40a207:	8b 94 24 e0 2f 00 00 	mov    0x2fe0(%rsp),%edx
  40a20e:	48 8b b4 24 80 2f 00 	mov    0x2f80(%rsp),%rsi
  40a215:	00 
  40a216:	48 89 df             	mov    %rbx,%rdi
  40a219:	e8 e2 8c ff ff       	callq  402f00 <_gfortran_transfer_character@plt>
  40a21e:	48 89 df             	mov    %rbx,%rdi
  40a221:	48 8d 9c 24 10 0f 00 	lea    0xf10(%rsp),%rbx
  40a228:	00 
  40a229:	e8 e2 8c ff ff       	callq  402f10 <_gfortran_st_write_done@plt>
  40a22e:	48 89 df             	mov    %rbx,%rdi
  40a231:	48 c7 84 24 18 0f 00 	movq   $0x40cef0,0xf18(%rsp)
  40a238:	00 f0 ce 40 00 
  40a23d:	c7 84 24 20 0f 00 00 	movl   $0x4b,0xf20(%rsp)
  40a244:	4b 00 00 00 
  40a248:	48 c7 84 24 58 0f 00 	movq   $0x40d130,0xf58(%rsp)
  40a24f:	00 30 d1 40 00 
  40a254:	c7 84 24 60 0f 00 00 	movl   $0x21,0xf60(%rsp)
  40a25b:	21 00 00 00 
  40a25f:	c7 84 24 10 0f 00 00 	movl   $0x1000,0xf10(%rsp)
  40a266:	00 10 00 00 
  40a26a:	c7 84 24 14 0f 00 00 	movl   $0x6,0xf14(%rsp)
  40a271:	06 00 00 00 
  40a275:	e8 46 8b ff ff       	callq  402dc0 <_gfortran_st_write@plt>
  40a27a:	8b 94 24 e8 2f 00 00 	mov    0x2fe8(%rsp),%edx
  40a281:	48 8b b4 24 88 2f 00 	mov    0x2f88(%rsp),%rsi
  40a288:	00 
  40a289:	48 89 df             	mov    %rbx,%rdi
  40a28c:	e8 6f 8c ff ff       	callq  402f00 <_gfortran_transfer_character@plt>
  40a291:	48 89 df             	mov    %rbx,%rdi
  40a294:	48 8d 9c 24 30 0d 00 	lea    0xd30(%rsp),%rbx
  40a29b:	00 
  40a29c:	e8 6f 8c ff ff       	callq  402f10 <_gfortran_st_write_done@plt>
  40a2a1:	48 89 df             	mov    %rbx,%rdi
  40a2a4:	48 c7 84 24 38 0d 00 	movq   $0x40cef0,0xd38(%rsp)
  40a2ab:	00 f0 ce 40 00 
  40a2b0:	c7 84 24 40 0d 00 00 	movl   $0x4f,0xd40(%rsp)
  40a2b7:	4f 00 00 00 
  40a2bb:	48 c7 84 24 78 0d 00 	movq   $0x40d158,0xd78(%rsp)
  40a2c2:	00 58 d1 40 00 
  40a2c7:	c7 84 24 80 0d 00 00 	movl   $0x5c,0xd80(%rsp)
  40a2ce:	5c 00 00 00 
  40a2d2:	c7 84 24 30 0d 00 00 	movl   $0x1000,0xd30(%rsp)
  40a2d9:	00 10 00 00 
  40a2dd:	c7 84 24 34 0d 00 00 	movl   $0x6,0xd34(%rsp)
  40a2e4:	06 00 00 00 
  40a2e8:	e8 d3 8a ff ff       	callq  402dc0 <_gfortran_st_write@plt>
  40a2ed:	8b 94 24 f0 2f 00 00 	mov    0x2ff0(%rsp),%edx
  40a2f4:	48 8b b4 24 90 2f 00 	mov    0x2f90(%rsp),%rsi
  40a2fb:	00 
  40a2fc:	48 89 df             	mov    %rbx,%rdi
  40a2ff:	e8 fc 8b ff ff       	callq  402f00 <_gfortran_transfer_character@plt>
  40a304:	48 89 df             	mov    %rbx,%rdi
  40a307:	48 8d 9c 24 50 0b 00 	lea    0xb50(%rsp),%rbx
  40a30e:	00 
  40a30f:	e8 fc 8b ff ff       	callq  402f10 <_gfortran_st_write_done@plt>
  40a314:	48 89 df             	mov    %rbx,%rdi
  40a317:	48 c7 84 24 58 0b 00 	movq   $0x40cef0,0xb58(%rsp)
  40a31e:	00 f0 ce 40 00 
  40a323:	c7 84 24 60 0b 00 00 	movl   $0x53,0xb60(%rsp)
  40a32a:	53 00 00 00 
  40a32e:	48 c7 84 24 98 0b 00 	movq   $0x40d1b4,0xb98(%rsp)
  40a335:	00 b4 d1 40 00 
  40a33a:	c7 84 24 a0 0b 00 00 	movl   $0x1a,0xba0(%rsp)
  40a341:	1a 00 00 00 
  40a345:	c7 84 24 50 0b 00 00 	movl   $0x1000,0xb50(%rsp)
  40a34c:	00 10 00 00 
  40a350:	c7 84 24 54 0b 00 00 	movl   $0x6,0xb54(%rsp)
  40a357:	06 00 00 00 
  40a35b:	e8 60 8a ff ff       	callq  402dc0 <_gfortran_st_write@plt>
  40a360:	8b 94 24 f8 2f 00 00 	mov    0x2ff8(%rsp),%edx
  40a367:	48 8b b4 24 98 2f 00 	mov    0x2f98(%rsp),%rsi
  40a36e:	00 
  40a36f:	48 89 df             	mov    %rbx,%rdi
  40a372:	e8 89 8b ff ff       	callq  402f00 <_gfortran_transfer_character@plt>
  40a377:	48 89 df             	mov    %rbx,%rdi
  40a37a:	48 8d 9c 24 70 09 00 	lea    0x970(%rsp),%rbx
  40a381:	00 
  40a382:	e8 89 8b ff ff       	callq  402f10 <_gfortran_st_write_done@plt>
  40a387:	48 89 df             	mov    %rbx,%rdi
  40a38a:	48 c7 84 24 78 09 00 	movq   $0x40cef0,0x978(%rsp)
  40a391:	00 f0 ce 40 00 
  40a396:	c7 84 24 80 09 00 00 	movl   $0x56,0x980(%rsp)
  40a39d:	56 00 00 00 
  40a3a1:	48 c7 84 24 b8 09 00 	movq   $0x40d1ce,0x9b8(%rsp)
  40a3a8:	00 ce d1 40 00 
  40a3ad:	c7 84 24 c0 09 00 00 	movl   $0x1a,0x9c0(%rsp)
  40a3b4:	1a 00 00 00 
  40a3b8:	c7 84 24 70 09 00 00 	movl   $0x1000,0x970(%rsp)
  40a3bf:	00 10 00 00 
  40a3c3:	c7 84 24 74 09 00 00 	movl   $0x6,0x974(%rsp)
  40a3ca:	06 00 00 00 
  40a3ce:	e8 ed 89 ff ff       	callq  402dc0 <_gfortran_st_write@plt>
  40a3d3:	8b 94 24 00 30 00 00 	mov    0x3000(%rsp),%edx
  40a3da:	48 8b b4 24 a0 2f 00 	mov    0x2fa0(%rsp),%rsi
  40a3e1:	00 
  40a3e2:	48 89 df             	mov    %rbx,%rdi
  40a3e5:	e8 16 8b ff ff       	callq  402f00 <_gfortran_transfer_character@plt>
  40a3ea:	48 89 df             	mov    %rbx,%rdi
  40a3ed:	48 8d 9c 24 90 07 00 	lea    0x790(%rsp),%rbx
  40a3f4:	00 
  40a3f5:	e8 16 8b ff ff       	callq  402f10 <_gfortran_st_write_done@plt>
  40a3fa:	48 89 df             	mov    %rbx,%rdi
  40a3fd:	48 c7 84 24 98 07 00 	movq   $0x40cef0,0x798(%rsp)
  40a404:	00 f0 ce 40 00 
  40a409:	c7 84 24 a0 07 00 00 	movl   $0x59,0x7a0(%rsp)
  40a410:	59 00 00 00 
  40a414:	48 c7 84 24 d8 07 00 	movq   $0x40d1e8,0x7d8(%rsp)
  40a41b:	00 e8 d1 40 00 
  40a420:	c7 84 24 e0 07 00 00 	movl   $0x1a,0x7e0(%rsp)
  40a427:	1a 00 00 00 
  40a42b:	c7 84 24 90 07 00 00 	movl   $0x1000,0x790(%rsp)
  40a432:	00 10 00 00 
  40a436:	c7 84 24 94 07 00 00 	movl   $0x6,0x794(%rsp)
  40a43d:	06 00 00 00 
  40a441:	e8 7a 89 ff ff       	callq  402dc0 <_gfortran_st_write@plt>
  40a446:	8b 94 24 08 30 00 00 	mov    0x3008(%rsp),%edx
  40a44d:	48 8b b4 24 a8 2f 00 	mov    0x2fa8(%rsp),%rsi
  40a454:	00 
  40a455:	48 89 df             	mov    %rbx,%rdi
  40a458:	e8 a3 8a ff ff       	callq  402f00 <_gfortran_transfer_character@plt>
  40a45d:	48 89 df             	mov    %rbx,%rdi
  40a460:	48 8d 9c 24 b0 05 00 	lea    0x5b0(%rsp),%rbx
  40a467:	00 
  40a468:	e8 a3 8a ff ff       	callq  402f10 <_gfortran_st_write_done@plt>
  40a46d:	48 89 df             	mov    %rbx,%rdi
  40a470:	48 c7 84 24 b8 05 00 	movq   $0x40cef0,0x5b8(%rsp)
  40a477:	00 f0 ce 40 00 
  40a47c:	c7 84 24 c0 05 00 00 	movl   $0x5c,0x5c0(%rsp)
  40a483:	5c 00 00 00 
  40a487:	48 c7 84 24 f8 05 00 	movq   $0x40d202,0x5f8(%rsp)
  40a48e:	00 02 d2 40 00 
  40a493:	c7 84 24 00 06 00 00 	movl   $0x1a,0x600(%rsp)
  40a49a:	1a 00 00 00 
  40a49e:	c7 84 24 b0 05 00 00 	movl   $0x1000,0x5b0(%rsp)
  40a4a5:	00 10 00 00 
  40a4a9:	c7 84 24 b4 05 00 00 	movl   $0x6,0x5b4(%rsp)
  40a4b0:	06 00 00 00 
  40a4b4:	e8 07 89 ff ff       	callq  402dc0 <_gfortran_st_write@plt>
  40a4b9:	8b 94 24 10 30 00 00 	mov    0x3010(%rsp),%edx
  40a4c0:	48 8b b4 24 b0 2f 00 	mov    0x2fb0(%rsp),%rsi
  40a4c7:	00 
  40a4c8:	48 89 df             	mov    %rbx,%rdi
  40a4cb:	e8 30 8a ff ff       	callq  402f00 <_gfortran_transfer_character@plt>
  40a4d0:	48 89 df             	mov    %rbx,%rdi
  40a4d3:	48 8d 9c 24 d0 03 00 	lea    0x3d0(%rsp),%rbx
  40a4da:	00 
  40a4db:	e8 30 8a ff ff       	callq  402f10 <_gfortran_st_write_done@plt>
  40a4e0:	48 89 df             	mov    %rbx,%rdi
  40a4e3:	48 c7 84 24 d8 03 00 	movq   $0x40cef0,0x3d8(%rsp)
  40a4ea:	00 f0 ce 40 00 
  40a4ef:	c7 84 24 e0 03 00 00 	movl   $0x5f,0x3e0(%rsp)
  40a4f6:	5f 00 00 00 
  40a4fa:	48 c7 84 24 18 04 00 	movq   $0x40d21c,0x418(%rsp)
  40a501:	00 1c d2 40 00 
  40a506:	c7 84 24 20 04 00 00 	movl   $0x1a,0x420(%rsp)
  40a50d:	1a 00 00 00 
  40a511:	c7 84 24 d0 03 00 00 	movl   $0x1000,0x3d0(%rsp)
  40a518:	00 10 00 00 
  40a51c:	c7 84 24 d4 03 00 00 	movl   $0x6,0x3d4(%rsp)
  40a523:	06 00 00 00 
  40a527:	e8 94 88 ff ff       	callq  402dc0 <_gfortran_st_write@plt>
  40a52c:	8b 94 24 18 30 00 00 	mov    0x3018(%rsp),%edx
  40a533:	48 8b b4 24 b8 2f 00 	mov    0x2fb8(%rsp),%rsi
  40a53a:	00 
  40a53b:	48 89 df             	mov    %rbx,%rdi
  40a53e:	e8 bd 89 ff ff       	callq  402f00 <_gfortran_transfer_character@plt>
  40a543:	48 89 df             	mov    %rbx,%rdi
  40a546:	48 8d 9c 24 f0 01 00 	lea    0x1f0(%rsp),%rbx
  40a54d:	00 
  40a54e:	e8 bd 89 ff ff       	callq  402f10 <_gfortran_st_write_done@plt>
  40a553:	48 89 df             	mov    %rbx,%rdi
  40a556:	48 c7 84 24 f8 01 00 	movq   $0x40cef0,0x1f8(%rsp)
  40a55d:	00 f0 ce 40 00 
  40a562:	c7 84 24 00 02 00 00 	movl   $0x62,0x200(%rsp)
  40a569:	62 00 00 00 
  40a56d:	48 c7 84 24 38 02 00 	movq   $0x40d236,0x238(%rsp)
  40a574:	00 36 d2 40 00 
  40a579:	c7 84 24 40 02 00 00 	movl   $0x1a,0x240(%rsp)
  40a580:	1a 00 00 00 
  40a584:	c7 84 24 f0 01 00 00 	movl   $0x1000,0x1f0(%rsp)
  40a58b:	00 10 00 00 
  40a58f:	c7 84 24 f4 01 00 00 	movl   $0x6,0x1f4(%rsp)
  40a596:	06 00 00 00 
  40a59a:	e8 21 88 ff ff       	callq  402dc0 <_gfortran_st_write@plt>
  40a59f:	8b 94 24 20 30 00 00 	mov    0x3020(%rsp),%edx
  40a5a6:	48 8b b4 24 c0 2f 00 	mov    0x2fc0(%rsp),%rsi
  40a5ad:	00 
  40a5ae:	48 89 df             	mov    %rbx,%rdi
  40a5b1:	e8 4a 89 ff ff       	callq  402f00 <_gfortran_transfer_character@plt>
  40a5b6:	48 89 df             	mov    %rbx,%rdi
  40a5b9:	48 8d 5c 24 10       	lea    0x10(%rsp),%rbx
  40a5be:	e8 4d 89 ff ff       	callq  402f10 <_gfortran_st_write_done@plt>
  40a5c3:	48 89 df             	mov    %rbx,%rdi
  40a5c6:	48 c7 44 24 18 f0 ce 	movq   $0x40cef0,0x18(%rsp)
  40a5cd:	40 00 
  40a5cf:	c7 44 24 20 65 00 00 	movl   $0x65,0x20(%rsp)
  40a5d6:	00 
  40a5d7:	48 c7 44 24 58 50 d2 	movq   $0x40d250,0x58(%rsp)
  40a5de:	40 00 
  40a5e0:	c7 44 24 60 e9 00 00 	movl   $0xe9,0x60(%rsp)
  40a5e7:	00 
  40a5e8:	c7 44 24 10 00 10 00 	movl   $0x1000,0x10(%rsp)
  40a5ef:	00 
  40a5f0:	c7 44 24 14 06 00 00 	movl   $0x6,0x14(%rsp)
  40a5f7:	00 
  40a5f8:	e8 c3 87 ff ff       	callq  402dc0 <_gfortran_st_write@plt>
  40a5fd:	48 89 df             	mov    %rbx,%rdi
  40a600:	e8 0b 89 ff ff       	callq  402f10 <_gfortran_st_write_done@plt>
  40a605:	48 81 c4 18 2f 00 00 	add    $0x2f18,%rsp
  40a60c:	5b                   	pop    %rbx
  40a60d:	5d                   	pop    %rbp
  40a60e:	41 5c                	pop    %r12
  40a610:	41 5d                	pop    %r13
  40a612:	41 5e                	pop    %r14
  40a614:	41 5f                	pop    %r15
  40a616:	c3                   	retq   
  40a617:	66 0f 1f 84 00 00 00 	nopw   0x0(%rax,%rax,1)
  40a61e:	00 00 
  40a620:	48 8d 9c 24 b0 14 00 	lea    0x14b0(%rsp),%rbx
  40a627:	00 
  40a628:	48 c7 84 24 b8 14 00 	movq   $0x40cef0,0x14b8(%rsp)
  40a62f:	00 f0 ce 40 00 
  40a634:	c7 84 24 c0 14 00 00 	movl   $0x42,0x14c0(%rsp)
  40a63b:	42 00 00 00 
  40a63f:	48 c7 84 24 f8 14 00 	movq   $0x40d0d0,0x14f8(%rsp)
  40a646:	00 d0 d0 40 00 
  40a64b:	c7 84 24 00 15 00 00 	movl   $0x1f,0x1500(%rsp)
  40a652:	1f 00 00 00 
  40a656:	48 89 df             	mov    %rbx,%rdi
  40a659:	c7 84 24 b0 14 00 00 	movl   $0x1000,0x14b0(%rsp)
  40a660:	00 10 00 00 
  40a664:	c7 84 24 b4 14 00 00 	movl   $0x6,0x14b4(%rsp)
  40a66b:	06 00 00 00 
  40a66f:	e8 4c 87 ff ff       	callq  402dc0 <_gfortran_st_write@plt>
  40a674:	48 89 df             	mov    %rbx,%rdi
  40a677:	ba 0c 00 00 00       	mov    $0xc,%edx
  40a67c:	be ef d0 40 00       	mov    $0x40d0ef,%esi
  40a681:	e8 7a 88 ff ff       	callq  402f00 <_gfortran_transfer_character@plt>
  40a686:	48 89 df             	mov    %rbx,%rdi
  40a689:	e8 82 88 ff ff       	callq  402f10 <_gfortran_st_write_done@plt>
  40a68e:	e9 20 fb ff ff       	jmpq   40a1b3 <print_results_+0x563>
  40a693:	0f 1f 44 00 00       	nopl   0x0(%rax,%rax,1)
  40a698:	b9 49 cf 40 00       	mov    $0x40cf49,%ecx
  40a69d:	ba 02 00 00 00       	mov    $0x2,%edx
  40a6a2:	4c 89 fe             	mov    %r15,%rsi
  40a6a5:	bf 02 00 00 00       	mov    $0x2,%edi
  40a6aa:	e8 41 86 ff ff       	callq  402cf0 <_gfortran_compare_string@plt>
  40a6af:	85 c0                	test   %eax,%eax
  40a6b1:	0f 85 39 01 00 00    	jne    40a7f0 <print_results_+0xba0>
  40a6b7:	4c 8d ac 24 50 29 00 	lea    0x2950(%rsp),%r13
  40a6be:	00 
  40a6bf:	48 8d 9c 24 f0 2e 00 	lea    0x2ef0(%rsp),%rbx
  40a6c6:	00 
  40a6c7:	48 c7 84 24 58 29 00 	movq   $0x40cef0,0x2958(%rsp)
  40a6ce:	00 f0 ce 40 00 
  40a6d3:	c7 84 24 60 29 00 00 	movl   $0x1e,0x2960(%rsp)
  40a6da:	1e 00 00 00 
  40a6de:	c7 84 24 b8 29 00 00 	movl   $0xf,0x29b8(%rsp)
  40a6e5:	0f 00 00 00 
  40a6e9:	45 31 ff             	xor    %r15d,%r15d
  40a6ec:	4c 89 ef             	mov    %r13,%rdi
  40a6ef:	48 89 9c 24 b0 29 00 	mov    %rbx,0x29b0(%rsp)
  40a6f6:	00 
  40a6f7:	48 c7 84 24 90 29 00 	movq   $0x0,0x2990(%rsp)
  40a6fe:	00 00 00 00 00 
  40a703:	c7 84 24 54 29 00 00 	movl   $0x0,0x2954(%rsp)
  40a70a:	00 00 00 00 
  40a70e:	48 c7 84 24 98 29 00 	movq   $0x40cf4b,0x2998(%rsp)
  40a715:	00 4b cf 40 00 
  40a71a:	c7 84 24 a0 29 00 00 	movl   $0x7,0x29a0(%rsp)
  40a721:	07 00 00 00 
  40a725:	c7 84 24 50 29 00 00 	movl   $0x5000,0x2950(%rsp)
  40a72c:	00 50 00 00 
  40a730:	e8 8b 86 ff ff       	callq  402dc0 <_gfortran_st_write@plt>
  40a735:	48 8b 44 24 08       	mov    0x8(%rsp),%rax
  40a73a:	f2 0f 10 05 fe 2b 00 	movsd  0x2bfe(%rip),%xmm0        # 40d340 <options.0.1652+0x4e0>
  40a741:	00 
  40a742:	8b 38                	mov    (%rax),%edi
  40a744:	e8 e7 87 ff ff       	callq  402f30 <__powidf2@plt>
  40a749:	48 8d b4 24 08 2f 00 	lea    0x2f08(%rsp),%rsi
  40a750:	00 
  40a751:	ba 08 00 00 00       	mov    $0x8,%edx
  40a756:	4c 89 ef             	mov    %r13,%rdi
  40a759:	f2 0f 11 84 24 08 2f 	movsd  %xmm0,0x2f08(%rsp)
  40a760:	00 00 
  40a762:	e8 09 85 ff ff       	callq  402c70 <_gfortran_transfer_real@plt>
  40a767:	4c 89 ef             	mov    %r13,%rdi
  40a76a:	4c 8d ac 24 70 27 00 	lea    0x2770(%rsp),%r13
  40a771:	00 
  40a772:	e8 99 87 ff ff       	callq  402f10 <_gfortran_st_write_done@plt>
  40a777:	80 bc 24 fe 2e 00 00 	cmpb   $0x2e,0x2efe(%rsp)
  40a77e:	2e 
  40a77f:	4c 89 ef             	mov    %r13,%rdi
  40a782:	48 c7 84 24 78 27 00 	movq   $0x40cef0,0x2778(%rsp)
  40a789:	00 f0 ce 40 00 
  40a78e:	c7 84 24 80 27 00 00 	movl   $0x21,0x2780(%rsp)
  40a795:	21 00 00 00 
  40a799:	48 c7 84 24 b8 27 00 	movq   $0x40cf58,0x27b8(%rsp)
  40a7a0:	00 58 cf 40 00 
  40a7a5:	c7 84 24 c0 27 00 00 	movl   $0x1f,0x27c0(%rsp)
  40a7ac:	1f 00 00 00 
  40a7b0:	c7 84 24 70 27 00 00 	movl   $0x1000,0x2770(%rsp)
  40a7b7:	00 10 00 00 
  40a7bb:	c7 84 24 74 27 00 00 	movl   $0x6,0x2774(%rsp)
  40a7c2:	06 00 00 00 
  40a7c6:	41 0f 95 c7          	setne  %r15b
  40a7ca:	41 83 c7 0e          	add    $0xe,%r15d
  40a7ce:	e8 ed 85 ff ff       	callq  402dc0 <_gfortran_st_write@plt>
  40a7d3:	4c 89 ef             	mov    %r13,%rdi
  40a7d6:	44 89 fa             	mov    %r15d,%edx
  40a7d9:	48 89 de             	mov    %rbx,%rsi
  40a7dc:	e8 1f 87 ff ff       	callq  402f00 <_gfortran_transfer_character@plt>
  40a7e1:	4c 89 ef             	mov    %r13,%rdi
  40a7e4:	e8 27 87 ff ff       	callq  402f10 <_gfortran_st_write_done@plt>
  40a7e9:	e9 1f f6 ff ff       	jmpq   409e0d <print_results_+0x1bd>
  40a7ee:	66 90                	xchg   %ax,%ax
  40a7f0:	48 8d 9c 24 90 25 00 	lea    0x2590(%rsp),%rbx
  40a7f7:	00 
  40a7f8:	48 c7 84 24 98 25 00 	movq   $0x40cef0,0x2598(%rsp)
  40a7ff:	00 f0 ce 40 00 
  40a804:	c7 84 24 a0 25 00 00 	movl   $0x24,0x25a0(%rsp)
  40a80b:	24 00 00 00 
  40a80f:	48 c7 84 24 d8 25 00 	movq   $0x40cf78,0x25d8(%rsp)
  40a816:	00 78 cf 40 00 
  40a81b:	c7 84 24 e0 25 00 00 	movl   $0x20,0x25e0(%rsp)
  40a822:	20 00 00 00 
  40a826:	48 89 df             	mov    %rbx,%rdi
  40a829:	c7 84 24 90 25 00 00 	movl   $0x1000,0x2590(%rsp)
  40a830:	00 10 00 00 
  40a834:	c7 84 24 94 25 00 00 	movl   $0x6,0x2594(%rsp)
  40a83b:	06 00 00 00 
  40a83f:	e8 7c 85 ff ff       	callq  402dc0 <_gfortran_st_write@plt>
  40a844:	48 8b 74 24 08       	mov    0x8(%rsp),%rsi
  40a849:	48 89 df             	mov    %rbx,%rdi
  40a84c:	ba 04 00 00 00       	mov    $0x4,%edx
  40a851:	e8 2a 85 ff ff       	callq  402d80 <_gfortran_transfer_integer@plt>
  40a856:	48 89 df             	mov    %rbx,%rdi
  40a859:	e8 b2 86 ff ff       	callq  402f10 <_gfortran_st_write_done@plt>
  40a85e:	e9 aa f5 ff ff       	jmpq   409e0d <print_results_+0x1bd>
  40a863:	90                   	nop
  40a864:	90                   	nop
  40a865:	90                   	nop
  40a866:	90                   	nop
  40a867:	90                   	nop
  40a868:	90                   	nop
  40a869:	90                   	nop
  40a86a:	90                   	nop
  40a86b:	90                   	nop
  40a86c:	90                   	nop
  40a86d:	90                   	nop
  40a86e:	90                   	nop
  40a86f:	90                   	nop

000000000040a870 <timer_clear_>:
  40a870:	48 63 07             	movslq (%rdi),%rax
  40a873:	48 c7 04 c5 18 49 70 	movq   $0x0,0x704918(,%rax,8)
  40a87a:	00 00 00 00 00 
  40a87f:	c3                   	retq   

000000000040a880 <timer_read_>:
  40a880:	48 63 07             	movslq (%rdi),%rax
  40a883:	f2 0f 10 04 c5 18 49 	movsd  0x704918(,%rax,8),%xmm0
  40a88a:	70 00 
  40a88c:	c3                   	retq   
  40a88d:	0f 1f 00             	nopl   (%rax)

000000000040a890 <timer_stop_>:
  40a890:	53                   	push   %rbx
  40a891:	31 c0                	xor    %eax,%eax
  40a893:	48 89 fb             	mov    %rdi,%rbx
  40a896:	e8 b5 84 ff ff       	callq  402d50 <mpi_wtime_@plt>
  40a89b:	48 63 13             	movslq (%rbx),%rdx
  40a89e:	5b                   	pop    %rbx
  40a89f:	f2 0f 5c 04 d5 18 47 	subsd  0x704718(,%rdx,8),%xmm0
  40a8a6:	70 00 
  40a8a8:	48 8d 42 3f          	lea    0x3f(%rdx),%rax
  40a8ac:	f2 0f 58 04 c5 20 47 	addsd  0x704720(,%rax,8),%xmm0
  40a8b3:	70 00 
  40a8b5:	f2 0f 11 04 c5 20 47 	movsd  %xmm0,0x704720(,%rax,8)
  40a8bc:	70 00 
  40a8be:	c3                   	retq   
  40a8bf:	90                   	nop

000000000040a8c0 <timer_start_>:
  40a8c0:	53                   	push   %rbx
  40a8c1:	48 63 1f             	movslq (%rdi),%rbx
  40a8c4:	31 c0                	xor    %eax,%eax
  40a8c6:	e8 85 84 ff ff       	callq  402d50 <mpi_wtime_@plt>
  40a8cb:	48 83 eb 01          	sub    $0x1,%rbx
  40a8cf:	f2 0f 11 04 dd 20 47 	movsd  %xmm0,0x704720(,%rbx,8)
  40a8d6:	70 00 
  40a8d8:	5b                   	pop    %rbx
  40a8d9:	c3                   	retq   
  40a8da:	90                   	nop
  40a8db:	90                   	nop
  40a8dc:	90                   	nop
  40a8dd:	90                   	nop
  40a8de:	90                   	nop
  40a8df:	90                   	nop

000000000040a8e0 <PinMPI_Send>:
  40a8e0:	89 7c 24 fc          	mov    %edi,-0x4(%rsp)
  40a8e4:	89 74 24 f8          	mov    %esi,-0x8(%rsp)
  40a8e8:	89 54 24 f4          	mov    %edx,-0xc(%rsp)
  40a8ec:	89 4c 24 f0          	mov    %ecx,-0x10(%rsp)
  40a8f0:	c7 44 24 f0 00 00 00 	movl   $0x0,-0x10(%rsp)
  40a8f7:	00 
  40a8f8:	c3                   	retq   
  40a8f9:	0f 1f 80 00 00 00 00 	nopl   0x0(%rax)

000000000040a900 <PinMPI_Recv>:
  40a900:	89 7c 24 fc          	mov    %edi,-0x4(%rsp)
  40a904:	89 74 24 f8          	mov    %esi,-0x8(%rsp)
  40a908:	89 54 24 f4          	mov    %edx,-0xc(%rsp)
  40a90c:	89 4c 24 f0          	mov    %ecx,-0x10(%rsp)
  40a910:	c7 44 24 f0 00 00 00 	movl   $0x0,-0x10(%rsp)
  40a917:	00 
  40a918:	c3                   	retq   
  40a919:	0f 1f 80 00 00 00 00 	nopl   0x0(%rax)

000000000040a920 <PinMPI_Barrier>:
  40a920:	89 7c 24 fc          	mov    %edi,-0x4(%rsp)
  40a924:	48 89 74 24 f0       	mov    %rsi,-0x10(%rsp)
  40a929:	89 54 24 ec          	mov    %edx,-0x14(%rsp)
  40a92d:	c7 44 24 ec 00 00 00 	movl   $0x0,-0x14(%rsp)
  40a934:	00 
  40a935:	c3                   	retq   
  40a936:	66 2e 0f 1f 84 00 00 	nopw   %cs:0x0(%rax,%rax,1)
  40a93d:	00 00 00 

000000000040a940 <PinMPI_Bcast>:
  40a940:	89 7c 24 fc          	mov    %edi,-0x4(%rsp)
  40a944:	48 89 74 24 f0       	mov    %rsi,-0x10(%rsp)
  40a949:	89 54 24 ec          	mov    %edx,-0x14(%rsp)
  40a94d:	89 4c 24 e8          	mov    %ecx,-0x18(%rsp)
  40a951:	c7 44 24 e8 00 00 00 	movl   $0x0,-0x18(%rsp)
  40a958:	00 
  40a959:	c3                   	retq   
  40a95a:	66 0f 1f 44 00 00    	nopw   0x0(%rax,%rax,1)

000000000040a960 <PinMPI_Reduce>:
  40a960:	89 7c 24 fc          	mov    %edi,-0x4(%rsp)
  40a964:	48 89 74 24 f0       	mov    %rsi,-0x10(%rsp)
  40a969:	89 54 24 ec          	mov    %edx,-0x14(%rsp)
  40a96d:	89 4c 24 e8          	mov    %ecx,-0x18(%rsp)
  40a971:	c7 44 24 e8 00 00 00 	movl   $0x0,-0x18(%rsp)
  40a978:	00 
  40a979:	c3                   	retq   
  40a97a:	66 0f 1f 44 00 00    	nopw   0x0(%rax,%rax,1)

000000000040a980 <PinMPI_Allreduce>:
  40a980:	89 7c 24 fc          	mov    %edi,-0x4(%rsp)
  40a984:	48 89 74 24 f0       	mov    %rsi,-0x10(%rsp)
  40a989:	89 54 24 ec          	mov    %edx,-0x14(%rsp)
  40a98d:	c7 44 24 ec 00 00 00 	movl   $0x0,-0x14(%rsp)
  40a994:	00 
  40a995:	c3                   	retq   
  40a996:	66 2e 0f 1f 84 00 00 	nopw   %cs:0x0(%rax,%rax,1)
  40a99d:	00 00 00 

000000000040a9a0 <PinMPI_Allgather>:
  40a9a0:	89 7c 24 fc          	mov    %edi,-0x4(%rsp)
  40a9a4:	48 89 74 24 f0       	mov    %rsi,-0x10(%rsp)
  40a9a9:	89 54 24 ec          	mov    %edx,-0x14(%rsp)
  40a9ad:	c7 44 24 ec 00 00 00 	movl   $0x0,-0x14(%rsp)
  40a9b4:	00 
  40a9b5:	c3                   	retq   
  40a9b6:	66 2e 0f 1f 84 00 00 	nopw   %cs:0x0(%rax,%rax,1)
  40a9bd:	00 00 00 

000000000040a9c0 <PinMPI_Alltoall>:
  40a9c0:	89 7c 24 fc          	mov    %edi,-0x4(%rsp)
  40a9c4:	48 89 74 24 f0       	mov    %rsi,-0x10(%rsp)
  40a9c9:	89 54 24 ec          	mov    %edx,-0x14(%rsp)
  40a9cd:	c7 44 24 ec 00 00 00 	movl   $0x0,-0x14(%rsp)
  40a9d4:	00 
  40a9d5:	c3                   	retq   
  40a9d6:	66 2e 0f 1f 84 00 00 	nopw   %cs:0x0(%rax,%rax,1)
  40a9dd:	00 00 00 

000000000040a9e0 <getTotalSize>:
  40a9e0:	48 83 ec 08          	sub    $0x8,%rsp
  40a9e4:	48 81 fe 40 f4 60 00 	cmp    $0x60f440,%rsi
  40a9eb:	89 f8                	mov    %edi,%eax
  40a9ed:	0f 84 3d 01 00 00    	je     40ab30 <getTotalSize+0x150>
  40a9f3:	48 81 fe 40 12 61 00 	cmp    $0x611240,%rsi
  40a9fa:	0f 84 30 01 00 00    	je     40ab30 <getTotalSize+0x150>
  40aa00:	48 81 fe 40 f0 60 00 	cmp    $0x60f040,%rsi
  40aa07:	0f 84 23 01 00 00    	je     40ab30 <getTotalSize+0x150>
  40aa0d:	48 81 fe 40 06 61 00 	cmp    $0x610640,%rsi
  40aa14:	0f 84 26 01 00 00    	je     40ab40 <getTotalSize+0x160>
  40aa1a:	48 81 fe 60 1c 61 00 	cmp    $0x611c60,%rsi
  40aa21:	0f 84 19 01 00 00    	je     40ab40 <getTotalSize+0x160>
  40aa27:	48 81 fe 40 16 61 00 	cmp    $0x611640,%rsi
  40aa2e:	0f 84 04 01 00 00    	je     40ab38 <getTotalSize+0x158>
  40aa34:	48 81 fe 40 fc 60 00 	cmp    $0x60fc40,%rsi
  40aa3b:	0f 84 f7 00 00 00    	je     40ab38 <getTotalSize+0x158>
  40aa41:	48 81 fe 40 00 61 00 	cmp    $0x610040,%rsi
  40aa48:	0f 84 ea 00 00 00    	je     40ab38 <getTotalSize+0x158>
  40aa4e:	48 81 fe 40 10 61 00 	cmp    $0x611040,%rsi
  40aa55:	0f 84 f5 00 00 00    	je     40ab50 <getTotalSize+0x170>
  40aa5b:	48 81 fe 60 18 61 00 	cmp    $0x611860,%rsi
  40aa62:	0f 84 e8 00 00 00    	je     40ab50 <getTotalSize+0x170>
  40aa68:	48 81 fe 40 0e 61 00 	cmp    $0x610e40,%rsi
  40aa6f:	0f 84 db 00 00 00    	je     40ab50 <getTotalSize+0x170>
  40aa75:	48 81 fe 40 fe 60 00 	cmp    $0x60fe40,%rsi
  40aa7c:	0f 84 ce 00 00 00    	je     40ab50 <getTotalSize+0x170>
  40aa82:	48 81 fe 40 04 61 00 	cmp    $0x610440,%rsi
  40aa89:	0f 84 d1 00 00 00    	je     40ab60 <getTotalSize+0x180>
  40aa8f:	48 81 fe 40 08 61 00 	cmp    $0x610840,%rsi
  40aa96:	0f 84 94 00 00 00    	je     40ab30 <getTotalSize+0x150>
  40aa9c:	48 81 fe 60 1a 61 00 	cmp    $0x611a60,%rsi
  40aaa3:	0f 84 87 00 00 00    	je     40ab30 <getTotalSize+0x150>
  40aaa9:	48 81 fe 60 20 61 00 	cmp    $0x612060,%rsi
  40aab0:	0f 84 8a 00 00 00    	je     40ab40 <getTotalSize+0x160>
  40aab6:	48 81 fe 40 0a 61 00 	cmp    $0x610a40,%rsi
  40aabd:	74 79                	je     40ab38 <getTotalSize+0x158>
  40aabf:	48 81 fe 40 f6 60 00 	cmp    $0x60f640,%rsi
  40aac6:	74 70                	je     40ab38 <getTotalSize+0x158>
  40aac8:	48 81 fe 40 e6 60 00 	cmp    $0x60e640,%rsi
  40aacf:	74 67                	je     40ab38 <getTotalSize+0x158>
  40aad1:	48 81 fe 40 02 61 00 	cmp    $0x610240,%rsi
  40aad8:	74 5e                	je     40ab38 <getTotalSize+0x158>
  40aada:	48 81 fe 60 24 61 00 	cmp    $0x612460,%rsi
  40aae1:	74 55                	je     40ab38 <getTotalSize+0x158>
  40aae3:	48 81 fe 40 14 61 00 	cmp    $0x611440,%rsi
  40aaea:	74 64                	je     40ab50 <getTotalSize+0x170>
  40aaec:	48 81 fe 60 22 61 00 	cmp    $0x612260,%rsi
  40aaf3:	74 5b                	je     40ab50 <getTotalSize+0x170>
  40aaf5:	48 81 fe 40 f2 60 00 	cmp    $0x60f240,%rsi
  40aafc:	74 52                	je     40ab50 <getTotalSize+0x170>
  40aafe:	48 81 fe 40 0c 61 00 	cmp    $0x610c40,%rsi
  40ab05:	74 49                	je     40ab50 <getTotalSize+0x170>
  40ab07:	48 81 fe 60 1e 61 00 	cmp    $0x611e60,%rsi
  40ab0e:	74 50                	je     40ab60 <getTotalSize+0x180>
  40ab10:	8b 15 6a a3 2f 00    	mov    0x2fa36a(%rip),%edx        # 704e80 <rank_pmpi>
  40ab16:	48 8b 3d 23 6d 20 00 	mov    0x206d23(%rip),%rdi        # 611840 <stderr@@GLIBC_2.2.5>
  40ab1d:	89 f1                	mov    %esi,%ecx
  40ab1f:	31 c0                	xor    %eax,%eax
  40ab21:	be 48 d3 40 00       	mov    $0x40d348,%esi
  40ab26:	e8 65 83 ff ff       	callq  402e90 <fprintf@plt>
  40ab2b:	31 c0                	xor    %eax,%eax
  40ab2d:	0f 1f 00             	nopl   (%rax)
  40ab30:	48 83 c4 08          	add    $0x8,%rsp
  40ab34:	c3                   	retq   
  40ab35:	0f 1f 00             	nopl   (%rax)
  40ab38:	c1 e0 02             	shl    $0x2,%eax
  40ab3b:	48 83 c4 08          	add    $0x8,%rsp
  40ab3f:	c3                   	retq   
  40ab40:	01 c0                	add    %eax,%eax
  40ab42:	48 83 c4 08          	add    $0x8,%rsp
  40ab46:	c3                   	retq   
  40ab47:	66 0f 1f 84 00 00 00 	nopw   0x0(%rax,%rax,1)
  40ab4e:	00 00 
  40ab50:	c1 e0 03             	shl    $0x3,%eax
  40ab53:	48 83 c4 08          	add    $0x8,%rsp
  40ab57:	c3                   	retq   
  40ab58:	0f 1f 84 00 00 00 00 	nopl   0x0(%rax,%rax,1)
  40ab5f:	00 
  40ab60:	c1 e0 04             	shl    $0x4,%eax
  40ab63:	eb cb                	jmp    40ab30 <getTotalSize+0x150>
  40ab65:	66 66 2e 0f 1f 84 00 	data32 nopw %cs:0x0(%rax,%rax,1)
  40ab6c:	00 00 00 00 

000000000040ab70 <MPI_Barrier>:
  40ab70:	48 89 5c 24 f0       	mov    %rbx,-0x10(%rsp)
  40ab75:	48 89 6c 24 f8       	mov    %rbp,-0x8(%rsp)
  40ab7a:	48 83 ec 18          	sub    $0x18,%rsp
  40ab7e:	48 89 fd             	mov    %rdi,%rbp
  40ab81:	e8 1a 82 ff ff       	callq  402da0 <PMPI_Barrier@plt>
  40ab86:	49 89 e9             	mov    %rbp,%r9
  40ab89:	41 b8 40 e8 60 00    	mov    $0x60e840,%r8d
  40ab8f:	b9 60 26 61 00       	mov    $0x612660,%ecx
  40ab94:	ba 01 00 00 00       	mov    $0x1,%edx
  40ab99:	be 20 4b 70 00       	mov    $0x704b20,%esi
  40ab9e:	bf 30 4b 70 00       	mov    $0x704b30,%edi
  40aba3:	89 c3                	mov    %eax,%ebx
  40aba5:	e8 06 81 ff ff       	callq  402cb0 <PMPI_Allreduce@plt>
  40abaa:	8b 15 8c 9f 2f 00    	mov    0x2f9f8c(%rip),%edx        # 704b3c <byte0>
  40abb0:	48 8b 35 69 9f 2f 00 	mov    0x2f9f69(%rip),%rsi        # 704b20 <identity_gather_pmpi>
  40abb7:	8b 3d c3 a2 2f 00    	mov    0x2fa2c3(%rip),%edi        # 704e80 <rank_pmpi>
  40abbd:	e8 5e fd ff ff       	callq  40a920 <PinMPI_Barrier>
  40abc2:	89 d8                	mov    %ebx,%eax
  40abc4:	48 8b 6c 24 10       	mov    0x10(%rsp),%rbp
  40abc9:	48 8b 5c 24 08       	mov    0x8(%rsp),%rbx
  40abce:	48 83 c4 18          	add    $0x18,%rsp
  40abd2:	c3                   	retq   
  40abd3:	66 66 66 66 2e 0f 1f 	data32 data32 data32 nopw %cs:0x0(%rax,%rax,1)
  40abda:	84 00 00 00 00 00 

000000000040abe0 <MPI_Wait>:
  40abe0:	55                   	push   %rbp
  40abe1:	48 89 f5             	mov    %rsi,%rbp
  40abe4:	53                   	push   %rbx
  40abe5:	48 89 fb             	mov    %rdi,%rbx
  40abe8:	48 83 ec 48          	sub    $0x48,%rsp
  40abec:	8b 05 4e 9f 2f 00    	mov    0x2f9f4e(%rip),%eax        # 704b40 <i_req_pop>
  40abf2:	48 63 d0             	movslq %eax,%rdx
  40abf5:	48 8d 3c 92          	lea    (%rdx,%rdx,4),%rdi
  40abf9:	48 c1 e7 03          	shl    $0x3,%rdi
  40abfd:	0f b6 97 60 4b 70 00 	movzbl 0x704b60(%rdi),%edx
  40ac04:	80 fa 73             	cmp    $0x73,%dl
  40ac07:	74 2f                	je     40ac38 <MPI_Wait+0x58>
  40ac09:	80 fa 72             	cmp    $0x72,%dl
  40ac0c:	0f 84 96 00 00 00    	je     40aca8 <MPI_Wait+0xc8>
  40ac12:	8d 50 01             	lea    0x1(%rax),%edx
  40ac15:	31 c0                	xor    %eax,%eax
  40ac17:	48 89 ee             	mov    %rbp,%rsi
  40ac1a:	48 89 df             	mov    %rbx,%rdi
  40ac1d:	83 fa 14             	cmp    $0x14,%edx
  40ac20:	0f 45 c2             	cmovne %edx,%eax
  40ac23:	89 05 17 9f 2f 00    	mov    %eax,0x2f9f17(%rip)        # 704b40 <i_req_pop>
  40ac29:	e8 b2 81 ff ff       	callq  402de0 <PMPI_Wait@plt>
  40ac2e:	48 83 c4 48          	add    $0x48,%rsp
  40ac32:	5b                   	pop    %rbx
  40ac33:	5d                   	pop    %rbp
  40ac34:	c3                   	retq   
  40ac35:	0f 1f 00             	nopl   (%rax)
  40ac38:	48 8d 74 24 20       	lea    0x20(%rsp),%rsi
  40ac3d:	48 81 c7 78 4b 70 00 	add    $0x704b78,%rdi
  40ac44:	e8 97 81 ff ff       	callq  402de0 <PMPI_Wait@plt>
  40ac49:	48 63 05 f0 9e 2f 00 	movslq 0x2f9ef0(%rip),%rax        # 704b40 <i_req_pop>
  40ac50:	48 89 e6             	mov    %rsp,%rsi
  40ac53:	48 8d 04 80          	lea    (%rax,%rax,4),%rax
  40ac57:	48 8d 3c c5 80 4b 70 	lea    0x704b80(,%rax,8),%rdi
  40ac5e:	00 
  40ac5f:	e8 7c 81 ff ff       	callq  402de0 <PMPI_Wait@plt>
  40ac64:	48 63 05 d5 9e 2f 00 	movslq 0x2f9ed5(%rip),%rax        # 704b40 <i_req_pop>
  40ac6b:	8b 3d 0f a2 2f 00    	mov    0x2fa20f(%rip),%edi        # 704e80 <rank_pmpi>
  40ac71:	48 8d 04 80          	lea    (%rax,%rax,4),%rax
  40ac75:	48 c1 e0 03          	shl    $0x3,%rax
  40ac79:	8b 88 6c 4b 70 00    	mov    0x704b6c(%rax),%ecx
  40ac7f:	8b 90 68 4b 70 00    	mov    0x704b68(%rax),%edx
  40ac85:	8b b0 64 4b 70 00    	mov    0x704b64(%rax),%esi
  40ac8b:	4c 8b 80 70 4b 70 00 	mov    0x704b70(%rax),%r8
  40ac92:	e8 49 fc ff ff       	callq  40a8e0 <PinMPI_Send>
  40ac97:	8b 05 a3 9e 2f 00    	mov    0x2f9ea3(%rip),%eax        # 704b40 <i_req_pop>
  40ac9d:	e9 70 ff ff ff       	jmpq   40ac12 <MPI_Wait+0x32>
  40aca2:	66 0f 1f 44 00 00    	nopw   0x0(%rax,%rax,1)
  40aca8:	48 89 e6             	mov    %rsp,%rsi
  40acab:	48 81 c7 80 4b 70 00 	add    $0x704b80,%rdi
  40acb2:	e8 29 81 ff ff       	callq  402de0 <PMPI_Wait@plt>
  40acb7:	48 63 05 82 9e 2f 00 	movslq 0x2f9e82(%rip),%rax        # 704b40 <i_req_pop>
  40acbe:	48 8d 74 24 20       	lea    0x20(%rsp),%rsi
  40acc3:	48 8d 04 80          	lea    (%rax,%rax,4),%rax
  40acc7:	48 8d 3c c5 78 4b 70 	lea    0x704b78(,%rax,8),%rdi
  40acce:	00 
  40accf:	e8 0c 81 ff ff       	callq  402de0 <PMPI_Wait@plt>
  40acd4:	48 63 05 65 9e 2f 00 	movslq 0x2f9e65(%rip),%rax        # 704b40 <i_req_pop>
  40acdb:	8b 3d 9f a1 2f 00    	mov    0x2fa19f(%rip),%edi        # 704e80 <rank_pmpi>
  40ace1:	48 8d 04 80          	lea    (%rax,%rax,4),%rax
  40ace5:	48 c1 e0 03          	shl    $0x3,%rax
  40ace9:	8b 88 6c 4b 70 00    	mov    0x704b6c(%rax),%ecx
  40acef:	8b 90 68 4b 70 00    	mov    0x704b68(%rax),%edx
  40acf5:	8b b0 64 4b 70 00    	mov    0x704b64(%rax),%esi
  40acfb:	4c 8b 80 70 4b 70 00 	mov    0x704b70(%rax),%r8
  40ad02:	e8 f9 fb ff ff       	callq  40a900 <PinMPI_Recv>
  40ad07:	8b 05 33 9e 2f 00    	mov    0x2f9e33(%rip),%eax        # 704b40 <i_req_pop>
  40ad0d:	e9 00 ff ff ff       	jmpq   40ac12 <MPI_Wait+0x32>
  40ad12:	66 66 66 66 66 2e 0f 	data32 data32 data32 data32 nopw %cs:0x0(%rax,%rax,1)
  40ad19:	1f 84 00 00 00 00 00 

000000000040ad20 <MPI_Waitall>:
  40ad20:	41 57                	push   %r15
  40ad22:	49 89 f7             	mov    %rsi,%r15
  40ad25:	41 56                	push   %r14
  40ad27:	49 89 d6             	mov    %rdx,%r14
  40ad2a:	41 55                	push   %r13
  40ad2c:	41 54                	push   %r12
  40ad2e:	55                   	push   %rbp
  40ad2f:	89 fd                	mov    %edi,%ebp
  40ad31:	53                   	push   %rbx
  40ad32:	48 83 ec 48          	sub    $0x48,%rsp
  40ad36:	85 ff                	test   %edi,%edi
  40ad38:	7e 63                	jle    40ad9d <MPI_Waitall+0x7d>
  40ad3a:	8b 05 00 9e 2f 00    	mov    0x2f9e00(%rip),%eax        # 704b40 <i_req_pop>
  40ad40:	31 db                	xor    %ebx,%ebx
  40ad42:	4c 8d 6c 24 20       	lea    0x20(%rsp),%r13
  40ad47:	eb 0e                	jmp    40ad57 <MPI_Waitall+0x37>
  40ad49:	0f 1f 80 00 00 00 00 	nopl   0x0(%rax)
  40ad50:	83 c3 01             	add    $0x1,%ebx
  40ad53:	39 dd                	cmp    %ebx,%ebp
  40ad55:	7e 46                	jle    40ad9d <MPI_Waitall+0x7d>
  40ad57:	48 63 d0             	movslq %eax,%rdx
  40ad5a:	48 8d 14 92          	lea    (%rdx,%rdx,4),%rdx
  40ad5e:	48 8d 3c d5 00 00 00 	lea    0x0(,%rdx,8),%rdi
  40ad65:	00 
  40ad66:	0f b6 14 d5 60 4b 70 	movzbl 0x704b60(,%rdx,8),%edx
  40ad6d:	00 
  40ad6e:	80 fa 73             	cmp    $0x73,%dl
  40ad71:	74 4d                	je     40adc0 <MPI_Waitall+0xa0>
  40ad73:	80 fa 72             	cmp    $0x72,%dl
  40ad76:	0f 84 b4 00 00 00    	je     40ae30 <MPI_Waitall+0x110>
  40ad7c:	83 c0 01             	add    $0x1,%eax
  40ad7f:	83 f8 14             	cmp    $0x14,%eax
  40ad82:	89 05 b8 9d 2f 00    	mov    %eax,0x2f9db8(%rip)        # 704b40 <i_req_pop>
  40ad88:	75 c6                	jne    40ad50 <MPI_Waitall+0x30>
  40ad8a:	83 c3 01             	add    $0x1,%ebx
  40ad8d:	30 c0                	xor    %al,%al
  40ad8f:	c7 05 a7 9d 2f 00 00 	movl   $0x0,0x2f9da7(%rip)        # 704b40 <i_req_pop>
  40ad96:	00 00 00 
  40ad99:	39 dd                	cmp    %ebx,%ebp
  40ad9b:	7f ba                	jg     40ad57 <MPI_Waitall+0x37>
  40ad9d:	4c 89 f2             	mov    %r14,%rdx
  40ada0:	4c 89 fe             	mov    %r15,%rsi
  40ada3:	89 ef                	mov    %ebp,%edi
  40ada5:	e8 d6 7e ff ff       	callq  402c80 <PMPI_Waitall@plt>
  40adaa:	48 83 c4 48          	add    $0x48,%rsp
  40adae:	5b                   	pop    %rbx
  40adaf:	5d                   	pop    %rbp
  40adb0:	41 5c                	pop    %r12
  40adb2:	41 5d                	pop    %r13
  40adb4:	41 5e                	pop    %r14
  40adb6:	41 5f                	pop    %r15
  40adb8:	c3                   	retq   
  40adb9:	0f 1f 80 00 00 00 00 	nopl   0x0(%rax)
  40adc0:	48 81 c7 78 4b 70 00 	add    $0x704b78,%rdi
  40adc7:	4c 89 ee             	mov    %r13,%rsi
  40adca:	e8 11 80 ff ff       	callq  402de0 <PMPI_Wait@plt>
  40adcf:	48 63 05 6a 9d 2f 00 	movslq 0x2f9d6a(%rip),%rax        # 704b40 <i_req_pop>
  40add6:	48 89 e6             	mov    %rsp,%rsi
  40add9:	48 8d 04 80          	lea    (%rax,%rax,4),%rax
  40addd:	48 8d 3c c5 80 4b 70 	lea    0x704b80(,%rax,8),%rdi
  40ade4:	00 
  40ade5:	e8 f6 7f ff ff       	callq  402de0 <PMPI_Wait@plt>
  40adea:	48 63 05 4f 9d 2f 00 	movslq 0x2f9d4f(%rip),%rax        # 704b40 <i_req_pop>
  40adf1:	8b 3d 89 a0 2f 00    	mov    0x2fa089(%rip),%edi        # 704e80 <rank_pmpi>
  40adf7:	48 8d 04 80          	lea    (%rax,%rax,4),%rax
  40adfb:	8b 0c c5 6c 4b 70 00 	mov    0x704b6c(,%rax,8),%ecx
  40ae02:	8b 14 c5 68 4b 70 00 	mov    0x704b68(,%rax,8),%edx
  40ae09:	8b 34 c5 64 4b 70 00 	mov    0x704b64(,%rax,8),%esi
  40ae10:	4c 8b 04 c5 70 4b 70 	mov    0x704b70(,%rax,8),%r8
  40ae17:	00 
  40ae18:	e8 c3 fa ff ff       	callq  40a8e0 <PinMPI_Send>
  40ae1d:	8b 05 1d 9d 2f 00    	mov    0x2f9d1d(%rip),%eax        # 704b40 <i_req_pop>
  40ae23:	e9 54 ff ff ff       	jmpq   40ad7c <MPI_Waitall+0x5c>
  40ae28:	0f 1f 84 00 00 00 00 	nopl   0x0(%rax,%rax,1)
  40ae2f:	00 
  40ae30:	48 81 c7 80 4b 70 00 	add    $0x704b80,%rdi
  40ae37:	48 89 e6             	mov    %rsp,%rsi
  40ae3a:	e8 a1 7f ff ff       	callq  402de0 <PMPI_Wait@plt>
  40ae3f:	48 63 05 fa 9c 2f 00 	movslq 0x2f9cfa(%rip),%rax        # 704b40 <i_req_pop>
  40ae46:	4c 89 ee             	mov    %r13,%rsi
  40ae49:	48 8d 04 80          	lea    (%rax,%rax,4),%rax
  40ae4d:	48 8d 3c c5 78 4b 70 	lea    0x704b78(,%rax,8),%rdi
  40ae54:	00 
  40ae55:	e8 86 7f ff ff       	callq  402de0 <PMPI_Wait@plt>
  40ae5a:	48 63 05 df 9c 2f 00 	movslq 0x2f9cdf(%rip),%rax        # 704b40 <i_req_pop>
  40ae61:	8b 3d 19 a0 2f 00    	mov    0x2fa019(%rip),%edi        # 704e80 <rank_pmpi>
  40ae67:	48 8d 04 80          	lea    (%rax,%rax,4),%rax
  40ae6b:	8b 0c c5 6c 4b 70 00 	mov    0x704b6c(,%rax,8),%ecx
  40ae72:	8b 14 c5 68 4b 70 00 	mov    0x704b68(,%rax,8),%edx
  40ae79:	8b 34 c5 64 4b 70 00 	mov    0x704b64(,%rax,8),%esi
  40ae80:	4c 8b 04 c5 70 4b 70 	mov    0x704b70(,%rax,8),%r8
  40ae87:	00 
  40ae88:	e8 73 fa ff ff       	callq  40a900 <PinMPI_Recv>
  40ae8d:	8b 05 ad 9c 2f 00    	mov    0x2f9cad(%rip),%eax        # 704b40 <i_req_pop>
  40ae93:	e9 e4 fe ff ff       	jmpq   40ad7c <MPI_Waitall+0x5c>
  40ae98:	0f 1f 84 00 00 00 00 	nopl   0x0(%rax,%rax,1)
  40ae9f:	00 

000000000040aea0 <MPI_Init>:
  40aea0:	53                   	push   %rbx
  40aea1:	e8 5a 7e ff ff       	callq  402d00 <PMPI_Init@plt>
  40aea6:	be 80 4e 70 00       	mov    $0x704e80,%esi
  40aeab:	bf 40 f8 60 00       	mov    $0x60f840,%edi
  40aeb0:	89 c3                	mov    %eax,%ebx
  40aeb2:	e8 c9 7f ff ff       	callq  402e80 <MPI_Comm_rank@plt>
  40aeb7:	be 28 4b 70 00       	mov    $0x704b28,%esi
  40aebc:	bf 40 f8 60 00       	mov    $0x60f840,%edi
  40aec1:	e8 3a 7f ff ff       	callq  402e00 <MPI_Comm_size@plt>
  40aec6:	83 3d 5b 9c 2f 00 40 	cmpl   $0x40,0x2f9c5b(%rip)        # 704b28 <size_pmpi>
  40aecd:	7f 37                	jg     40af06 <MPI_Init+0x66>
  40aecf:	8b 0d ab 9f 2f 00    	mov    0x2f9fab(%rip),%ecx        # 704e80 <rank_pmpi>
  40aed5:	b8 01 00 00 00       	mov    $0x1,%eax
  40aeda:	c7 05 5c 9c 2f 00 00 	movl   $0x0,0x2f9c5c(%rip)        # 704b40 <i_req_pop>
  40aee1:	00 00 00 
  40aee4:	c7 05 4a 9c 2f 00 00 	movl   $0x0,0x2f9c4a(%rip)        # 704b38 <i_req_push>
  40aeeb:	00 00 00 
  40aeee:	c7 05 44 9c 2f 00 00 	movl   $0x0,0x2f9c44(%rip)        # 704b3c <byte0>
  40aef5:	00 00 00 
  40aef8:	48 d3 e0             	shl    %cl,%rax
  40aefb:	48 89 05 2e 9c 2f 00 	mov    %rax,0x2f9c2e(%rip)        # 704b30 <identity_pmpi>
  40af02:	89 d8                	mov    %ebx,%eax
  40af04:	5b                   	pop    %rbx
  40af05:	c3                   	retq   
  40af06:	83 3d 73 9f 2f 00 00 	cmpl   $0x0,0x2f9f73(%rip)        # 704e80 <rank_pmpi>
  40af0d:	74 0f                	je     40af1e <MPI_Init+0x7e>
  40af0f:	e8 4c 7d ff ff       	callq  402c60 <PMPI_Finalize@plt>
  40af14:	bf 01 00 00 00       	mov    $0x1,%edi
  40af19:	e8 f2 7e ff ff       	callq  402e10 <exit@plt>
  40af1e:	48 8b 0d 1b 69 20 00 	mov    0x20691b(%rip),%rcx        # 611840 <stderr@@GLIBC_2.2.5>
  40af25:	ba 33 00 00 00       	mov    $0x33,%edx
  40af2a:	be 01 00 00 00       	mov    $0x1,%esi
  40af2f:	bf 78 d3 40 00       	mov    $0x40d378,%edi
  40af34:	e8 27 80 ff ff       	callq  402f60 <fwrite@plt>
  40af39:	eb d4                	jmp    40af0f <MPI_Init+0x6f>
  40af3b:	0f 1f 44 00 00       	nopl   0x0(%rax,%rax,1)

000000000040af40 <MPI_Send>:
  40af40:	48 89 5c 24 d0       	mov    %rbx,-0x30(%rsp)
  40af45:	48 89 6c 24 d8       	mov    %rbp,-0x28(%rsp)
  40af4a:	48 89 d3             	mov    %rdx,%rbx
  40af4d:	4c 89 64 24 e0       	mov    %r12,-0x20(%rsp)
  40af52:	4c 89 6c 24 e8       	mov    %r13,-0x18(%rsp)
  40af57:	ba 40 16 61 00       	mov    $0x611640,%edx
  40af5c:	4c 89 74 24 f0       	mov    %r14,-0x10(%rsp)
  40af61:	4c 89 7c 24 f8       	mov    %r15,-0x8(%rsp)
  40af66:	49 89 fe             	mov    %rdi,%r14
  40af69:	48 83 ec 78          	sub    $0x78,%rsp
  40af6d:	bf 80 4e 70 00       	mov    $0x704e80,%edi
  40af72:	41 89 f5             	mov    %esi,%r13d
  40af75:	45 89 c7             	mov    %r8d,%r15d
  40af78:	be 01 00 00 00       	mov    $0x1,%esi
  40af7d:	41 b8 59 02 00 00    	mov    $0x259,%r8d
  40af83:	41 89 cc             	mov    %ecx,%r12d
  40af86:	4c 89 cd             	mov    %r9,%rbp
  40af89:	e8 12 7d ff ff       	callq  402ca0 <PMPI_Send@plt>
  40af8e:	48 8d 44 24 20       	lea    0x20(%rsp),%rax
  40af93:	48 8d 7c 24 3c       	lea    0x3c(%rsp),%rdi
  40af98:	49 89 e9             	mov    %rbp,%r9
  40af9b:	41 b8 59 02 00 00    	mov    $0x259,%r8d
  40afa1:	44 89 e1             	mov    %r12d,%ecx
  40afa4:	ba 40 16 61 00       	mov    $0x611640,%edx
  40afa9:	be 01 00 00 00       	mov    $0x1,%esi
  40afae:	48 89 04 24          	mov    %rax,(%rsp)
  40afb2:	e8 a9 7e ff ff       	callq  402e60 <PMPI_Recv@plt>
  40afb7:	48 81 fb 40 f4 60 00 	cmp    $0x60f440,%rbx
  40afbe:	0f 84 cc 01 00 00    	je     40b190 <MPI_Send+0x250>
  40afc4:	48 81 fb 40 12 61 00 	cmp    $0x611240,%rbx
  40afcb:	0f 84 bf 01 00 00    	je     40b190 <MPI_Send+0x250>
  40afd1:	48 81 fb 40 f0 60 00 	cmp    $0x60f040,%rbx
  40afd8:	0f 84 b2 01 00 00    	je     40b190 <MPI_Send+0x250>
  40afde:	48 81 fb 40 06 61 00 	cmp    $0x610640,%rbx
  40afe5:	0f 84 b5 01 00 00    	je     40b1a0 <MPI_Send+0x260>
  40afeb:	48 81 fb 60 1c 61 00 	cmp    $0x611c60,%rbx
  40aff2:	0f 84 a8 01 00 00    	je     40b1a0 <MPI_Send+0x260>
  40aff8:	b8 40 16 61 00       	mov    $0x611640,%eax
  40affd:	48 39 d8             	cmp    %rbx,%rax
  40b000:	0f 84 22 01 00 00    	je     40b128 <MPI_Send+0x1e8>
  40b006:	48 81 fb 40 fc 60 00 	cmp    $0x60fc40,%rbx
  40b00d:	0f 84 15 01 00 00    	je     40b128 <MPI_Send+0x1e8>
  40b013:	48 81 fb 40 00 61 00 	cmp    $0x610040,%rbx
  40b01a:	0f 84 08 01 00 00    	je     40b128 <MPI_Send+0x1e8>
  40b020:	48 81 fb 40 10 61 00 	cmp    $0x611040,%rbx
  40b027:	0f 84 83 01 00 00    	je     40b1b0 <MPI_Send+0x270>
  40b02d:	48 81 fb 60 18 61 00 	cmp    $0x611860,%rbx
  40b034:	0f 84 76 01 00 00    	je     40b1b0 <MPI_Send+0x270>
  40b03a:	48 81 fb 40 0e 61 00 	cmp    $0x610e40,%rbx
  40b041:	0f 84 69 01 00 00    	je     40b1b0 <MPI_Send+0x270>
  40b047:	48 81 fb 40 fe 60 00 	cmp    $0x60fe40,%rbx
  40b04e:	0f 84 5c 01 00 00    	je     40b1b0 <MPI_Send+0x270>
  40b054:	48 81 fb 40 04 61 00 	cmp    $0x610440,%rbx
  40b05b:	0f 84 67 01 00 00    	je     40b1c8 <MPI_Send+0x288>
  40b061:	48 81 fb 40 08 61 00 	cmp    $0x610840,%rbx
  40b068:	0f 84 22 01 00 00    	je     40b190 <MPI_Send+0x250>
  40b06e:	48 81 fb 60 1a 61 00 	cmp    $0x611a60,%rbx
  40b075:	0f 84 15 01 00 00    	je     40b190 <MPI_Send+0x250>
  40b07b:	48 81 fb 60 20 61 00 	cmp    $0x612060,%rbx
  40b082:	0f 84 18 01 00 00    	je     40b1a0 <MPI_Send+0x260>
  40b088:	48 81 fb 40 0a 61 00 	cmp    $0x610a40,%rbx
  40b08f:	0f 84 93 00 00 00    	je     40b128 <MPI_Send+0x1e8>
  40b095:	48 81 fb 40 f6 60 00 	cmp    $0x60f640,%rbx
  40b09c:	0f 84 86 00 00 00    	je     40b128 <MPI_Send+0x1e8>
  40b0a2:	48 81 fb 40 e6 60 00 	cmp    $0x60e640,%rbx
  40b0a9:	74 7d                	je     40b128 <MPI_Send+0x1e8>
  40b0ab:	48 81 fb 40 02 61 00 	cmp    $0x610240,%rbx
  40b0b2:	74 74                	je     40b128 <MPI_Send+0x1e8>
  40b0b4:	48 81 fb 60 24 61 00 	cmp    $0x612460,%rbx
  40b0bb:	74 6b                	je     40b128 <MPI_Send+0x1e8>
  40b0bd:	48 81 fb 40 14 61 00 	cmp    $0x611440,%rbx
  40b0c4:	0f 84 e6 00 00 00    	je     40b1b0 <MPI_Send+0x270>
  40b0ca:	48 81 fb 60 22 61 00 	cmp    $0x612260,%rbx
  40b0d1:	0f 84 d9 00 00 00    	je     40b1b0 <MPI_Send+0x270>
  40b0d7:	48 81 fb 40 f2 60 00 	cmp    $0x60f240,%rbx
  40b0de:	0f 84 cc 00 00 00    	je     40b1b0 <MPI_Send+0x270>
  40b0e4:	48 81 fb 40 0c 61 00 	cmp    $0x610c40,%rbx
  40b0eb:	0f 84 bf 00 00 00    	je     40b1b0 <MPI_Send+0x270>
  40b0f1:	48 81 fb 60 1e 61 00 	cmp    $0x611e60,%rbx
  40b0f8:	0f 84 ca 00 00 00    	je     40b1c8 <MPI_Send+0x288>
  40b0fe:	8b 15 7c 9d 2f 00    	mov    0x2f9d7c(%rip),%edx        # 704e80 <rank_pmpi>
  40b104:	48 8b 3d 35 67 20 00 	mov    0x206735(%rip),%rdi        # 611840 <stderr@@GLIBC_2.2.5>
  40b10b:	89 d9                	mov    %ebx,%ecx
  40b10d:	be 48 d3 40 00       	mov    $0x40d348,%esi
  40b112:	31 c0                	xor    %eax,%eax
  40b114:	e8 77 7d ff ff       	callq  402e90 <fprintf@plt>
  40b119:	c7 44 24 1c 00 00 00 	movl   $0x0,0x1c(%rsp)
  40b120:	00 
  40b121:	eb 11                	jmp    40b134 <MPI_Send+0x1f4>
  40b123:	0f 1f 44 00 00       	nopl   0x0(%rax,%rax,1)
  40b128:	42 8d 04 ad 00 00 00 	lea    0x0(,%r13,4),%eax
  40b12f:	00 
  40b130:	89 44 24 1c          	mov    %eax,0x1c(%rsp)
  40b134:	49 89 e9             	mov    %rbp,%r9
  40b137:	45 89 f8             	mov    %r15d,%r8d
  40b13a:	44 89 e1             	mov    %r12d,%ecx
  40b13d:	48 89 da             	mov    %rbx,%rdx
  40b140:	44 89 ee             	mov    %r13d,%esi
  40b143:	4c 89 f7             	mov    %r14,%rdi
  40b146:	e8 55 7b ff ff       	callq  402ca0 <PMPI_Send@plt>
  40b14b:	8b 4c 24 1c          	mov    0x1c(%rsp),%ecx
  40b14f:	8b 74 24 3c          	mov    0x3c(%rsp),%esi
  40b153:	89 c3                	mov    %eax,%ebx
  40b155:	8b 3d 25 9d 2f 00    	mov    0x2f9d25(%rip),%edi        # 704e80 <rank_pmpi>
  40b15b:	4d 89 f0             	mov    %r14,%r8
  40b15e:	44 89 fa             	mov    %r15d,%edx
  40b161:	e8 7a f7 ff ff       	callq  40a8e0 <PinMPI_Send>
  40b166:	89 d8                	mov    %ebx,%eax
  40b168:	48 8b 6c 24 50       	mov    0x50(%rsp),%rbp
  40b16d:	48 8b 5c 24 48       	mov    0x48(%rsp),%rbx
  40b172:	4c 8b 64 24 58       	mov    0x58(%rsp),%r12
  40b177:	4c 8b 6c 24 60       	mov    0x60(%rsp),%r13
  40b17c:	4c 8b 74 24 68       	mov    0x68(%rsp),%r14
  40b181:	4c 8b 7c 24 70       	mov    0x70(%rsp),%r15
  40b186:	48 83 c4 78          	add    $0x78,%rsp
  40b18a:	c3                   	retq   
  40b18b:	0f 1f 44 00 00       	nopl   0x0(%rax,%rax,1)
  40b190:	44 89 6c 24 1c       	mov    %r13d,0x1c(%rsp)
  40b195:	eb 9d                	jmp    40b134 <MPI_Send+0x1f4>
  40b197:	66 0f 1f 84 00 00 00 	nopw   0x0(%rax,%rax,1)
  40b19e:	00 00 
  40b1a0:	43 8d 44 2d 00       	lea    0x0(%r13,%r13,1),%eax
  40b1a5:	89 44 24 1c          	mov    %eax,0x1c(%rsp)
  40b1a9:	eb 89                	jmp    40b134 <MPI_Send+0x1f4>
  40b1ab:	0f 1f 44 00 00       	nopl   0x0(%rax,%rax,1)
  40b1b0:	42 8d 04 ed 00 00 00 	lea    0x0(,%r13,8),%eax
  40b1b7:	00 
  40b1b8:	89 44 24 1c          	mov    %eax,0x1c(%rsp)
  40b1bc:	e9 73 ff ff ff       	jmpq   40b134 <MPI_Send+0x1f4>
  40b1c1:	0f 1f 80 00 00 00 00 	nopl   0x0(%rax)
  40b1c8:	44 89 e8             	mov    %r13d,%eax
  40b1cb:	c1 e0 04             	shl    $0x4,%eax
  40b1ce:	89 44 24 1c          	mov    %eax,0x1c(%rsp)
  40b1d2:	e9 5d ff ff ff       	jmpq   40b134 <MPI_Send+0x1f4>
  40b1d7:	66 0f 1f 84 00 00 00 	nopw   0x0(%rax,%rax,1)
  40b1de:	00 00 

000000000040b1e0 <MPI_Alltoall>:
  40b1e0:	48 89 5c 24 d0       	mov    %rbx,-0x30(%rsp)
  40b1e5:	48 89 6c 24 d8       	mov    %rbp,-0x28(%rsp)
  40b1ea:	48 89 d3             	mov    %rdx,%rbx
  40b1ed:	4c 89 64 24 e0       	mov    %r12,-0x20(%rsp)
  40b1f2:	4c 89 6c 24 e8       	mov    %r13,-0x18(%rsp)
  40b1f7:	89 f5                	mov    %esi,%ebp
  40b1f9:	4c 89 74 24 f0       	mov    %r14,-0x10(%rsp)
  40b1fe:	4c 89 7c 24 f8       	mov    %r15,-0x8(%rsp)
  40b203:	48 83 ec 48          	sub    $0x48,%rsp
  40b207:	4c 8b 74 24 50       	mov    0x50(%rsp),%r14
  40b20c:	49 89 fd             	mov    %rdi,%r13
  40b20f:	49 89 cc             	mov    %rcx,%r12
  40b212:	4c 89 34 24          	mov    %r14,(%rsp)
  40b216:	e8 d5 7c ff ff       	callq  402ef0 <PMPI_Alltoall@plt>
  40b21b:	4d 89 f1             	mov    %r14,%r9
  40b21e:	41 b8 40 e8 60 00    	mov    $0x60e840,%r8d
  40b224:	b9 60 26 61 00       	mov    $0x612660,%ecx
  40b229:	ba 01 00 00 00       	mov    $0x1,%edx
  40b22e:	be 20 4b 70 00       	mov    $0x704b20,%esi
  40b233:	bf 30 4b 70 00       	mov    $0x704b30,%edi
  40b238:	41 89 c7             	mov    %eax,%r15d
  40b23b:	e8 70 7a ff ff       	callq  402cb0 <PMPI_Allreduce@plt>
  40b240:	48 81 fb 40 f4 60 00 	cmp    $0x60f440,%rbx
  40b247:	0f 84 63 01 00 00    	je     40b3b0 <MPI_Alltoall+0x1d0>
  40b24d:	48 81 fb 40 12 61 00 	cmp    $0x611240,%rbx
  40b254:	0f 84 56 01 00 00    	je     40b3b0 <MPI_Alltoall+0x1d0>
  40b25a:	48 81 fb 40 f0 60 00 	cmp    $0x60f040,%rbx
  40b261:	0f 84 49 01 00 00    	je     40b3b0 <MPI_Alltoall+0x1d0>
  40b267:	48 81 fb 40 06 61 00 	cmp    $0x610640,%rbx
  40b26e:	0f 84 84 01 00 00    	je     40b3f8 <MPI_Alltoall+0x218>
  40b274:	48 81 fb 60 1c 61 00 	cmp    $0x611c60,%rbx
  40b27b:	0f 84 77 01 00 00    	je     40b3f8 <MPI_Alltoall+0x218>
  40b281:	48 81 fb 40 16 61 00 	cmp    $0x611640,%rbx
  40b288:	0f 84 62 01 00 00    	je     40b3f0 <MPI_Alltoall+0x210>
  40b28e:	48 81 fb 40 fc 60 00 	cmp    $0x60fc40,%rbx
  40b295:	0f 84 55 01 00 00    	je     40b3f0 <MPI_Alltoall+0x210>
  40b29b:	48 81 fb 40 00 61 00 	cmp    $0x610040,%rbx
  40b2a2:	0f 84 48 01 00 00    	je     40b3f0 <MPI_Alltoall+0x210>
  40b2a8:	48 81 fb 40 10 61 00 	cmp    $0x611040,%rbx
  40b2af:	0f 84 4b 01 00 00    	je     40b400 <MPI_Alltoall+0x220>
  40b2b5:	48 81 fb 60 18 61 00 	cmp    $0x611860,%rbx
  40b2bc:	0f 84 3e 01 00 00    	je     40b400 <MPI_Alltoall+0x220>
  40b2c2:	48 81 fb 40 0e 61 00 	cmp    $0x610e40,%rbx
  40b2c9:	0f 84 31 01 00 00    	je     40b400 <MPI_Alltoall+0x220>
  40b2cf:	48 81 fb 40 fe 60 00 	cmp    $0x60fe40,%rbx
  40b2d6:	0f 84 24 01 00 00    	je     40b400 <MPI_Alltoall+0x220>
  40b2dc:	48 81 fb 40 04 61 00 	cmp    $0x610440,%rbx
  40b2e3:	0f 84 1f 01 00 00    	je     40b408 <MPI_Alltoall+0x228>
  40b2e9:	48 81 fb 40 08 61 00 	cmp    $0x610840,%rbx
  40b2f0:	0f 84 ba 00 00 00    	je     40b3b0 <MPI_Alltoall+0x1d0>
  40b2f6:	48 81 fb 60 1a 61 00 	cmp    $0x611a60,%rbx
  40b2fd:	0f 84 ad 00 00 00    	je     40b3b0 <MPI_Alltoall+0x1d0>
  40b303:	48 81 fb 60 20 61 00 	cmp    $0x612060,%rbx
  40b30a:	0f 84 e8 00 00 00    	je     40b3f8 <MPI_Alltoall+0x218>
  40b310:	48 81 fb 40 0a 61 00 	cmp    $0x610a40,%rbx
  40b317:	0f 84 d3 00 00 00    	je     40b3f0 <MPI_Alltoall+0x210>
  40b31d:	48 81 fb 40 f6 60 00 	cmp    $0x60f640,%rbx
  40b324:	0f 84 c6 00 00 00    	je     40b3f0 <MPI_Alltoall+0x210>
  40b32a:	48 81 fb 40 e6 60 00 	cmp    $0x60e640,%rbx
  40b331:	0f 84 b9 00 00 00    	je     40b3f0 <MPI_Alltoall+0x210>
  40b337:	48 81 fb 40 02 61 00 	cmp    $0x610240,%rbx
  40b33e:	0f 84 ac 00 00 00    	je     40b3f0 <MPI_Alltoall+0x210>
  40b344:	48 81 fb 60 24 61 00 	cmp    $0x612460,%rbx
  40b34b:	0f 84 9f 00 00 00    	je     40b3f0 <MPI_Alltoall+0x210>
  40b351:	48 81 fb 40 14 61 00 	cmp    $0x611440,%rbx
  40b358:	0f 84 a2 00 00 00    	je     40b400 <MPI_Alltoall+0x220>
  40b35e:	48 81 fb 60 22 61 00 	cmp    $0x612260,%rbx
  40b365:	0f 84 95 00 00 00    	je     40b400 <MPI_Alltoall+0x220>
  40b36b:	48 81 fb 40 f2 60 00 	cmp    $0x60f240,%rbx
  40b372:	0f 84 88 00 00 00    	je     40b400 <MPI_Alltoall+0x220>
  40b378:	48 81 fb 40 0c 61 00 	cmp    $0x610c40,%rbx
  40b37f:	74 7f                	je     40b400 <MPI_Alltoall+0x220>
  40b381:	48 81 fb 60 1e 61 00 	cmp    $0x611e60,%rbx
  40b388:	74 7e                	je     40b408 <MPI_Alltoall+0x228>
  40b38a:	8b 15 f0 9a 2f 00    	mov    0x2f9af0(%rip),%edx        # 704e80 <rank_pmpi>
  40b390:	48 8b 3d a9 64 20 00 	mov    0x2064a9(%rip),%rdi        # 611840 <stderr@@GLIBC_2.2.5>
  40b397:	89 d9                	mov    %ebx,%ecx
  40b399:	be 48 d3 40 00       	mov    $0x40d348,%esi
  40b39e:	31 c0                	xor    %eax,%eax
  40b3a0:	31 ed                	xor    %ebp,%ebp
  40b3a2:	e8 e9 7a ff ff       	callq  402e90 <fprintf@plt>
  40b3a7:	66 0f 1f 84 00 00 00 	nopw   0x0(%rax,%rax,1)
  40b3ae:	00 00 
  40b3b0:	48 8b 35 69 97 2f 00 	mov    0x2f9769(%rip),%rsi        # 704b20 <identity_gather_pmpi>
  40b3b7:	8b 3d c3 9a 2f 00    	mov    0x2f9ac3(%rip),%edi        # 704e80 <rank_pmpi>
  40b3bd:	4d 89 e0             	mov    %r12,%r8
  40b3c0:	4c 89 e9             	mov    %r13,%rcx
  40b3c3:	89 ea                	mov    %ebp,%edx
  40b3c5:	e8 f6 f5 ff ff       	callq  40a9c0 <PinMPI_Alltoall>
  40b3ca:	44 89 f8             	mov    %r15d,%eax
  40b3cd:	48 8b 5c 24 18       	mov    0x18(%rsp),%rbx
  40b3d2:	48 8b 6c 24 20       	mov    0x20(%rsp),%rbp
  40b3d7:	4c 8b 64 24 28       	mov    0x28(%rsp),%r12
  40b3dc:	4c 8b 6c 24 30       	mov    0x30(%rsp),%r13
  40b3e1:	4c 8b 74 24 38       	mov    0x38(%rsp),%r14
  40b3e6:	4c 8b 7c 24 40       	mov    0x40(%rsp),%r15
  40b3eb:	48 83 c4 48          	add    $0x48,%rsp
  40b3ef:	c3                   	retq   
  40b3f0:	c1 e5 02             	shl    $0x2,%ebp
  40b3f3:	eb bb                	jmp    40b3b0 <MPI_Alltoall+0x1d0>
  40b3f5:	0f 1f 00             	nopl   (%rax)
  40b3f8:	01 ed                	add    %ebp,%ebp
  40b3fa:	eb b4                	jmp    40b3b0 <MPI_Alltoall+0x1d0>
  40b3fc:	0f 1f 40 00          	nopl   0x0(%rax)
  40b400:	c1 e5 03             	shl    $0x3,%ebp
  40b403:	eb ab                	jmp    40b3b0 <MPI_Alltoall+0x1d0>
  40b405:	0f 1f 00             	nopl   (%rax)
  40b408:	c1 e5 04             	shl    $0x4,%ebp
  40b40b:	0f 1f 44 00 00       	nopl   0x0(%rax,%rax,1)
  40b410:	eb 9e                	jmp    40b3b0 <MPI_Alltoall+0x1d0>
  40b412:	66 66 66 66 66 2e 0f 	data32 data32 data32 data32 nopw %cs:0x0(%rax,%rax,1)
  40b419:	1f 84 00 00 00 00 00 

000000000040b420 <MPI_Allreduce>:
  40b420:	48 89 5c 24 d0       	mov    %rbx,-0x30(%rsp)
  40b425:	48 89 6c 24 d8       	mov    %rbp,-0x28(%rsp)
  40b42a:	48 89 cb             	mov    %rcx,%rbx
  40b42d:	4c 89 64 24 e0       	mov    %r12,-0x20(%rsp)
  40b432:	4c 89 6c 24 e8       	mov    %r13,-0x18(%rsp)
  40b437:	4d 89 cc             	mov    %r9,%r12
  40b43a:	4c 89 74 24 f0       	mov    %r14,-0x10(%rsp)
  40b43f:	4c 89 7c 24 f8       	mov    %r15,-0x8(%rsp)
  40b444:	48 83 ec 38          	sub    $0x38,%rsp
  40b448:	49 89 fe             	mov    %rdi,%r14
  40b44b:	49 89 f5             	mov    %rsi,%r13
  40b44e:	89 d5                	mov    %edx,%ebp
  40b450:	e8 5b 78 ff ff       	callq  402cb0 <PMPI_Allreduce@plt>
  40b455:	4d 89 e1             	mov    %r12,%r9
  40b458:	41 b8 40 e8 60 00    	mov    $0x60e840,%r8d
  40b45e:	b9 60 26 61 00       	mov    $0x612660,%ecx
  40b463:	ba 01 00 00 00       	mov    $0x1,%edx
  40b468:	be 20 4b 70 00       	mov    $0x704b20,%esi
  40b46d:	bf 30 4b 70 00       	mov    $0x704b30,%edi
  40b472:	41 89 c7             	mov    %eax,%r15d
  40b475:	e8 36 78 ff ff       	callq  402cb0 <PMPI_Allreduce@plt>
  40b47a:	48 81 fb 40 f4 60 00 	cmp    $0x60f440,%rbx
  40b481:	0f 84 69 01 00 00    	je     40b5f0 <MPI_Allreduce+0x1d0>
  40b487:	48 81 fb 40 12 61 00 	cmp    $0x611240,%rbx
  40b48e:	0f 84 5c 01 00 00    	je     40b5f0 <MPI_Allreduce+0x1d0>
  40b494:	48 81 fb 40 f0 60 00 	cmp    $0x60f040,%rbx
  40b49b:	0f 84 4f 01 00 00    	je     40b5f0 <MPI_Allreduce+0x1d0>
  40b4a1:	48 81 fb 40 06 61 00 	cmp    $0x610640,%rbx
  40b4a8:	0f 84 8a 01 00 00    	je     40b638 <MPI_Allreduce+0x218>
  40b4ae:	48 81 fb 60 1c 61 00 	cmp    $0x611c60,%rbx
  40b4b5:	0f 84 7d 01 00 00    	je     40b638 <MPI_Allreduce+0x218>
  40b4bb:	48 81 fb 40 16 61 00 	cmp    $0x611640,%rbx
  40b4c2:	0f 84 68 01 00 00    	je     40b630 <MPI_Allreduce+0x210>
  40b4c8:	48 81 fb 40 fc 60 00 	cmp    $0x60fc40,%rbx
  40b4cf:	0f 84 5b 01 00 00    	je     40b630 <MPI_Allreduce+0x210>
  40b4d5:	48 81 fb 40 00 61 00 	cmp    $0x610040,%rbx
  40b4dc:	0f 84 4e 01 00 00    	je     40b630 <MPI_Allreduce+0x210>
  40b4e2:	48 81 fb 40 10 61 00 	cmp    $0x611040,%rbx
  40b4e9:	0f 84 51 01 00 00    	je     40b640 <MPI_Allreduce+0x220>
  40b4ef:	48 81 fb 60 18 61 00 	cmp    $0x611860,%rbx
  40b4f6:	0f 84 44 01 00 00    	je     40b640 <MPI_Allreduce+0x220>
  40b4fc:	48 81 fb 40 0e 61 00 	cmp    $0x610e40,%rbx
  40b503:	0f 84 37 01 00 00    	je     40b640 <MPI_Allreduce+0x220>
  40b509:	48 81 fb 40 fe 60 00 	cmp    $0x60fe40,%rbx
  40b510:	0f 84 2a 01 00 00    	je     40b640 <MPI_Allreduce+0x220>
  40b516:	48 81 fb 40 04 61 00 	cmp    $0x610440,%rbx
  40b51d:	0f 84 25 01 00 00    	je     40b648 <MPI_Allreduce+0x228>
  40b523:	48 81 fb 40 08 61 00 	cmp    $0x610840,%rbx
  40b52a:	0f 84 c0 00 00 00    	je     40b5f0 <MPI_Allreduce+0x1d0>
  40b530:	48 81 fb 60 1a 61 00 	cmp    $0x611a60,%rbx
  40b537:	0f 84 b3 00 00 00    	je     40b5f0 <MPI_Allreduce+0x1d0>
  40b53d:	48 81 fb 60 20 61 00 	cmp    $0x612060,%rbx
  40b544:	0f 84 ee 00 00 00    	je     40b638 <MPI_Allreduce+0x218>
  40b54a:	48 81 fb 40 0a 61 00 	cmp    $0x610a40,%rbx
  40b551:	0f 84 d9 00 00 00    	je     40b630 <MPI_Allreduce+0x210>
  40b557:	48 81 fb 40 f6 60 00 	cmp    $0x60f640,%rbx
  40b55e:	0f 84 cc 00 00 00    	je     40b630 <MPI_Allreduce+0x210>
  40b564:	48 81 fb 40 e6 60 00 	cmp    $0x60e640,%rbx
  40b56b:	0f 84 bf 00 00 00    	je     40b630 <MPI_Allreduce+0x210>
  40b571:	48 81 fb 40 02 61 00 	cmp    $0x610240,%rbx
  40b578:	0f 84 b2 00 00 00    	je     40b630 <MPI_Allreduce+0x210>
  40b57e:	48 81 fb 60 24 61 00 	cmp    $0x612460,%rbx
  40b585:	0f 84 a5 00 00 00    	je     40b630 <MPI_Allreduce+0x210>
  40b58b:	48 81 fb 40 14 61 00 	cmp    $0x611440,%rbx
  40b592:	0f 84 a8 00 00 00    	je     40b640 <MPI_Allreduce+0x220>
  40b598:	48 81 fb 60 22 61 00 	cmp    $0x612260,%rbx
  40b59f:	0f 84 9b 00 00 00    	je     40b640 <MPI_Allreduce+0x220>
  40b5a5:	48 81 fb 40 f2 60 00 	cmp    $0x60f240,%rbx
  40b5ac:	0f 84 8e 00 00 00    	je     40b640 <MPI_Allreduce+0x220>
  40b5b2:	48 81 fb 40 0c 61 00 	cmp    $0x610c40,%rbx
  40b5b9:	0f 84 81 00 00 00    	je     40b640 <MPI_Allreduce+0x220>
  40b5bf:	48 81 fb 60 1e 61 00 	cmp    $0x611e60,%rbx
  40b5c6:	0f 84 7c 00 00 00    	je     40b648 <MPI_Allreduce+0x228>
  40b5cc:	8b 15 ae 98 2f 00    	mov    0x2f98ae(%rip),%edx        # 704e80 <rank_pmpi>
  40b5d2:	48 8b 3d 67 62 20 00 	mov    0x206267(%rip),%rdi        # 611840 <stderr@@GLIBC_2.2.5>
  40b5d9:	89 d9                	mov    %ebx,%ecx
  40b5db:	be 48 d3 40 00       	mov    $0x40d348,%esi
  40b5e0:	31 c0                	xor    %eax,%eax
  40b5e2:	31 ed                	xor    %ebp,%ebp
  40b5e4:	e8 a7 78 ff ff       	callq  402e90 <fprintf@plt>
  40b5e9:	0f 1f 80 00 00 00 00 	nopl   0x0(%rax)
  40b5f0:	48 8b 35 29 95 2f 00 	mov    0x2f9529(%rip),%rsi        # 704b20 <identity_gather_pmpi>
  40b5f7:	8b 3d 83 98 2f 00    	mov    0x2f9883(%rip),%edi        # 704e80 <rank_pmpi>
  40b5fd:	4d 89 e8             	mov    %r13,%r8
  40b600:	4c 89 f1             	mov    %r14,%rcx
  40b603:	89 ea                	mov    %ebp,%edx
  40b605:	e8 76 f3 ff ff       	callq  40a980 <PinMPI_Allreduce>
  40b60a:	44 89 f8             	mov    %r15d,%eax
  40b60d:	48 8b 5c 24 08       	mov    0x8(%rsp),%rbx
  40b612:	48 8b 6c 24 10       	mov    0x10(%rsp),%rbp
  40b617:	4c 8b 64 24 18       	mov    0x18(%rsp),%r12
  40b61c:	4c 8b 6c 24 20       	mov    0x20(%rsp),%r13
  40b621:	4c 8b 74 24 28       	mov    0x28(%rsp),%r14
  40b626:	4c 8b 7c 24 30       	mov    0x30(%rsp),%r15
  40b62b:	48 83 c4 38          	add    $0x38,%rsp
  40b62f:	c3                   	retq   
  40b630:	c1 e5 02             	shl    $0x2,%ebp
  40b633:	eb bb                	jmp    40b5f0 <MPI_Allreduce+0x1d0>
  40b635:	0f 1f 00             	nopl   (%rax)
  40b638:	01 ed                	add    %ebp,%ebp
  40b63a:	eb b4                	jmp    40b5f0 <MPI_Allreduce+0x1d0>
  40b63c:	0f 1f 40 00          	nopl   0x0(%rax)
  40b640:	c1 e5 03             	shl    $0x3,%ebp
  40b643:	eb ab                	jmp    40b5f0 <MPI_Allreduce+0x1d0>
  40b645:	0f 1f 00             	nopl   (%rax)
  40b648:	c1 e5 04             	shl    $0x4,%ebp
  40b64b:	0f 1f 44 00 00       	nopl   0x0(%rax,%rax,1)
  40b650:	eb 9e                	jmp    40b5f0 <MPI_Allreduce+0x1d0>
  40b652:	66 66 66 66 66 2e 0f 	data32 data32 data32 data32 nopw %cs:0x0(%rax,%rax,1)
  40b659:	1f 84 00 00 00 00 00 

000000000040b660 <MPI_Allgather>:
  40b660:	48 89 5c 24 d0       	mov    %rbx,-0x30(%rsp)
  40b665:	48 89 6c 24 d8       	mov    %rbp,-0x28(%rsp)
  40b66a:	48 89 d3             	mov    %rdx,%rbx
  40b66d:	4c 89 64 24 e0       	mov    %r12,-0x20(%rsp)
  40b672:	4c 89 6c 24 e8       	mov    %r13,-0x18(%rsp)
  40b677:	89 f5                	mov    %esi,%ebp
  40b679:	4c 89 74 24 f0       	mov    %r14,-0x10(%rsp)
  40b67e:	4c 89 7c 24 f8       	mov    %r15,-0x8(%rsp)
  40b683:	48 83 ec 48          	sub    $0x48,%rsp
  40b687:	4c 8b 74 24 50       	mov    0x50(%rsp),%r14
  40b68c:	49 89 fd             	mov    %rdi,%r13
  40b68f:	49 89 cc             	mov    %rcx,%r12
  40b692:	4c 89 34 24          	mov    %r14,(%rsp)
  40b696:	e8 35 77 ff ff       	callq  402dd0 <PMPI_Allgather@plt>
  40b69b:	4d 89 f1             	mov    %r14,%r9
  40b69e:	41 b8 40 e8 60 00    	mov    $0x60e840,%r8d
  40b6a4:	b9 60 26 61 00       	mov    $0x612660,%ecx
  40b6a9:	ba 01 00 00 00       	mov    $0x1,%edx
  40b6ae:	be 20 4b 70 00       	mov    $0x704b20,%esi
  40b6b3:	bf 30 4b 70 00       	mov    $0x704b30,%edi
  40b6b8:	41 89 c7             	mov    %eax,%r15d
  40b6bb:	e8 f0 75 ff ff       	callq  402cb0 <PMPI_Allreduce@plt>
  40b6c0:	48 81 fb 40 f4 60 00 	cmp    $0x60f440,%rbx
  40b6c7:	0f 84 63 01 00 00    	je     40b830 <MPI_Allgather+0x1d0>
  40b6cd:	48 81 fb 40 12 61 00 	cmp    $0x611240,%rbx
  40b6d4:	0f 84 56 01 00 00    	je     40b830 <MPI_Allgather+0x1d0>
  40b6da:	48 81 fb 40 f0 60 00 	cmp    $0x60f040,%rbx
  40b6e1:	0f 84 49 01 00 00    	je     40b830 <MPI_Allgather+0x1d0>
  40b6e7:	48 81 fb 40 06 61 00 	cmp    $0x610640,%rbx
  40b6ee:	0f 84 84 01 00 00    	je     40b878 <MPI_Allgather+0x218>
  40b6f4:	48 81 fb 60 1c 61 00 	cmp    $0x611c60,%rbx
  40b6fb:	0f 84 77 01 00 00    	je     40b878 <MPI_Allgather+0x218>
  40b701:	48 81 fb 40 16 61 00 	cmp    $0x611640,%rbx
  40b708:	0f 84 62 01 00 00    	je     40b870 <MPI_Allgather+0x210>
  40b70e:	48 81 fb 40 fc 60 00 	cmp    $0x60fc40,%rbx
  40b715:	0f 84 55 01 00 00    	je     40b870 <MPI_Allgather+0x210>
  40b71b:	48 81 fb 40 00 61 00 	cmp    $0x610040,%rbx
  40b722:	0f 84 48 01 00 00    	je     40b870 <MPI_Allgather+0x210>
  40b728:	48 81 fb 40 10 61 00 	cmp    $0x611040,%rbx
  40b72f:	0f 84 4b 01 00 00    	je     40b880 <MPI_Allgather+0x220>
  40b735:	48 81 fb 60 18 61 00 	cmp    $0x611860,%rbx
  40b73c:	0f 84 3e 01 00 00    	je     40b880 <MPI_Allgather+0x220>
  40b742:	48 81 fb 40 0e 61 00 	cmp    $0x610e40,%rbx
  40b749:	0f 84 31 01 00 00    	je     40b880 <MPI_Allgather+0x220>
  40b74f:	48 81 fb 40 fe 60 00 	cmp    $0x60fe40,%rbx
  40b756:	0f 84 24 01 00 00    	je     40b880 <MPI_Allgather+0x220>
  40b75c:	48 81 fb 40 04 61 00 	cmp    $0x610440,%rbx
  40b763:	0f 84 1f 01 00 00    	je     40b888 <MPI_Allgather+0x228>
  40b769:	48 81 fb 40 08 61 00 	cmp    $0x610840,%rbx
  40b770:	0f 84 ba 00 00 00    	je     40b830 <MPI_Allgather+0x1d0>
  40b776:	48 81 fb 60 1a 61 00 	cmp    $0x611a60,%rbx
  40b77d:	0f 84 ad 00 00 00    	je     40b830 <MPI_Allgather+0x1d0>
  40b783:	48 81 fb 60 20 61 00 	cmp    $0x612060,%rbx
  40b78a:	0f 84 e8 00 00 00    	je     40b878 <MPI_Allgather+0x218>
  40b790:	48 81 fb 40 0a 61 00 	cmp    $0x610a40,%rbx
  40b797:	0f 84 d3 00 00 00    	je     40b870 <MPI_Allgather+0x210>
  40b79d:	48 81 fb 40 f6 60 00 	cmp    $0x60f640,%rbx
  40b7a4:	0f 84 c6 00 00 00    	je     40b870 <MPI_Allgather+0x210>
  40b7aa:	48 81 fb 40 e6 60 00 	cmp    $0x60e640,%rbx
  40b7b1:	0f 84 b9 00 00 00    	je     40b870 <MPI_Allgather+0x210>
  40b7b7:	48 81 fb 40 02 61 00 	cmp    $0x610240,%rbx
  40b7be:	0f 84 ac 00 00 00    	je     40b870 <MPI_Allgather+0x210>
  40b7c4:	48 81 fb 60 24 61 00 	cmp    $0x612460,%rbx
  40b7cb:	0f 84 9f 00 00 00    	je     40b870 <MPI_Allgather+0x210>
  40b7d1:	48 81 fb 40 14 61 00 	cmp    $0x611440,%rbx
  40b7d8:	0f 84 a2 00 00 00    	je     40b880 <MPI_Allgather+0x220>
  40b7de:	48 81 fb 60 22 61 00 	cmp    $0x612260,%rbx
  40b7e5:	0f 84 95 00 00 00    	je     40b880 <MPI_Allgather+0x220>
  40b7eb:	48 81 fb 40 f2 60 00 	cmp    $0x60f240,%rbx
  40b7f2:	0f 84 88 00 00 00    	je     40b880 <MPI_Allgather+0x220>
  40b7f8:	48 81 fb 40 0c 61 00 	cmp    $0x610c40,%rbx
  40b7ff:	74 7f                	je     40b880 <MPI_Allgather+0x220>
  40b801:	48 81 fb 60 1e 61 00 	cmp    $0x611e60,%rbx
  40b808:	74 7e                	je     40b888 <MPI_Allgather+0x228>
  40b80a:	8b 15 70 96 2f 00    	mov    0x2f9670(%rip),%edx        # 704e80 <rank_pmpi>
  40b810:	48 8b 3d 29 60 20 00 	mov    0x206029(%rip),%rdi        # 611840 <stderr@@GLIBC_2.2.5>
  40b817:	89 d9                	mov    %ebx,%ecx
  40b819:	be 48 d3 40 00       	mov    $0x40d348,%esi
  40b81e:	31 c0                	xor    %eax,%eax
  40b820:	31 ed                	xor    %ebp,%ebp
  40b822:	e8 69 76 ff ff       	callq  402e90 <fprintf@plt>
  40b827:	66 0f 1f 84 00 00 00 	nopw   0x0(%rax,%rax,1)
  40b82e:	00 00 
  40b830:	48 8b 35 e9 92 2f 00 	mov    0x2f92e9(%rip),%rsi        # 704b20 <identity_gather_pmpi>
  40b837:	8b 3d 43 96 2f 00    	mov    0x2f9643(%rip),%edi        # 704e80 <rank_pmpi>
  40b83d:	4d 89 e0             	mov    %r12,%r8
  40b840:	4c 89 e9             	mov    %r13,%rcx
  40b843:	89 ea                	mov    %ebp,%edx
  40b845:	e8 56 f1 ff ff       	callq  40a9a0 <PinMPI_Allgather>
  40b84a:	44 89 f8             	mov    %r15d,%eax
  40b84d:	48 8b 5c 24 18       	mov    0x18(%rsp),%rbx
  40b852:	48 8b 6c 24 20       	mov    0x20(%rsp),%rbp
  40b857:	4c 8b 64 24 28       	mov    0x28(%rsp),%r12
  40b85c:	4c 8b 6c 24 30       	mov    0x30(%rsp),%r13
  40b861:	4c 8b 74 24 38       	mov    0x38(%rsp),%r14
  40b866:	4c 8b 7c 24 40       	mov    0x40(%rsp),%r15
  40b86b:	48 83 c4 48          	add    $0x48,%rsp
  40b86f:	c3                   	retq   
  40b870:	c1 e5 02             	shl    $0x2,%ebp
  40b873:	eb bb                	jmp    40b830 <MPI_Allgather+0x1d0>
  40b875:	0f 1f 00             	nopl   (%rax)
  40b878:	01 ed                	add    %ebp,%ebp
  40b87a:	eb b4                	jmp    40b830 <MPI_Allgather+0x1d0>
  40b87c:	0f 1f 40 00          	nopl   0x0(%rax)
  40b880:	c1 e5 03             	shl    $0x3,%ebp
  40b883:	eb ab                	jmp    40b830 <MPI_Allgather+0x1d0>
  40b885:	0f 1f 00             	nopl   (%rax)
  40b888:	c1 e5 04             	shl    $0x4,%ebp
  40b88b:	0f 1f 44 00 00       	nopl   0x0(%rax,%rax,1)
  40b890:	eb 9e                	jmp    40b830 <MPI_Allgather+0x1d0>
  40b892:	66 66 66 66 66 2e 0f 	data32 data32 data32 data32 nopw %cs:0x0(%rax,%rax,1)
  40b899:	1f 84 00 00 00 00 00 

000000000040b8a0 <MPI_Reduce>:
  40b8a0:	48 89 5c 24 d0       	mov    %rbx,-0x30(%rsp)
  40b8a5:	48 89 6c 24 d8       	mov    %rbp,-0x28(%rsp)
  40b8aa:	48 89 cb             	mov    %rcx,%rbx
  40b8ad:	4c 89 64 24 e0       	mov    %r12,-0x20(%rsp)
  40b8b2:	4c 89 6c 24 e8       	mov    %r13,-0x18(%rsp)
  40b8b7:	49 89 f4             	mov    %rsi,%r12
  40b8ba:	4c 89 74 24 f0       	mov    %r14,-0x10(%rsp)
  40b8bf:	4c 89 7c 24 f8       	mov    %r15,-0x8(%rsp)
  40b8c4:	48 83 ec 58          	sub    $0x58,%rsp
  40b8c8:	4c 8b 7c 24 60       	mov    0x60(%rsp),%r15
  40b8cd:	49 89 fd             	mov    %rdi,%r13
  40b8d0:	89 d5                	mov    %edx,%ebp
  40b8d2:	45 89 ce             	mov    %r9d,%r14d
  40b8d5:	4c 89 3c 24          	mov    %r15,(%rsp)
  40b8d9:	e8 f2 73 ff ff       	callq  402cd0 <PMPI_Reduce@plt>
  40b8de:	4d 89 f9             	mov    %r15,%r9
  40b8e1:	41 b8 40 e8 60 00    	mov    $0x60e840,%r8d
  40b8e7:	b9 60 26 61 00       	mov    $0x612660,%ecx
  40b8ec:	ba 01 00 00 00       	mov    $0x1,%edx
  40b8f1:	be 20 4b 70 00       	mov    $0x704b20,%esi
  40b8f6:	bf 30 4b 70 00       	mov    $0x704b30,%edi
  40b8fb:	89 44 24 1c          	mov    %eax,0x1c(%rsp)
  40b8ff:	e8 ac 73 ff ff       	callq  402cb0 <PMPI_Allreduce@plt>
  40b904:	48 81 fb 40 f4 60 00 	cmp    $0x60f440,%rbx
  40b90b:	0f 84 67 01 00 00    	je     40ba78 <MPI_Reduce+0x1d8>
  40b911:	48 81 fb 40 12 61 00 	cmp    $0x611240,%rbx
  40b918:	0f 84 5a 01 00 00    	je     40ba78 <MPI_Reduce+0x1d8>
  40b91e:	48 81 fb 40 f0 60 00 	cmp    $0x60f040,%rbx
  40b925:	0f 84 4d 01 00 00    	je     40ba78 <MPI_Reduce+0x1d8>
  40b92b:	48 81 fb 40 06 61 00 	cmp    $0x610640,%rbx
  40b932:	0f 84 90 01 00 00    	je     40bac8 <MPI_Reduce+0x228>
  40b938:	48 81 fb 60 1c 61 00 	cmp    $0x611c60,%rbx
  40b93f:	0f 84 83 01 00 00    	je     40bac8 <MPI_Reduce+0x228>
  40b945:	48 81 fb 40 16 61 00 	cmp    $0x611640,%rbx
  40b94c:	0f 84 6e 01 00 00    	je     40bac0 <MPI_Reduce+0x220>
  40b952:	48 81 fb 40 fc 60 00 	cmp    $0x60fc40,%rbx
  40b959:	0f 84 61 01 00 00    	je     40bac0 <MPI_Reduce+0x220>
  40b95f:	48 81 fb 40 00 61 00 	cmp    $0x610040,%rbx
  40b966:	0f 84 54 01 00 00    	je     40bac0 <MPI_Reduce+0x220>
  40b96c:	48 81 fb 40 10 61 00 	cmp    $0x611040,%rbx
  40b973:	0f 84 57 01 00 00    	je     40bad0 <MPI_Reduce+0x230>
  40b979:	48 81 fb 60 18 61 00 	cmp    $0x611860,%rbx
  40b980:	0f 84 4a 01 00 00    	je     40bad0 <MPI_Reduce+0x230>
  40b986:	48 81 fb 40 0e 61 00 	cmp    $0x610e40,%rbx
  40b98d:	0f 84 3d 01 00 00    	je     40bad0 <MPI_Reduce+0x230>
  40b993:	48 81 fb 40 fe 60 00 	cmp    $0x60fe40,%rbx
  40b99a:	0f 84 30 01 00 00    	je     40bad0 <MPI_Reduce+0x230>
  40b9a0:	48 81 fb 40 04 61 00 	cmp    $0x610440,%rbx
  40b9a7:	0f 84 2b 01 00 00    	je     40bad8 <MPI_Reduce+0x238>
  40b9ad:	48 81 fb 40 08 61 00 	cmp    $0x610840,%rbx
  40b9b4:	0f 84 be 00 00 00    	je     40ba78 <MPI_Reduce+0x1d8>
  40b9ba:	48 81 fb 60 1a 61 00 	cmp    $0x611a60,%rbx
  40b9c1:	0f 84 b1 00 00 00    	je     40ba78 <MPI_Reduce+0x1d8>
  40b9c7:	48 81 fb 60 20 61 00 	cmp    $0x612060,%rbx
  40b9ce:	0f 84 f4 00 00 00    	je     40bac8 <MPI_Reduce+0x228>
  40b9d4:	48 81 fb 40 0a 61 00 	cmp    $0x610a40,%rbx
  40b9db:	0f 84 df 00 00 00    	je     40bac0 <MPI_Reduce+0x220>
  40b9e1:	48 81 fb 40 f6 60 00 	cmp    $0x60f640,%rbx
  40b9e8:	0f 84 d2 00 00 00    	je     40bac0 <MPI_Reduce+0x220>
  40b9ee:	48 81 fb 40 e6 60 00 	cmp    $0x60e640,%rbx
  40b9f5:	0f 84 c5 00 00 00    	je     40bac0 <MPI_Reduce+0x220>
  40b9fb:	48 81 fb 40 02 61 00 	cmp    $0x610240,%rbx
  40ba02:	0f 84 b8 00 00 00    	je     40bac0 <MPI_Reduce+0x220>
  40ba08:	48 81 fb 60 24 61 00 	cmp    $0x612460,%rbx
  40ba0f:	0f 84 ab 00 00 00    	je     40bac0 <MPI_Reduce+0x220>
  40ba15:	48 81 fb 40 14 61 00 	cmp    $0x611440,%rbx
  40ba1c:	0f 84 ae 00 00 00    	je     40bad0 <MPI_Reduce+0x230>
  40ba22:	48 81 fb 60 22 61 00 	cmp    $0x612260,%rbx
  40ba29:	0f 84 a1 00 00 00    	je     40bad0 <MPI_Reduce+0x230>
  40ba2f:	48 81 fb 40 f2 60 00 	cmp    $0x60f240,%rbx
  40ba36:	0f 84 94 00 00 00    	je     40bad0 <MPI_Reduce+0x230>
  40ba3c:	48 81 fb 40 0c 61 00 	cmp    $0x610c40,%rbx
  40ba43:	0f 84 87 00 00 00    	je     40bad0 <MPI_Reduce+0x230>
  40ba49:	48 81 fb 60 1e 61 00 	cmp    $0x611e60,%rbx
  40ba50:	0f 84 82 00 00 00    	je     40bad8 <MPI_Reduce+0x238>
  40ba56:	8b 15 24 94 2f 00    	mov    0x2f9424(%rip),%edx        # 704e80 <rank_pmpi>
  40ba5c:	48 8b 3d dd 5d 20 00 	mov    0x205ddd(%rip),%rdi        # 611840 <stderr@@GLIBC_2.2.5>
  40ba63:	89 d9                	mov    %ebx,%ecx
  40ba65:	be 48 d3 40 00       	mov    $0x40d348,%esi
  40ba6a:	31 c0                	xor    %eax,%eax
  40ba6c:	31 ed                	xor    %ebp,%ebp
  40ba6e:	e8 1d 74 ff ff       	callq  402e90 <fprintf@plt>
  40ba73:	0f 1f 44 00 00       	nopl   0x0(%rax,%rax,1)
  40ba78:	48 8b 35 a1 90 2f 00 	mov    0x2f90a1(%rip),%rsi        # 704b20 <identity_gather_pmpi>
  40ba7f:	8b 3d fb 93 2f 00    	mov    0x2f93fb(%rip),%edi        # 704e80 <rank_pmpi>
  40ba85:	4d 89 e1             	mov    %r12,%r9
  40ba88:	4d 89 e8             	mov    %r13,%r8
  40ba8b:	89 e9                	mov    %ebp,%ecx
  40ba8d:	44 89 f2             	mov    %r14d,%edx
  40ba90:	e8 cb ee ff ff       	callq  40a960 <PinMPI_Reduce>
  40ba95:	8b 44 24 1c          	mov    0x1c(%rsp),%eax
  40ba99:	48 8b 5c 24 28       	mov    0x28(%rsp),%rbx
  40ba9e:	48 8b 6c 24 30       	mov    0x30(%rsp),%rbp
  40baa3:	4c 8b 64 24 38       	mov    0x38(%rsp),%r12
  40baa8:	4c 8b 6c 24 40       	mov    0x40(%rsp),%r13
  40baad:	4c 8b 74 24 48       	mov    0x48(%rsp),%r14
  40bab2:	4c 8b 7c 24 50       	mov    0x50(%rsp),%r15
  40bab7:	48 83 c4 58          	add    $0x58,%rsp
  40babb:	c3                   	retq   
  40babc:	0f 1f 40 00          	nopl   0x0(%rax)
  40bac0:	c1 e5 02             	shl    $0x2,%ebp
  40bac3:	eb b3                	jmp    40ba78 <MPI_Reduce+0x1d8>
  40bac5:	0f 1f 00             	nopl   (%rax)
  40bac8:	01 ed                	add    %ebp,%ebp
  40baca:	eb ac                	jmp    40ba78 <MPI_Reduce+0x1d8>
  40bacc:	0f 1f 40 00          	nopl   0x0(%rax)
  40bad0:	c1 e5 03             	shl    $0x3,%ebp
  40bad3:	eb a3                	jmp    40ba78 <MPI_Reduce+0x1d8>
  40bad5:	0f 1f 00             	nopl   (%rax)
  40bad8:	c1 e5 04             	shl    $0x4,%ebp
  40badb:	0f 1f 44 00 00       	nopl   0x0(%rax,%rax,1)
  40bae0:	eb 96                	jmp    40ba78 <MPI_Reduce+0x1d8>
  40bae2:	66 66 66 66 66 2e 0f 	data32 data32 data32 data32 nopw %cs:0x0(%rax,%rax,1)
  40bae9:	1f 84 00 00 00 00 00 

000000000040baf0 <MPI_Bcast>:
  40baf0:	48 89 5c 24 d0       	mov    %rbx,-0x30(%rsp)
  40baf5:	48 89 6c 24 d8       	mov    %rbp,-0x28(%rsp)
  40bafa:	48 89 d3             	mov    %rdx,%rbx
  40bafd:	4c 89 64 24 e0       	mov    %r12,-0x20(%rsp)
  40bb02:	4c 89 6c 24 e8       	mov    %r13,-0x18(%rsp)
  40bb07:	4d 89 c4             	mov    %r8,%r12
  40bb0a:	4c 89 74 24 f0       	mov    %r14,-0x10(%rsp)
  40bb0f:	4c 89 7c 24 f8       	mov    %r15,-0x8(%rsp)
  40bb14:	48 83 ec 38          	sub    $0x38,%rsp
  40bb18:	49 89 fd             	mov    %rdi,%r13
  40bb1b:	89 f5                	mov    %esi,%ebp
  40bb1d:	41 89 ce             	mov    %ecx,%r14d
  40bb20:	e8 fb 72 ff ff       	callq  402e20 <PMPI_Bcast@plt>
  40bb25:	4d 89 e1             	mov    %r12,%r9
  40bb28:	41 b8 40 e8 60 00    	mov    $0x60e840,%r8d
  40bb2e:	b9 60 26 61 00       	mov    $0x612660,%ecx
  40bb33:	ba 01 00 00 00       	mov    $0x1,%edx
  40bb38:	be 20 4b 70 00       	mov    $0x704b20,%esi
  40bb3d:	bf 30 4b 70 00       	mov    $0x704b30,%edi
  40bb42:	41 89 c7             	mov    %eax,%r15d
  40bb45:	e8 66 71 ff ff       	callq  402cb0 <PMPI_Allreduce@plt>
  40bb4a:	48 81 fb 40 f4 60 00 	cmp    $0x60f440,%rbx
  40bb51:	0f 84 69 01 00 00    	je     40bcc0 <MPI_Bcast+0x1d0>
  40bb57:	48 81 fb 40 12 61 00 	cmp    $0x611240,%rbx
  40bb5e:	0f 84 5c 01 00 00    	je     40bcc0 <MPI_Bcast+0x1d0>
  40bb64:	48 81 fb 40 f0 60 00 	cmp    $0x60f040,%rbx
  40bb6b:	0f 84 4f 01 00 00    	je     40bcc0 <MPI_Bcast+0x1d0>
  40bb71:	48 81 fb 40 06 61 00 	cmp    $0x610640,%rbx
  40bb78:	0f 84 8a 01 00 00    	je     40bd08 <MPI_Bcast+0x218>
  40bb7e:	48 81 fb 60 1c 61 00 	cmp    $0x611c60,%rbx
  40bb85:	0f 84 7d 01 00 00    	je     40bd08 <MPI_Bcast+0x218>
  40bb8b:	48 81 fb 40 16 61 00 	cmp    $0x611640,%rbx
  40bb92:	0f 84 68 01 00 00    	je     40bd00 <MPI_Bcast+0x210>
  40bb98:	48 81 fb 40 fc 60 00 	cmp    $0x60fc40,%rbx
  40bb9f:	0f 84 5b 01 00 00    	je     40bd00 <MPI_Bcast+0x210>
  40bba5:	48 81 fb 40 00 61 00 	cmp    $0x610040,%rbx
  40bbac:	0f 84 4e 01 00 00    	je     40bd00 <MPI_Bcast+0x210>
  40bbb2:	48 81 fb 40 10 61 00 	cmp    $0x611040,%rbx
  40bbb9:	0f 84 51 01 00 00    	je     40bd10 <MPI_Bcast+0x220>
  40bbbf:	48 81 fb 60 18 61 00 	cmp    $0x611860,%rbx
  40bbc6:	0f 84 44 01 00 00    	je     40bd10 <MPI_Bcast+0x220>
  40bbcc:	48 81 fb 40 0e 61 00 	cmp    $0x610e40,%rbx
  40bbd3:	0f 84 37 01 00 00    	je     40bd10 <MPI_Bcast+0x220>
  40bbd9:	48 81 fb 40 fe 60 00 	cmp    $0x60fe40,%rbx
  40bbe0:	0f 84 2a 01 00 00    	je     40bd10 <MPI_Bcast+0x220>
  40bbe6:	48 81 fb 40 04 61 00 	cmp    $0x610440,%rbx
  40bbed:	0f 84 25 01 00 00    	je     40bd18 <MPI_Bcast+0x228>
  40bbf3:	48 81 fb 40 08 61 00 	cmp    $0x610840,%rbx
  40bbfa:	0f 84 c0 00 00 00    	je     40bcc0 <MPI_Bcast+0x1d0>
  40bc00:	48 81 fb 60 1a 61 00 	cmp    $0x611a60,%rbx
  40bc07:	0f 84 b3 00 00 00    	je     40bcc0 <MPI_Bcast+0x1d0>
  40bc0d:	48 81 fb 60 20 61 00 	cmp    $0x612060,%rbx
  40bc14:	0f 84 ee 00 00 00    	je     40bd08 <MPI_Bcast+0x218>
  40bc1a:	48 81 fb 40 0a 61 00 	cmp    $0x610a40,%rbx
  40bc21:	0f 84 d9 00 00 00    	je     40bd00 <MPI_Bcast+0x210>
  40bc27:	48 81 fb 40 f6 60 00 	cmp    $0x60f640,%rbx
  40bc2e:	0f 84 cc 00 00 00    	je     40bd00 <MPI_Bcast+0x210>
  40bc34:	48 81 fb 40 e6 60 00 	cmp    $0x60e640,%rbx
  40bc3b:	0f 84 bf 00 00 00    	je     40bd00 <MPI_Bcast+0x210>
  40bc41:	48 81 fb 40 02 61 00 	cmp    $0x610240,%rbx
  40bc48:	0f 84 b2 00 00 00    	je     40bd00 <MPI_Bcast+0x210>
  40bc4e:	48 81 fb 60 24 61 00 	cmp    $0x612460,%rbx
  40bc55:	0f 84 a5 00 00 00    	je     40bd00 <MPI_Bcast+0x210>
  40bc5b:	48 81 fb 40 14 61 00 	cmp    $0x611440,%rbx
  40bc62:	0f 84 a8 00 00 00    	je     40bd10 <MPI_Bcast+0x220>
  40bc68:	48 81 fb 60 22 61 00 	cmp    $0x612260,%rbx
  40bc6f:	0f 84 9b 00 00 00    	je     40bd10 <MPI_Bcast+0x220>
  40bc75:	48 81 fb 40 f2 60 00 	cmp    $0x60f240,%rbx
  40bc7c:	0f 84 8e 00 00 00    	je     40bd10 <MPI_Bcast+0x220>
  40bc82:	48 81 fb 40 0c 61 00 	cmp    $0x610c40,%rbx
  40bc89:	0f 84 81 00 00 00    	je     40bd10 <MPI_Bcast+0x220>
  40bc8f:	48 81 fb 60 1e 61 00 	cmp    $0x611e60,%rbx
  40bc96:	0f 84 7c 00 00 00    	je     40bd18 <MPI_Bcast+0x228>
  40bc9c:	8b 15 de 91 2f 00    	mov    0x2f91de(%rip),%edx        # 704e80 <rank_pmpi>
  40bca2:	48 8b 3d 97 5b 20 00 	mov    0x205b97(%rip),%rdi        # 611840 <stderr@@GLIBC_2.2.5>
  40bca9:	89 d9                	mov    %ebx,%ecx
  40bcab:	be 48 d3 40 00       	mov    $0x40d348,%esi
  40bcb0:	31 c0                	xor    %eax,%eax
  40bcb2:	31 ed                	xor    %ebp,%ebp
  40bcb4:	e8 d7 71 ff ff       	callq  402e90 <fprintf@plt>
  40bcb9:	0f 1f 80 00 00 00 00 	nopl   0x0(%rax)
  40bcc0:	48 8b 35 59 8e 2f 00 	mov    0x2f8e59(%rip),%rsi        # 704b20 <identity_gather_pmpi>
  40bcc7:	8b 3d b3 91 2f 00    	mov    0x2f91b3(%rip),%edi        # 704e80 <rank_pmpi>
  40bccd:	4d 89 e8             	mov    %r13,%r8
  40bcd0:	89 e9                	mov    %ebp,%ecx
  40bcd2:	44 89 f2             	mov    %r14d,%edx
  40bcd5:	e8 66 ec ff ff       	callq  40a940 <PinMPI_Bcast>
  40bcda:	44 89 f8             	mov    %r15d,%eax
  40bcdd:	48 8b 5c 24 08       	mov    0x8(%rsp),%rbx
  40bce2:	48 8b 6c 24 10       	mov    0x10(%rsp),%rbp
  40bce7:	4c 8b 64 24 18       	mov    0x18(%rsp),%r12
  40bcec:	4c 8b 6c 24 20       	mov    0x20(%rsp),%r13
  40bcf1:	4c 8b 74 24 28       	mov    0x28(%rsp),%r14
  40bcf6:	4c 8b 7c 24 30       	mov    0x30(%rsp),%r15
  40bcfb:	48 83 c4 38          	add    $0x38,%rsp
  40bcff:	c3                   	retq   
  40bd00:	c1 e5 02             	shl    $0x2,%ebp
  40bd03:	eb bb                	jmp    40bcc0 <MPI_Bcast+0x1d0>
  40bd05:	0f 1f 00             	nopl   (%rax)
  40bd08:	01 ed                	add    %ebp,%ebp
  40bd0a:	eb b4                	jmp    40bcc0 <MPI_Bcast+0x1d0>
  40bd0c:	0f 1f 40 00          	nopl   0x0(%rax)
  40bd10:	c1 e5 03             	shl    $0x3,%ebp
  40bd13:	eb ab                	jmp    40bcc0 <MPI_Bcast+0x1d0>
  40bd15:	0f 1f 00             	nopl   (%rax)
  40bd18:	c1 e5 04             	shl    $0x4,%ebp
  40bd1b:	0f 1f 44 00 00       	nopl   0x0(%rax,%rax,1)
  40bd20:	eb 9e                	jmp    40bcc0 <MPI_Bcast+0x1d0>
  40bd22:	66 66 66 66 66 2e 0f 	data32 data32 data32 data32 nopw %cs:0x0(%rax,%rax,1)
  40bd29:	1f 84 00 00 00 00 00 

000000000040bd30 <MPI_Irecv>:
  40bd30:	48 89 5c 24 d0       	mov    %rbx,-0x30(%rsp)
  40bd35:	48 89 6c 24 d8       	mov    %rbp,-0x28(%rsp)
  40bd3a:	48 89 d3             	mov    %rdx,%rbx
  40bd3d:	4c 89 64 24 e0       	mov    %r12,-0x20(%rsp)
  40bd42:	4c 89 6c 24 e8       	mov    %r13,-0x18(%rsp)
  40bd47:	49 89 fa             	mov    %rdi,%r10
  40bd4a:	4c 89 74 24 f0       	mov    %r14,-0x10(%rsp)
  40bd4f:	4c 89 7c 24 f8       	mov    %r15,-0x8(%rsp)
  40bd54:	48 83 ec 58          	sub    $0x58,%rsp
  40bd58:	48 8b 44 24 60       	mov    0x60(%rsp),%rax
  40bd5d:	41 89 cd             	mov    %ecx,%r13d
  40bd60:	89 f5                	mov    %esi,%ebp
  40bd62:	45 89 c7             	mov    %r8d,%r15d
  40bd65:	4d 89 cc             	mov    %r9,%r12
  40bd68:	89 f1                	mov    %esi,%ecx
  40bd6a:	48 89 44 24 18       	mov    %rax,0x18(%rsp)
  40bd6f:	8b 05 c3 8d 2f 00    	mov    0x2f8dc3(%rip),%eax        # 704b38 <i_req_push>
  40bd75:	4c 63 f0             	movslq %eax,%r14
  40bd78:	4b 8d 14 b6          	lea    (%r14,%r14,4),%rdx
  40bd7c:	48 c1 e2 03          	shl    $0x3,%rdx
  40bd80:	48 81 fb 40 f4 60 00 	cmp    $0x60f440,%rbx
  40bd87:	c6 82 60 4b 70 00 72 	movb   $0x72,0x704b60(%rdx)
  40bd8e:	44 89 82 68 4b 70 00 	mov    %r8d,0x704b68(%rdx)
  40bd95:	89 c2                	mov    %eax,%edx
  40bd97:	0f 84 73 01 00 00    	je     40bf10 <MPI_Irecv+0x1e0>
  40bd9d:	48 81 fb 40 12 61 00 	cmp    $0x611240,%rbx
  40bda4:	0f 84 66 01 00 00    	je     40bf10 <MPI_Irecv+0x1e0>
  40bdaa:	48 81 fb 40 f0 60 00 	cmp    $0x60f040,%rbx
  40bdb1:	0f 84 59 01 00 00    	je     40bf10 <MPI_Irecv+0x1e0>
  40bdb7:	48 81 fb 40 06 61 00 	cmp    $0x610640,%rbx
  40bdbe:	0f 84 6c 02 00 00    	je     40c030 <MPI_Irecv+0x300>
  40bdc4:	48 81 fb 60 1c 61 00 	cmp    $0x611c60,%rbx
  40bdcb:	0f 84 3f 02 00 00    	je     40c010 <MPI_Irecv+0x2e0>
  40bdd1:	48 81 fb 40 16 61 00 	cmp    $0x611640,%rbx
  40bdd8:	0f 84 1a 02 00 00    	je     40bff8 <MPI_Irecv+0x2c8>
  40bdde:	48 81 fb 40 fc 60 00 	cmp    $0x60fc40,%rbx
  40bde5:	0f 84 0d 02 00 00    	je     40bff8 <MPI_Irecv+0x2c8>
  40bdeb:	48 81 fb 40 00 61 00 	cmp    $0x610040,%rbx
  40bdf2:	0f 84 00 02 00 00    	je     40bff8 <MPI_Irecv+0x2c8>
  40bdf8:	48 81 fb 40 10 61 00 	cmp    $0x611040,%rbx
  40bdff:	0f 84 1b 02 00 00    	je     40c020 <MPI_Irecv+0x2f0>
  40be05:	48 81 fb 60 18 61 00 	cmp    $0x611860,%rbx
  40be0c:	0f 84 0e 02 00 00    	je     40c020 <MPI_Irecv+0x2f0>
  40be12:	48 81 fb 40 0e 61 00 	cmp    $0x610e40,%rbx
  40be19:	0f 84 01 02 00 00    	je     40c020 <MPI_Irecv+0x2f0>
  40be1f:	48 81 fb 40 fe 60 00 	cmp    $0x60fe40,%rbx
  40be26:	0f 84 f4 01 00 00    	je     40c020 <MPI_Irecv+0x2f0>
  40be2c:	48 81 fb 40 04 61 00 	cmp    $0x610440,%rbx
  40be33:	0f 84 17 02 00 00    	je     40c050 <MPI_Irecv+0x320>
  40be39:	48 81 fb 40 08 61 00 	cmp    $0x610840,%rbx
  40be40:	0f 84 fa 01 00 00    	je     40c040 <MPI_Irecv+0x310>
  40be46:	48 81 fb 60 1a 61 00 	cmp    $0x611a60,%rbx
  40be4d:	0f 84 ed 01 00 00    	je     40c040 <MPI_Irecv+0x310>
  40be53:	48 81 fb 60 20 61 00 	cmp    $0x612060,%rbx
  40be5a:	0f 84 b0 01 00 00    	je     40c010 <MPI_Irecv+0x2e0>
  40be60:	48 81 fb 40 0a 61 00 	cmp    $0x610a40,%rbx
  40be67:	0f 84 8b 01 00 00    	je     40bff8 <MPI_Irecv+0x2c8>
  40be6d:	48 81 fb 40 f6 60 00 	cmp    $0x60f640,%rbx
  40be74:	0f 84 7e 01 00 00    	je     40bff8 <MPI_Irecv+0x2c8>
  40be7a:	48 81 fb 40 e6 60 00 	cmp    $0x60e640,%rbx
  40be81:	0f 84 71 01 00 00    	je     40bff8 <MPI_Irecv+0x2c8>
  40be87:	48 81 fb 40 02 61 00 	cmp    $0x610240,%rbx
  40be8e:	0f 84 64 01 00 00    	je     40bff8 <MPI_Irecv+0x2c8>
  40be94:	48 81 fb 60 24 61 00 	cmp    $0x612460,%rbx
  40be9b:	0f 84 57 01 00 00    	je     40bff8 <MPI_Irecv+0x2c8>
  40bea1:	48 81 fb 40 14 61 00 	cmp    $0x611440,%rbx
  40bea8:	0f 84 72 01 00 00    	je     40c020 <MPI_Irecv+0x2f0>
  40beae:	48 81 fb 60 22 61 00 	cmp    $0x612260,%rbx
  40beb5:	0f 84 65 01 00 00    	je     40c020 <MPI_Irecv+0x2f0>
  40bebb:	48 81 fb 40 f2 60 00 	cmp    $0x60f240,%rbx
  40bec2:	0f 84 58 01 00 00    	je     40c020 <MPI_Irecv+0x2f0>
  40bec8:	48 81 fb 40 0c 61 00 	cmp    $0x610c40,%rbx
  40becf:	0f 84 4b 01 00 00    	je     40c020 <MPI_Irecv+0x2f0>
  40bed5:	48 81 fb 60 1e 61 00 	cmp    $0x611e60,%rbx
  40bedc:	0f 84 6e 01 00 00    	je     40c050 <MPI_Irecv+0x320>
  40bee2:	8b 15 98 8f 2f 00    	mov    0x2f8f98(%rip),%edx        # 704e80 <rank_pmpi>
  40bee8:	48 8b 3d 51 59 20 00 	mov    0x205951(%rip),%rdi        # 611840 <stderr@@GLIBC_2.2.5>
  40beef:	89 d9                	mov    %ebx,%ecx
  40bef1:	be 48 d3 40 00       	mov    $0x40d348,%esi
  40bef6:	31 c0                	xor    %eax,%eax
  40bef8:	4c 89 54 24 10       	mov    %r10,0x10(%rsp)
  40befd:	e8 8e 6f ff ff       	callq  402e90 <fprintf@plt>
  40bf02:	8b 15 30 8c 2f 00    	mov    0x2f8c30(%rip),%edx        # 704b38 <i_req_push>
  40bf08:	4c 8b 54 24 10       	mov    0x10(%rsp),%r10
  40bf0d:	31 c9                	xor    %ecx,%ecx
  40bf0f:	90                   	nop
  40bf10:	4b 8d 04 b6          	lea    (%r14,%r14,4),%rax
  40bf14:	48 63 d2             	movslq %edx,%rdx
  40bf17:	4d 89 e1             	mov    %r12,%r9
  40bf1a:	41 b8 59 02 00 00    	mov    $0x259,%r8d
  40bf20:	be 01 00 00 00       	mov    $0x1,%esi
  40bf25:	4c 89 54 24 10       	mov    %r10,0x10(%rsp)
  40bf2a:	89 0c c5 6c 4b 70 00 	mov    %ecx,0x704b6c(,%rax,8)
  40bf31:	48 8d 04 92          	lea    (%rdx,%rdx,4),%rax
  40bf35:	44 89 e9             	mov    %r13d,%ecx
  40bf38:	ba 40 16 61 00       	mov    $0x611640,%edx
  40bf3d:	48 c1 e0 03          	shl    $0x3,%rax
  40bf41:	48 8d b8 64 4b 70 00 	lea    0x704b64(%rax),%rdi
  40bf48:	4c 89 90 70 4b 70 00 	mov    %r10,0x704b70(%rax)
  40bf4f:	48 05 80 4b 70 00    	add    $0x704b80,%rax
  40bf55:	48 89 04 24          	mov    %rax,(%rsp)
  40bf59:	e8 f2 6c ff ff       	callq  402c50 <PMPI_Irecv@plt>
  40bf5e:	48 63 05 d3 8b 2f 00 	movslq 0x2f8bd3(%rip),%rax        # 704b38 <i_req_push>
  40bf65:	4d 89 e1             	mov    %r12,%r9
  40bf68:	44 89 e9             	mov    %r13d,%ecx
  40bf6b:	41 b8 59 02 00 00    	mov    $0x259,%r8d
  40bf71:	ba 40 16 61 00       	mov    $0x611640,%edx
  40bf76:	be 01 00 00 00       	mov    $0x1,%esi
  40bf7b:	bf 80 4e 70 00       	mov    $0x704e80,%edi
  40bf80:	48 8d 04 80          	lea    (%rax,%rax,4),%rax
  40bf84:	48 8d 04 c5 78 4b 70 	lea    0x704b78(,%rax,8),%rax
  40bf8b:	00 
  40bf8c:	48 89 04 24          	mov    %rax,(%rsp)
  40bf90:	e8 db 6f ff ff       	callq  402f70 <PMPI_Isend@plt>
  40bf95:	8b 15 9d 8b 2f 00    	mov    0x2f8b9d(%rip),%edx        # 704b38 <i_req_push>
  40bf9b:	31 c0                	xor    %eax,%eax
  40bf9d:	4c 8b 54 24 10       	mov    0x10(%rsp),%r10
  40bfa2:	4d 89 e1             	mov    %r12,%r9
  40bfa5:	45 89 f8             	mov    %r15d,%r8d
  40bfa8:	44 89 e9             	mov    %r13d,%ecx
  40bfab:	89 ee                	mov    %ebp,%esi
  40bfad:	4c 8b 64 24 38       	mov    0x38(%rsp),%r12
  40bfb2:	48 8b 6c 24 30       	mov    0x30(%rsp),%rbp
  40bfb7:	83 c2 01             	add    $0x1,%edx
  40bfba:	4c 8b 6c 24 40       	mov    0x40(%rsp),%r13
  40bfbf:	4c 8b 74 24 48       	mov    0x48(%rsp),%r14
  40bfc4:	83 fa 14             	cmp    $0x14,%edx
  40bfc7:	4c 8b 7c 24 50       	mov    0x50(%rsp),%r15
  40bfcc:	4c 89 d7             	mov    %r10,%rdi
  40bfcf:	0f 45 c2             	cmovne %edx,%eax
  40bfd2:	48 89 da             	mov    %rbx,%rdx
  40bfd5:	48 8b 5c 24 28       	mov    0x28(%rsp),%rbx
  40bfda:	89 05 58 8b 2f 00    	mov    %eax,0x2f8b58(%rip)        # 704b38 <i_req_push>
  40bfe0:	48 8b 44 24 18       	mov    0x18(%rsp),%rax
  40bfe5:	48 89 44 24 60       	mov    %rax,0x60(%rsp)
  40bfea:	48 83 c4 58          	add    $0x58,%rsp
  40bfee:	e9 5d 6c ff ff       	jmpq   402c50 <PMPI_Irecv@plt>
  40bff3:	0f 1f 44 00 00       	nopl   0x0(%rax,%rax,1)
  40bff8:	8d 0c ad 00 00 00 00 	lea    0x0(,%rbp,4),%ecx
  40bfff:	89 c2                	mov    %eax,%edx
  40c001:	e9 0a ff ff ff       	jmpq   40bf10 <MPI_Irecv+0x1e0>
  40c006:	66 2e 0f 1f 84 00 00 	nopw   %cs:0x0(%rax,%rax,1)
  40c00d:	00 00 00 
  40c010:	8d 4c 2d 00          	lea    0x0(%rbp,%rbp,1),%ecx
  40c014:	89 c2                	mov    %eax,%edx
  40c016:	e9 f5 fe ff ff       	jmpq   40bf10 <MPI_Irecv+0x1e0>
  40c01b:	0f 1f 44 00 00       	nopl   0x0(%rax,%rax,1)
  40c020:	8d 0c ed 00 00 00 00 	lea    0x0(,%rbp,8),%ecx
  40c027:	89 c2                	mov    %eax,%edx
  40c029:	e9 e2 fe ff ff       	jmpq   40bf10 <MPI_Irecv+0x1e0>
  40c02e:	66 90                	xchg   %ax,%ax
  40c030:	8d 4c 2d 00          	lea    0x0(%rbp,%rbp,1),%ecx
  40c034:	e9 d7 fe ff ff       	jmpq   40bf10 <MPI_Irecv+0x1e0>
  40c039:	0f 1f 80 00 00 00 00 	nopl   0x0(%rax)
  40c040:	89 e9                	mov    %ebp,%ecx
  40c042:	89 c2                	mov    %eax,%edx
  40c044:	e9 c7 fe ff ff       	jmpq   40bf10 <MPI_Irecv+0x1e0>
  40c049:	0f 1f 80 00 00 00 00 	nopl   0x0(%rax)
  40c050:	89 e9                	mov    %ebp,%ecx
  40c052:	89 c2                	mov    %eax,%edx
  40c054:	c1 e1 04             	shl    $0x4,%ecx
  40c057:	e9 b4 fe ff ff       	jmpq   40bf10 <MPI_Irecv+0x1e0>
  40c05c:	0f 1f 40 00          	nopl   0x0(%rax)

000000000040c060 <MPI_Isend>:
  40c060:	48 89 5c 24 d0       	mov    %rbx,-0x30(%rsp)
  40c065:	48 89 6c 24 d8       	mov    %rbp,-0x28(%rsp)
  40c06a:	48 89 d3             	mov    %rdx,%rbx
  40c06d:	4c 89 64 24 e0       	mov    %r12,-0x20(%rsp)
  40c072:	4c 89 6c 24 e8       	mov    %r13,-0x18(%rsp)
  40c077:	49 89 fa             	mov    %rdi,%r10
  40c07a:	4c 89 74 24 f0       	mov    %r14,-0x10(%rsp)
  40c07f:	4c 89 7c 24 f8       	mov    %r15,-0x8(%rsp)
  40c084:	48 83 ec 58          	sub    $0x58,%rsp
  40c088:	48 8b 44 24 60       	mov    0x60(%rsp),%rax
  40c08d:	41 89 cd             	mov    %ecx,%r13d
  40c090:	89 f5                	mov    %esi,%ebp
  40c092:	45 89 c7             	mov    %r8d,%r15d
  40c095:	4d 89 cc             	mov    %r9,%r12
  40c098:	89 f1                	mov    %esi,%ecx
  40c09a:	48 89 44 24 18       	mov    %rax,0x18(%rsp)
  40c09f:	8b 05 93 8a 2f 00    	mov    0x2f8a93(%rip),%eax        # 704b38 <i_req_push>
  40c0a5:	4c 63 f0             	movslq %eax,%r14
  40c0a8:	4b 8d 14 b6          	lea    (%r14,%r14,4),%rdx
  40c0ac:	48 c1 e2 03          	shl    $0x3,%rdx
  40c0b0:	48 81 fb 40 f4 60 00 	cmp    $0x60f440,%rbx
  40c0b7:	c6 82 60 4b 70 00 73 	movb   $0x73,0x704b60(%rdx)
  40c0be:	44 89 82 68 4b 70 00 	mov    %r8d,0x704b68(%rdx)
  40c0c5:	89 c2                	mov    %eax,%edx
  40c0c7:	0f 84 73 01 00 00    	je     40c240 <MPI_Isend+0x1e0>
  40c0cd:	48 81 fb 40 12 61 00 	cmp    $0x611240,%rbx
  40c0d4:	0f 84 66 01 00 00    	je     40c240 <MPI_Isend+0x1e0>
  40c0da:	48 81 fb 40 f0 60 00 	cmp    $0x60f040,%rbx
  40c0e1:	0f 84 59 01 00 00    	je     40c240 <MPI_Isend+0x1e0>
  40c0e7:	48 81 fb 40 06 61 00 	cmp    $0x610640,%rbx
  40c0ee:	0f 84 6c 02 00 00    	je     40c360 <MPI_Isend+0x300>
  40c0f4:	48 81 fb 60 1c 61 00 	cmp    $0x611c60,%rbx
  40c0fb:	0f 84 3f 02 00 00    	je     40c340 <MPI_Isend+0x2e0>
  40c101:	48 81 fb 40 16 61 00 	cmp    $0x611640,%rbx
  40c108:	0f 84 1a 02 00 00    	je     40c328 <MPI_Isend+0x2c8>
  40c10e:	48 81 fb 40 fc 60 00 	cmp    $0x60fc40,%rbx
  40c115:	0f 84 0d 02 00 00    	je     40c328 <MPI_Isend+0x2c8>
  40c11b:	48 81 fb 40 00 61 00 	cmp    $0x610040,%rbx
  40c122:	0f 84 00 02 00 00    	je     40c328 <MPI_Isend+0x2c8>
  40c128:	48 81 fb 40 10 61 00 	cmp    $0x611040,%rbx
  40c12f:	0f 84 1b 02 00 00    	je     40c350 <MPI_Isend+0x2f0>
  40c135:	48 81 fb 60 18 61 00 	cmp    $0x611860,%rbx
  40c13c:	0f 84 0e 02 00 00    	je     40c350 <MPI_Isend+0x2f0>
  40c142:	48 81 fb 40 0e 61 00 	cmp    $0x610e40,%rbx
  40c149:	0f 84 01 02 00 00    	je     40c350 <MPI_Isend+0x2f0>
  40c14f:	48 81 fb 40 fe 60 00 	cmp    $0x60fe40,%rbx
  40c156:	0f 84 f4 01 00 00    	je     40c350 <MPI_Isend+0x2f0>
  40c15c:	48 81 fb 40 04 61 00 	cmp    $0x610440,%rbx
  40c163:	0f 84 17 02 00 00    	je     40c380 <MPI_Isend+0x320>
  40c169:	48 81 fb 40 08 61 00 	cmp    $0x610840,%rbx
  40c170:	0f 84 fa 01 00 00    	je     40c370 <MPI_Isend+0x310>
  40c176:	48 81 fb 60 1a 61 00 	cmp    $0x611a60,%rbx
  40c17d:	0f 84 ed 01 00 00    	je     40c370 <MPI_Isend+0x310>
  40c183:	48 81 fb 60 20 61 00 	cmp    $0x612060,%rbx
  40c18a:	0f 84 b0 01 00 00    	je     40c340 <MPI_Isend+0x2e0>
  40c190:	48 81 fb 40 0a 61 00 	cmp    $0x610a40,%rbx
  40c197:	0f 84 8b 01 00 00    	je     40c328 <MPI_Isend+0x2c8>
  40c19d:	48 81 fb 40 f6 60 00 	cmp    $0x60f640,%rbx
  40c1a4:	0f 84 7e 01 00 00    	je     40c328 <MPI_Isend+0x2c8>
  40c1aa:	48 81 fb 40 e6 60 00 	cmp    $0x60e640,%rbx
  40c1b1:	0f 84 71 01 00 00    	je     40c328 <MPI_Isend+0x2c8>
  40c1b7:	48 81 fb 40 02 61 00 	cmp    $0x610240,%rbx
  40c1be:	0f 84 64 01 00 00    	je     40c328 <MPI_Isend+0x2c8>
  40c1c4:	48 81 fb 60 24 61 00 	cmp    $0x612460,%rbx
  40c1cb:	0f 84 57 01 00 00    	je     40c328 <MPI_Isend+0x2c8>
  40c1d1:	48 81 fb 40 14 61 00 	cmp    $0x611440,%rbx
  40c1d8:	0f 84 72 01 00 00    	je     40c350 <MPI_Isend+0x2f0>
  40c1de:	48 81 fb 60 22 61 00 	cmp    $0x612260,%rbx
  40c1e5:	0f 84 65 01 00 00    	je     40c350 <MPI_Isend+0x2f0>
  40c1eb:	48 81 fb 40 f2 60 00 	cmp    $0x60f240,%rbx
  40c1f2:	0f 84 58 01 00 00    	je     40c350 <MPI_Isend+0x2f0>
  40c1f8:	48 81 fb 40 0c 61 00 	cmp    $0x610c40,%rbx
  40c1ff:	0f 84 4b 01 00 00    	je     40c350 <MPI_Isend+0x2f0>
  40c205:	48 81 fb 60 1e 61 00 	cmp    $0x611e60,%rbx
  40c20c:	0f 84 6e 01 00 00    	je     40c380 <MPI_Isend+0x320>
  40c212:	8b 15 68 8c 2f 00    	mov    0x2f8c68(%rip),%edx        # 704e80 <rank_pmpi>
  40c218:	48 8b 3d 21 56 20 00 	mov    0x205621(%rip),%rdi        # 611840 <stderr@@GLIBC_2.2.5>
  40c21f:	89 d9                	mov    %ebx,%ecx
  40c221:	be 48 d3 40 00       	mov    $0x40d348,%esi
  40c226:	31 c0                	xor    %eax,%eax
  40c228:	4c 89 54 24 10       	mov    %r10,0x10(%rsp)
  40c22d:	e8 5e 6c ff ff       	callq  402e90 <fprintf@plt>
  40c232:	8b 15 00 89 2f 00    	mov    0x2f8900(%rip),%edx        # 704b38 <i_req_push>
  40c238:	4c 8b 54 24 10       	mov    0x10(%rsp),%r10
  40c23d:	31 c9                	xor    %ecx,%ecx
  40c23f:	90                   	nop
  40c240:	4b 8d 04 b6          	lea    (%r14,%r14,4),%rax
  40c244:	48 63 d2             	movslq %edx,%rdx
  40c247:	4d 89 e1             	mov    %r12,%r9
  40c24a:	41 b8 59 02 00 00    	mov    $0x259,%r8d
  40c250:	be 01 00 00 00       	mov    $0x1,%esi
  40c255:	bf 80 4e 70 00       	mov    $0x704e80,%edi
  40c25a:	89 0c c5 6c 4b 70 00 	mov    %ecx,0x704b6c(,%rax,8)
  40c261:	48 8d 04 92          	lea    (%rdx,%rdx,4),%rax
  40c265:	44 89 e9             	mov    %r13d,%ecx
  40c268:	ba 40 16 61 00       	mov    $0x611640,%edx
  40c26d:	4c 89 54 24 10       	mov    %r10,0x10(%rsp)
  40c272:	48 c1 e0 03          	shl    $0x3,%rax
  40c276:	4c 89 90 70 4b 70 00 	mov    %r10,0x704b70(%rax)
  40c27d:	48 05 78 4b 70 00    	add    $0x704b78,%rax
  40c283:	48 89 04 24          	mov    %rax,(%rsp)
  40c287:	e8 e4 6c ff ff       	callq  402f70 <PMPI_Isend@plt>
  40c28c:	48 63 05 a5 88 2f 00 	movslq 0x2f88a5(%rip),%rax        # 704b38 <i_req_push>
  40c293:	4d 89 e1             	mov    %r12,%r9
  40c296:	44 89 e9             	mov    %r13d,%ecx
  40c299:	41 b8 59 02 00 00    	mov    $0x259,%r8d
  40c29f:	ba 40 16 61 00       	mov    $0x611640,%edx
  40c2a4:	be 01 00 00 00       	mov    $0x1,%esi
  40c2a9:	48 8d 04 80          	lea    (%rax,%rax,4),%rax
  40c2ad:	48 c1 e0 03          	shl    $0x3,%rax
  40c2b1:	48 8d b8 64 4b 70 00 	lea    0x704b64(%rax),%rdi
  40c2b8:	48 05 80 4b 70 00    	add    $0x704b80,%rax
  40c2be:	48 89 04 24          	mov    %rax,(%rsp)
  40c2c2:	e8 89 69 ff ff       	callq  402c50 <PMPI_Irecv@plt>
  40c2c7:	8b 15 6b 88 2f 00    	mov    0x2f886b(%rip),%edx        # 704b38 <i_req_push>
  40c2cd:	31 c0                	xor    %eax,%eax
  40c2cf:	4c 8b 54 24 10       	mov    0x10(%rsp),%r10
  40c2d4:	4d 89 e1             	mov    %r12,%r9
  40c2d7:	45 89 f8             	mov    %r15d,%r8d
  40c2da:	44 89 e9             	mov    %r13d,%ecx
  40c2dd:	89 ee                	mov    %ebp,%esi
  40c2df:	4c 8b 64 24 38       	mov    0x38(%rsp),%r12
  40c2e4:	48 8b 6c 24 30       	mov    0x30(%rsp),%rbp
  40c2e9:	83 c2 01             	add    $0x1,%edx
  40c2ec:	4c 8b 6c 24 40       	mov    0x40(%rsp),%r13
  40c2f1:	4c 8b 74 24 48       	mov    0x48(%rsp),%r14
  40c2f6:	83 fa 14             	cmp    $0x14,%edx
  40c2f9:	4c 8b 7c 24 50       	mov    0x50(%rsp),%r15
  40c2fe:	4c 89 d7             	mov    %r10,%rdi
  40c301:	0f 45 c2             	cmovne %edx,%eax
  40c304:	48 89 da             	mov    %rbx,%rdx
  40c307:	48 8b 5c 24 28       	mov    0x28(%rsp),%rbx
  40c30c:	89 05 26 88 2f 00    	mov    %eax,0x2f8826(%rip)        # 704b38 <i_req_push>
  40c312:	48 8b 44 24 18       	mov    0x18(%rsp),%rax
  40c317:	48 89 44 24 60       	mov    %rax,0x60(%rsp)
  40c31c:	48 83 c4 58          	add    $0x58,%rsp
  40c320:	e9 4b 6c ff ff       	jmpq   402f70 <PMPI_Isend@plt>
  40c325:	0f 1f 00             	nopl   (%rax)
  40c328:	8d 0c ad 00 00 00 00 	lea    0x0(,%rbp,4),%ecx
  40c32f:	89 c2                	mov    %eax,%edx
  40c331:	e9 0a ff ff ff       	jmpq   40c240 <MPI_Isend+0x1e0>
  40c336:	66 2e 0f 1f 84 00 00 	nopw   %cs:0x0(%rax,%rax,1)
  40c33d:	00 00 00 
  40c340:	8d 4c 2d 00          	lea    0x0(%rbp,%rbp,1),%ecx
  40c344:	89 c2                	mov    %eax,%edx
  40c346:	e9 f5 fe ff ff       	jmpq   40c240 <MPI_Isend+0x1e0>
  40c34b:	0f 1f 44 00 00       	nopl   0x0(%rax,%rax,1)
  40c350:	8d 0c ed 00 00 00 00 	lea    0x0(,%rbp,8),%ecx
  40c357:	89 c2                	mov    %eax,%edx
  40c359:	e9 e2 fe ff ff       	jmpq   40c240 <MPI_Isend+0x1e0>
  40c35e:	66 90                	xchg   %ax,%ax
  40c360:	8d 4c 2d 00          	lea    0x0(%rbp,%rbp,1),%ecx
  40c364:	e9 d7 fe ff ff       	jmpq   40c240 <MPI_Isend+0x1e0>
  40c369:	0f 1f 80 00 00 00 00 	nopl   0x0(%rax)
  40c370:	89 e9                	mov    %ebp,%ecx
  40c372:	89 c2                	mov    %eax,%edx
  40c374:	e9 c7 fe ff ff       	jmpq   40c240 <MPI_Isend+0x1e0>
  40c379:	0f 1f 80 00 00 00 00 	nopl   0x0(%rax)
  40c380:	89 e9                	mov    %ebp,%ecx
  40c382:	89 c2                	mov    %eax,%edx
  40c384:	c1 e1 04             	shl    $0x4,%ecx
  40c387:	e9 b4 fe ff ff       	jmpq   40c240 <MPI_Isend+0x1e0>
  40c38c:	0f 1f 40 00          	nopl   0x0(%rax)

000000000040c390 <MPI_Recv>:
  40c390:	48 89 5c 24 d0       	mov    %rbx,-0x30(%rsp)
  40c395:	48 89 6c 24 d8       	mov    %rbp,-0x28(%rsp)
  40c39a:	48 89 d3             	mov    %rdx,%rbx
  40c39d:	4c 89 64 24 e0       	mov    %r12,-0x20(%rsp)
  40c3a2:	4c 89 6c 24 e8       	mov    %r13,-0x18(%rsp)
  40c3a7:	41 89 cc             	mov    %ecx,%r12d
  40c3aa:	4c 89 74 24 f0       	mov    %r14,-0x10(%rsp)
  40c3af:	4c 89 7c 24 f8       	mov    %r15,-0x8(%rsp)
  40c3b4:	48 83 ec 78          	sub    $0x78,%rsp
  40c3b8:	48 8d 44 24 20       	lea    0x20(%rsp),%rax
  40c3bd:	49 89 fe             	mov    %rdi,%r14
  40c3c0:	48 8d 7c 24 3c       	lea    0x3c(%rsp),%rdi
  40c3c5:	4c 89 cd             	mov    %r9,%rbp
  40c3c8:	ba 40 16 61 00       	mov    $0x611640,%edx
  40c3cd:	41 89 f5             	mov    %esi,%r13d
  40c3d0:	45 89 c7             	mov    %r8d,%r15d
  40c3d3:	be 01 00 00 00       	mov    $0x1,%esi
  40c3d8:	41 b8 59 02 00 00    	mov    $0x259,%r8d
  40c3de:	48 89 04 24          	mov    %rax,(%rsp)
  40c3e2:	e8 79 6a ff ff       	callq  402e60 <PMPI_Recv@plt>
  40c3e7:	49 89 e9             	mov    %rbp,%r9
  40c3ea:	41 b8 59 02 00 00    	mov    $0x259,%r8d
  40c3f0:	44 89 e1             	mov    %r12d,%ecx
  40c3f3:	ba 40 16 61 00       	mov    $0x611640,%edx
  40c3f8:	be 01 00 00 00       	mov    $0x1,%esi
  40c3fd:	bf 80 4e 70 00       	mov    $0x704e80,%edi
  40c402:	e8 99 68 ff ff       	callq  402ca0 <PMPI_Send@plt>
  40c407:	48 81 fb 40 f4 60 00 	cmp    $0x60f440,%rbx
  40c40e:	0f 84 dc 01 00 00    	je     40c5f0 <MPI_Recv+0x260>
  40c414:	48 81 fb 40 12 61 00 	cmp    $0x611240,%rbx
  40c41b:	0f 84 cf 01 00 00    	je     40c5f0 <MPI_Recv+0x260>
  40c421:	48 81 fb 40 f0 60 00 	cmp    $0x60f040,%rbx
  40c428:	0f 84 c2 01 00 00    	je     40c5f0 <MPI_Recv+0x260>
  40c42e:	48 81 fb 40 06 61 00 	cmp    $0x610640,%rbx
  40c435:	0f 84 c5 01 00 00    	je     40c600 <MPI_Recv+0x270>
  40c43b:	48 81 fb 60 1c 61 00 	cmp    $0x611c60,%rbx
  40c442:	0f 84 b8 01 00 00    	je     40c600 <MPI_Recv+0x270>
  40c448:	b8 40 16 61 00       	mov    $0x611640,%eax
  40c44d:	48 39 d8             	cmp    %rbx,%rax
  40c450:	0f 84 22 01 00 00    	je     40c578 <MPI_Recv+0x1e8>
  40c456:	48 81 fb 40 fc 60 00 	cmp    $0x60fc40,%rbx
  40c45d:	0f 84 15 01 00 00    	je     40c578 <MPI_Recv+0x1e8>
  40c463:	48 81 fb 40 00 61 00 	cmp    $0x610040,%rbx
  40c46a:	0f 84 08 01 00 00    	je     40c578 <MPI_Recv+0x1e8>
  40c470:	48 81 fb 40 10 61 00 	cmp    $0x611040,%rbx
  40c477:	0f 84 93 01 00 00    	je     40c610 <MPI_Recv+0x280>
  40c47d:	48 81 fb 60 18 61 00 	cmp    $0x611860,%rbx
  40c484:	0f 84 86 01 00 00    	je     40c610 <MPI_Recv+0x280>
  40c48a:	48 81 fb 40 0e 61 00 	cmp    $0x610e40,%rbx
  40c491:	0f 84 79 01 00 00    	je     40c610 <MPI_Recv+0x280>
  40c497:	48 81 fb 40 fe 60 00 	cmp    $0x60fe40,%rbx
  40c49e:	0f 84 6c 01 00 00    	je     40c610 <MPI_Recv+0x280>
  40c4a4:	48 81 fb 40 04 61 00 	cmp    $0x610440,%rbx
  40c4ab:	0f 84 77 01 00 00    	je     40c628 <MPI_Recv+0x298>
  40c4b1:	48 81 fb 40 08 61 00 	cmp    $0x610840,%rbx
  40c4b8:	0f 84 32 01 00 00    	je     40c5f0 <MPI_Recv+0x260>
  40c4be:	48 81 fb 60 1a 61 00 	cmp    $0x611a60,%rbx
  40c4c5:	0f 84 25 01 00 00    	je     40c5f0 <MPI_Recv+0x260>
  40c4cb:	48 81 fb 60 20 61 00 	cmp    $0x612060,%rbx
  40c4d2:	0f 84 28 01 00 00    	je     40c600 <MPI_Recv+0x270>
  40c4d8:	48 81 fb 40 0a 61 00 	cmp    $0x610a40,%rbx
  40c4df:	0f 84 93 00 00 00    	je     40c578 <MPI_Recv+0x1e8>
  40c4e5:	48 81 fb 40 f6 60 00 	cmp    $0x60f640,%rbx
  40c4ec:	0f 84 86 00 00 00    	je     40c578 <MPI_Recv+0x1e8>
  40c4f2:	48 81 fb 40 e6 60 00 	cmp    $0x60e640,%rbx
  40c4f9:	74 7d                	je     40c578 <MPI_Recv+0x1e8>
  40c4fb:	48 81 fb 40 02 61 00 	cmp    $0x610240,%rbx
  40c502:	74 74                	je     40c578 <MPI_Recv+0x1e8>
  40c504:	48 81 fb 60 24 61 00 	cmp    $0x612460,%rbx
  40c50b:	74 6b                	je     40c578 <MPI_Recv+0x1e8>
  40c50d:	48 81 fb 40 14 61 00 	cmp    $0x611440,%rbx
  40c514:	0f 84 f6 00 00 00    	je     40c610 <MPI_Recv+0x280>
  40c51a:	48 81 fb 60 22 61 00 	cmp    $0x612260,%rbx
  40c521:	0f 84 e9 00 00 00    	je     40c610 <MPI_Recv+0x280>
  40c527:	48 81 fb 40 f2 60 00 	cmp    $0x60f240,%rbx
  40c52e:	0f 84 dc 00 00 00    	je     40c610 <MPI_Recv+0x280>
  40c534:	48 81 fb 40 0c 61 00 	cmp    $0x610c40,%rbx
  40c53b:	0f 84 cf 00 00 00    	je     40c610 <MPI_Recv+0x280>
  40c541:	48 81 fb 60 1e 61 00 	cmp    $0x611e60,%rbx
  40c548:	0f 84 da 00 00 00    	je     40c628 <MPI_Recv+0x298>
  40c54e:	8b 15 2c 89 2f 00    	mov    0x2f892c(%rip),%edx        # 704e80 <rank_pmpi>
  40c554:	48 8b 3d e5 52 20 00 	mov    0x2052e5(%rip),%rdi        # 611840 <stderr@@GLIBC_2.2.5>
  40c55b:	89 d9                	mov    %ebx,%ecx
  40c55d:	be 48 d3 40 00       	mov    $0x40d348,%esi
  40c562:	31 c0                	xor    %eax,%eax
  40c564:	e8 27 69 ff ff       	callq  402e90 <fprintf@plt>
  40c569:	c7 44 24 1c 00 00 00 	movl   $0x0,0x1c(%rsp)
  40c570:	00 
  40c571:	eb 11                	jmp    40c584 <MPI_Recv+0x1f4>
  40c573:	0f 1f 44 00 00       	nopl   0x0(%rax,%rax,1)
  40c578:	42 8d 04 ad 00 00 00 	lea    0x0(,%r13,4),%eax
  40c57f:	00 
  40c580:	89 44 24 1c          	mov    %eax,0x1c(%rsp)
  40c584:	48 8b 84 24 80 00 00 	mov    0x80(%rsp),%rax
  40c58b:	00 
  40c58c:	49 89 e9             	mov    %rbp,%r9
  40c58f:	45 89 f8             	mov    %r15d,%r8d
  40c592:	44 89 e1             	mov    %r12d,%ecx
  40c595:	48 89 da             	mov    %rbx,%rdx
  40c598:	44 89 ee             	mov    %r13d,%esi
  40c59b:	4c 89 f7             	mov    %r14,%rdi
  40c59e:	48 89 04 24          	mov    %rax,(%rsp)
  40c5a2:	e8 b9 68 ff ff       	callq  402e60 <PMPI_Recv@plt>
  40c5a7:	8b 4c 24 1c          	mov    0x1c(%rsp),%ecx
  40c5ab:	8b 74 24 3c          	mov    0x3c(%rsp),%esi
  40c5af:	89 c3                	mov    %eax,%ebx
  40c5b1:	8b 3d c9 88 2f 00    	mov    0x2f88c9(%rip),%edi        # 704e80 <rank_pmpi>
  40c5b7:	4d 89 f0             	mov    %r14,%r8
  40c5ba:	44 89 fa             	mov    %r15d,%edx
  40c5bd:	e8 3e e3 ff ff       	callq  40a900 <PinMPI_Recv>
  40c5c2:	89 d8                	mov    %ebx,%eax
  40c5c4:	48 8b 6c 24 50       	mov    0x50(%rsp),%rbp
  40c5c9:	48 8b 5c 24 48       	mov    0x48(%rsp),%rbx
  40c5ce:	4c 8b 64 24 58       	mov    0x58(%rsp),%r12
  40c5d3:	4c 8b 6c 24 60       	mov    0x60(%rsp),%r13
  40c5d8:	4c 8b 74 24 68       	mov    0x68(%rsp),%r14
  40c5dd:	4c 8b 7c 24 70       	mov    0x70(%rsp),%r15
  40c5e2:	48 83 c4 78          	add    $0x78,%rsp
  40c5e6:	c3                   	retq   
  40c5e7:	66 0f 1f 84 00 00 00 	nopw   0x0(%rax,%rax,1)
  40c5ee:	00 00 
  40c5f0:	44 89 6c 24 1c       	mov    %r13d,0x1c(%rsp)
  40c5f5:	eb 8d                	jmp    40c584 <MPI_Recv+0x1f4>
  40c5f7:	66 0f 1f 84 00 00 00 	nopw   0x0(%rax,%rax,1)
  40c5fe:	00 00 
  40c600:	43 8d 44 2d 00       	lea    0x0(%r13,%r13,1),%eax
  40c605:	89 44 24 1c          	mov    %eax,0x1c(%rsp)
  40c609:	e9 76 ff ff ff       	jmpq   40c584 <MPI_Recv+0x1f4>
  40c60e:	66 90                	xchg   %ax,%ax
  40c610:	42 8d 04 ed 00 00 00 	lea    0x0(,%r13,8),%eax
  40c617:	00 
  40c618:	89 44 24 1c          	mov    %eax,0x1c(%rsp)
  40c61c:	e9 63 ff ff ff       	jmpq   40c584 <MPI_Recv+0x1f4>
  40c621:	0f 1f 80 00 00 00 00 	nopl   0x0(%rax)
  40c628:	44 89 e8             	mov    %r13d,%eax
  40c62b:	c1 e0 04             	shl    $0x4,%eax
  40c62e:	89 44 24 1c          	mov    %eax,0x1c(%rsp)
  40c632:	e9 4d ff ff ff       	jmpq   40c584 <MPI_Recv+0x1f4>
  40c637:	90                   	nop
  40c638:	90                   	nop
  40c639:	90                   	nop
  40c63a:	90                   	nop
  40c63b:	90                   	nop
  40c63c:	90                   	nop
  40c63d:	90                   	nop
  40c63e:	90                   	nop
  40c63f:	90                   	nop

000000000040c640 <__libc_csu_fini>:
  40c640:	f3 c3                	repz retq 
  40c642:	66 66 66 66 66 2e 0f 	data32 data32 data32 data32 nopw %cs:0x0(%rax,%rax,1)
  40c649:	1f 84 00 00 00 00 00 

000000000040c650 <__libc_csu_init>:
  40c650:	48 89 6c 24 d8       	mov    %rbp,-0x28(%rsp)
  40c655:	4c 89 64 24 e0       	mov    %r12,-0x20(%rsp)
  40c65a:	48 8d 2d 9f 19 20 00 	lea    0x20199f(%rip),%rbp        # 60e000 <__CTOR_LIST__>
  40c661:	4c 8d 25 98 19 20 00 	lea    0x201998(%rip),%r12        # 60e000 <__CTOR_LIST__>
  40c668:	4c 89 6c 24 e8       	mov    %r13,-0x18(%rsp)
  40c66d:	4c 89 74 24 f0       	mov    %r14,-0x10(%rsp)
  40c672:	4c 89 7c 24 f8       	mov    %r15,-0x8(%rsp)
  40c677:	48 89 5c 24 d0       	mov    %rbx,-0x30(%rsp)
  40c67c:	48 83 ec 38          	sub    $0x38,%rsp
  40c680:	4c 29 e5             	sub    %r12,%rbp
  40c683:	41 89 fd             	mov    %edi,%r13d
  40c686:	49 89 f6             	mov    %rsi,%r14
  40c689:	48 c1 fd 03          	sar    $0x3,%rbp
  40c68d:	49 89 d7             	mov    %rdx,%r15
  40c690:	e8 93 65 ff ff       	callq  402c28 <_init>
  40c695:	48 85 ed             	test   %rbp,%rbp
  40c698:	74 1c                	je     40c6b6 <__libc_csu_init+0x66>
  40c69a:	31 db                	xor    %ebx,%ebx
  40c69c:	0f 1f 40 00          	nopl   0x0(%rax)
  40c6a0:	4c 89 fa             	mov    %r15,%rdx
  40c6a3:	4c 89 f6             	mov    %r14,%rsi
  40c6a6:	44 89 ef             	mov    %r13d,%edi
  40c6a9:	41 ff 14 dc          	callq  *(%r12,%rbx,8)
  40c6ad:	48 83 c3 01          	add    $0x1,%rbx
  40c6b1:	48 39 eb             	cmp    %rbp,%rbx
  40c6b4:	72 ea                	jb     40c6a0 <__libc_csu_init+0x50>
  40c6b6:	48 8b 5c 24 08       	mov    0x8(%rsp),%rbx
  40c6bb:	48 8b 6c 24 10       	mov    0x10(%rsp),%rbp
  40c6c0:	4c 8b 64 24 18       	mov    0x18(%rsp),%r12
  40c6c5:	4c 8b 6c 24 20       	mov    0x20(%rsp),%r13
  40c6ca:	4c 8b 74 24 28       	mov    0x28(%rsp),%r14
  40c6cf:	4c 8b 7c 24 30       	mov    0x30(%rsp),%r15
  40c6d4:	48 83 c4 38          	add    $0x38,%rsp
  40c6d8:	c3                   	retq   
  40c6d9:	90                   	nop
  40c6da:	90                   	nop
  40c6db:	90                   	nop
  40c6dc:	90                   	nop
  40c6dd:	90                   	nop
  40c6de:	90                   	nop
  40c6df:	90                   	nop

000000000040c6e0 <__do_global_ctors_aux>:
  40c6e0:	55                   	push   %rbp
  40c6e1:	48 89 e5             	mov    %rsp,%rbp
  40c6e4:	53                   	push   %rbx
  40c6e5:	48 83 ec 08          	sub    $0x8,%rsp
  40c6e9:	48 8b 05 10 19 20 00 	mov    0x201910(%rip),%rax        # 60e000 <__CTOR_LIST__>
  40c6f0:	48 83 f8 ff          	cmp    $0xffffffffffffffff,%rax
  40c6f4:	74 19                	je     40c70f <__do_global_ctors_aux+0x2f>
  40c6f6:	bb 00 e0 60 00       	mov    $0x60e000,%ebx
  40c6fb:	0f 1f 44 00 00       	nopl   0x0(%rax,%rax,1)
  40c700:	48 83 eb 08          	sub    $0x8,%rbx
  40c704:	ff d0                	callq  *%rax
  40c706:	48 8b 03             	mov    (%rbx),%rax
  40c709:	48 83 f8 ff          	cmp    $0xffffffffffffffff,%rax
  40c70d:	75 f1                	jne    40c700 <__do_global_ctors_aux+0x20>
  40c70f:	48 83 c4 08          	add    $0x8,%rsp
  40c713:	5b                   	pop    %rbx
  40c714:	c9                   	leaveq 
  40c715:	c3                   	retq   
  40c716:	90                   	nop
  40c717:	90                   	nop

Disassembly of section .fini:

000000000040c718 <_fini>:
  40c718:	48 83 ec 08          	sub    $0x8,%rsp
  40c71c:	e8 af 68 ff ff       	callq  402fd0 <__do_global_dtors_aux>
  40c721:	48 83 c4 08          	add    $0x8,%rsp
  40c725:	c3                   	retq   
