
is.W.16:     file format elf64-x86-64


Disassembly of section .init:

0000000000402378 <_init>:
  402378:	48 83 ec 08          	sub    $0x8,%rsp
  40237c:	e8 0b 02 00 00       	callq  40258c <call_gmon_start>
  402381:	e8 9a 02 00 00       	callq  402620 <frame_dummy>
  402386:	e8 95 48 00 00       	callq  406c20 <__do_global_ctors_aux>
  40238b:	48 83 c4 08          	add    $0x8,%rsp
  40238f:	c3                   	retq   

Disassembly of section .plt:

0000000000402390 <printf@plt-0x10>:
  402390:	ff 35 92 57 20 00    	pushq  0x205792(%rip)        # 607b28 <_GLOBAL_OFFSET_TABLE_+0x8>
  402396:	ff 25 94 57 20 00    	jmpq   *0x205794(%rip)        # 607b30 <_GLOBAL_OFFSET_TABLE_+0x10>
  40239c:	0f 1f 40 00          	nopl   0x0(%rax)

00000000004023a0 <printf@plt>:
  4023a0:	ff 25 92 57 20 00    	jmpq   *0x205792(%rip)        # 607b38 <_GLOBAL_OFFSET_TABLE_+0x18>
  4023a6:	68 00 00 00 00       	pushq  $0x0
  4023ab:	e9 e0 ff ff ff       	jmpq   402390 <_init+0x18>

00000000004023b0 <PMPI_Barrier@plt>:
  4023b0:	ff 25 8a 57 20 00    	jmpq   *0x20578a(%rip)        # 607b40 <_GLOBAL_OFFSET_TABLE_+0x20>
  4023b6:	68 01 00 00 00       	pushq  $0x1
  4023bb:	e9 d0 ff ff ff       	jmpq   402390 <_init+0x18>

00000000004023c0 <PMPI_Alltoallv@plt>:
  4023c0:	ff 25 82 57 20 00    	jmpq   *0x205782(%rip)        # 607b48 <_GLOBAL_OFFSET_TABLE_+0x28>
  4023c6:	68 02 00 00 00       	pushq  $0x2
  4023cb:	e9 c0 ff ff ff       	jmpq   402390 <_init+0x18>

00000000004023d0 <puts@plt>:
  4023d0:	ff 25 7a 57 20 00    	jmpq   *0x20577a(%rip)        # 607b50 <_GLOBAL_OFFSET_TABLE_+0x30>
  4023d6:	68 03 00 00 00       	pushq  $0x3
  4023db:	e9 b0 ff ff ff       	jmpq   402390 <_init+0x18>

00000000004023e0 <PMPI_Waitall@plt>:
  4023e0:	ff 25 72 57 20 00    	jmpq   *0x205772(%rip)        # 607b58 <_GLOBAL_OFFSET_TABLE_+0x38>
  4023e6:	68 04 00 00 00       	pushq  $0x4
  4023eb:	e9 a0 ff ff ff       	jmpq   402390 <_init+0x18>

00000000004023f0 <exit@plt>:
  4023f0:	ff 25 6a 57 20 00    	jmpq   *0x20576a(%rip)        # 607b60 <_GLOBAL_OFFSET_TABLE_+0x40>
  4023f6:	68 05 00 00 00       	pushq  $0x5
  4023fb:	e9 90 ff ff ff       	jmpq   402390 <_init+0x18>

0000000000402400 <PMPI_Allgather@plt>:
  402400:	ff 25 62 57 20 00    	jmpq   *0x205762(%rip)        # 607b68 <_GLOBAL_OFFSET_TABLE_+0x48>
  402406:	68 06 00 00 00       	pushq  $0x6
  40240b:	e9 80 ff ff ff       	jmpq   402390 <_init+0x18>

0000000000402410 <putchar@plt>:
  402410:	ff 25 5a 57 20 00    	jmpq   *0x20575a(%rip)        # 607b70 <_GLOBAL_OFFSET_TABLE_+0x50>
  402416:	68 07 00 00 00       	pushq  $0x7
  40241b:	e9 70 ff ff ff       	jmpq   402390 <_init+0x18>

0000000000402420 <fopen@plt>:
  402420:	ff 25 52 57 20 00    	jmpq   *0x205752(%rip)        # 607b78 <_GLOBAL_OFFSET_TABLE_+0x58>
  402426:	68 08 00 00 00       	pushq  $0x8
  40242b:	e9 60 ff ff ff       	jmpq   402390 <_init+0x18>

0000000000402430 <__libc_start_main@plt>:
  402430:	ff 25 4a 57 20 00    	jmpq   *0x20574a(%rip)        # 607b80 <_GLOBAL_OFFSET_TABLE_+0x60>
  402436:	68 09 00 00 00       	pushq  $0x9
  40243b:	e9 50 ff ff ff       	jmpq   402390 <_init+0x18>

0000000000402440 <PMPI_Recv@plt>:
  402440:	ff 25 42 57 20 00    	jmpq   *0x205742(%rip)        # 607b88 <_GLOBAL_OFFSET_TABLE_+0x68>
  402446:	68 0a 00 00 00       	pushq  $0xa
  40244b:	e9 40 ff ff ff       	jmpq   402390 <_init+0x18>

0000000000402450 <PMPI_Init@plt>:
  402450:	ff 25 3a 57 20 00    	jmpq   *0x20573a(%rip)        # 607b90 <_GLOBAL_OFFSET_TABLE_+0x70>
  402456:	68 0b 00 00 00       	pushq  $0xb
  40245b:	e9 30 ff ff ff       	jmpq   402390 <_init+0x18>

0000000000402460 <MPI_Comm_size@plt>:
  402460:	ff 25 32 57 20 00    	jmpq   *0x205732(%rip)        # 607b98 <_GLOBAL_OFFSET_TABLE_+0x78>
  402466:	68 0c 00 00 00       	pushq  $0xc
  40246b:	e9 20 ff ff ff       	jmpq   402390 <_init+0x18>

0000000000402470 <PMPI_Reduce@plt>:
  402470:	ff 25 2a 57 20 00    	jmpq   *0x20572a(%rip)        # 607ba0 <_GLOBAL_OFFSET_TABLE_+0x80>
  402476:	68 0d 00 00 00       	pushq  $0xd
  40247b:	e9 10 ff ff ff       	jmpq   402390 <_init+0x18>

0000000000402480 <PMPI_Allreduce@plt>:
  402480:	ff 25 22 57 20 00    	jmpq   *0x205722(%rip)        # 607ba8 <_GLOBAL_OFFSET_TABLE_+0x88>
  402486:	68 0e 00 00 00       	pushq  $0xe
  40248b:	e9 00 ff ff ff       	jmpq   402390 <_init+0x18>

0000000000402490 <PMPI_Alltoall@plt>:
  402490:	ff 25 1a 57 20 00    	jmpq   *0x20571a(%rip)        # 607bb0 <_GLOBAL_OFFSET_TABLE_+0x90>
  402496:	68 0f 00 00 00       	pushq  $0xf
  40249b:	e9 f0 fe ff ff       	jmpq   402390 <_init+0x18>

00000000004024a0 <MPI_Comm_rank@plt>:
  4024a0:	ff 25 12 57 20 00    	jmpq   *0x205712(%rip)        # 607bb8 <_GLOBAL_OFFSET_TABLE_+0x98>
  4024a6:	68 10 00 00 00       	pushq  $0x10
  4024ab:	e9 e0 fe ff ff       	jmpq   402390 <_init+0x18>

00000000004024b0 <PMPI_Irecv@plt>:
  4024b0:	ff 25 0a 57 20 00    	jmpq   *0x20570a(%rip)        # 607bc0 <_GLOBAL_OFFSET_TABLE_+0xa0>
  4024b6:	68 11 00 00 00       	pushq  $0x11
  4024bb:	e9 d0 fe ff ff       	jmpq   402390 <_init+0x18>

00000000004024c0 <PMPI_Isend@plt>:
  4024c0:	ff 25 02 57 20 00    	jmpq   *0x205702(%rip)        # 607bc8 <_GLOBAL_OFFSET_TABLE_+0xa8>
  4024c6:	68 12 00 00 00       	pushq  $0x12
  4024cb:	e9 c0 fe ff ff       	jmpq   402390 <_init+0x18>

00000000004024d0 <PMPI_Finalize@plt>:
  4024d0:	ff 25 fa 56 20 00    	jmpq   *0x2056fa(%rip)        # 607bd0 <_GLOBAL_OFFSET_TABLE_+0xb0>
  4024d6:	68 13 00 00 00       	pushq  $0x13
  4024db:	e9 b0 fe ff ff       	jmpq   402390 <_init+0x18>

00000000004024e0 <MPI_Finalize@plt>:
  4024e0:	ff 25 f2 56 20 00    	jmpq   *0x2056f2(%rip)        # 607bd8 <_GLOBAL_OFFSET_TABLE_+0xb8>
  4024e6:	68 14 00 00 00       	pushq  $0x14
  4024eb:	e9 a0 fe ff ff       	jmpq   402390 <_init+0x18>

00000000004024f0 <fclose@plt>:
  4024f0:	ff 25 ea 56 20 00    	jmpq   *0x2056ea(%rip)        # 607be0 <_GLOBAL_OFFSET_TABLE_+0xc0>
  4024f6:	68 15 00 00 00       	pushq  $0x15
  4024fb:	e9 90 fe ff ff       	jmpq   402390 <_init+0x18>

0000000000402500 <MPI_Wtime@plt>:
  402500:	ff 25 e2 56 20 00    	jmpq   *0x2056e2(%rip)        # 607be8 <_GLOBAL_OFFSET_TABLE_+0xc8>
  402506:	68 16 00 00 00       	pushq  $0x16
  40250b:	e9 80 fe ff ff       	jmpq   402390 <_init+0x18>

0000000000402510 <fwrite@plt>:
  402510:	ff 25 da 56 20 00    	jmpq   *0x2056da(%rip)        # 607bf0 <_GLOBAL_OFFSET_TABLE_+0xd0>
  402516:	68 17 00 00 00       	pushq  $0x17
  40251b:	e9 70 fe ff ff       	jmpq   402390 <_init+0x18>

0000000000402520 <PMPI_Wait@plt>:
  402520:	ff 25 d2 56 20 00    	jmpq   *0x2056d2(%rip)        # 607bf8 <_GLOBAL_OFFSET_TABLE_+0xd8>
  402526:	68 18 00 00 00       	pushq  $0x18
  40252b:	e9 60 fe ff ff       	jmpq   402390 <_init+0x18>

0000000000402530 <fprintf@plt>:
  402530:	ff 25 ca 56 20 00    	jmpq   *0x2056ca(%rip)        # 607c00 <_GLOBAL_OFFSET_TABLE_+0xe0>
  402536:	68 19 00 00 00       	pushq  $0x19
  40253b:	e9 50 fe ff ff       	jmpq   402390 <_init+0x18>

0000000000402540 <PMPI_Send@plt>:
  402540:	ff 25 c2 56 20 00    	jmpq   *0x2056c2(%rip)        # 607c08 <_GLOBAL_OFFSET_TABLE_+0xe8>
  402546:	68 1a 00 00 00       	pushq  $0x1a
  40254b:	e9 40 fe ff ff       	jmpq   402390 <_init+0x18>

0000000000402550 <PMPI_Bcast@plt>:
  402550:	ff 25 ba 56 20 00    	jmpq   *0x2056ba(%rip)        # 607c10 <_GLOBAL_OFFSET_TABLE_+0xf0>
  402556:	68 1b 00 00 00       	pushq  $0x1b
  40255b:	e9 30 fe ff ff       	jmpq   402390 <_init+0x18>

Disassembly of section .text:

0000000000402560 <_start>:
  402560:	31 ed                	xor    %ebp,%ebp
  402562:	49 89 d1             	mov    %rdx,%r9
  402565:	5e                   	pop    %rsi
  402566:	48 89 e2             	mov    %rsp,%rdx
  402569:	48 83 e4 f0          	and    $0xfffffffffffffff0,%rsp
  40256d:	50                   	push   %rax
  40256e:	54                   	push   %rsp
  40256f:	49 c7 c0 80 6b 40 00 	mov    $0x406b80,%r8
  402576:	48 c7 c1 90 6b 40 00 	mov    $0x406b90,%rcx
  40257d:	48 c7 c7 f0 38 40 00 	mov    $0x4038f0,%rdi
  402584:	e8 a7 fe ff ff       	callq  402430 <__libc_start_main@plt>
  402589:	f4                   	hlt    
  40258a:	90                   	nop
  40258b:	90                   	nop

000000000040258c <call_gmon_start>:
  40258c:	48 83 ec 08          	sub    $0x8,%rsp
  402590:	48 8b 05 81 55 20 00 	mov    0x205581(%rip),%rax        # 607b18 <_DYNAMIC+0x200>
  402597:	48 85 c0             	test   %rax,%rax
  40259a:	74 02                	je     40259e <call_gmon_start+0x12>
  40259c:	ff d0                	callq  *%rax
  40259e:	48 83 c4 08          	add    $0x8,%rsp
  4025a2:	c3                   	retq   
  4025a3:	90                   	nop
  4025a4:	90                   	nop
  4025a5:	90                   	nop
  4025a6:	90                   	nop
  4025a7:	90                   	nop
  4025a8:	90                   	nop
  4025a9:	90                   	nop
  4025aa:	90                   	nop
  4025ab:	90                   	nop
  4025ac:	90                   	nop
  4025ad:	90                   	nop
  4025ae:	90                   	nop
  4025af:	90                   	nop

00000000004025b0 <__do_global_dtors_aux>:
  4025b0:	55                   	push   %rbp
  4025b1:	48 89 e5             	mov    %rsp,%rbp
  4025b4:	53                   	push   %rbx
  4025b5:	48 83 ec 08          	sub    $0x8,%rsp
  4025b9:	80 3d a0 ab 20 00 00 	cmpb   $0x0,0x20aba0(%rip)        # 60d160 <completed.6312>
  4025c0:	75 4b                	jne    40260d <__do_global_dtors_aux+0x5d>
  4025c2:	bb 08 79 60 00       	mov    $0x607908,%ebx
  4025c7:	48 8b 05 9a ab 20 00 	mov    0x20ab9a(%rip),%rax        # 60d168 <dtor_idx.6314>
  4025ce:	48 81 eb 00 79 60 00 	sub    $0x607900,%rbx
  4025d5:	48 c1 fb 03          	sar    $0x3,%rbx
  4025d9:	48 83 eb 01          	sub    $0x1,%rbx
  4025dd:	48 39 d8             	cmp    %rbx,%rax
  4025e0:	73 24                	jae    402606 <__do_global_dtors_aux+0x56>
  4025e2:	66 0f 1f 44 00 00    	nopw   0x0(%rax,%rax,1)
  4025e8:	48 83 c0 01          	add    $0x1,%rax
  4025ec:	48 89 05 75 ab 20 00 	mov    %rax,0x20ab75(%rip)        # 60d168 <dtor_idx.6314>
  4025f3:	ff 14 c5 00 79 60 00 	callq  *0x607900(,%rax,8)
  4025fa:	48 8b 05 67 ab 20 00 	mov    0x20ab67(%rip),%rax        # 60d168 <dtor_idx.6314>
  402601:	48 39 d8             	cmp    %rbx,%rax
  402604:	72 e2                	jb     4025e8 <__do_global_dtors_aux+0x38>
  402606:	c6 05 53 ab 20 00 01 	movb   $0x1,0x20ab53(%rip)        # 60d160 <completed.6312>
  40260d:	48 83 c4 08          	add    $0x8,%rsp
  402611:	5b                   	pop    %rbx
  402612:	c9                   	leaveq 
  402613:	c3                   	retq   
  402614:	66 66 66 2e 0f 1f 84 	data32 data32 nopw %cs:0x0(%rax,%rax,1)
  40261b:	00 00 00 00 00 

0000000000402620 <frame_dummy>:
  402620:	55                   	push   %rbp
  402621:	48 83 3d e7 52 20 00 	cmpq   $0x0,0x2052e7(%rip)        # 607910 <__JCR_END__>
  402628:	00 
  402629:	48 89 e5             	mov    %rsp,%rbp
  40262c:	74 12                	je     402640 <frame_dummy+0x20>
  40262e:	b8 00 00 00 00       	mov    $0x0,%eax
  402633:	48 85 c0             	test   %rax,%rax
  402636:	74 08                	je     402640 <frame_dummy+0x20>
  402638:	bf 10 79 60 00       	mov    $0x607910,%edi
  40263d:	c9                   	leaveq 
  40263e:	ff e0                	jmpq   *%rax
  402640:	c9                   	leaveq 
  402641:	c3                   	retq   
  402642:	90                   	nop
  402643:	90                   	nop
  402644:	90                   	nop
  402645:	90                   	nop
  402646:	90                   	nop
  402647:	90                   	nop
  402648:	90                   	nop
  402649:	90                   	nop
  40264a:	90                   	nop
  40264b:	90                   	nop
  40264c:	90                   	nop
  40264d:	90                   	nop
  40264e:	90                   	nop
  40264f:	90                   	nop

0000000000402650 <randlc>:
  402650:	8b 05 3a ab 20 00    	mov    0x20ab3a(%rip),%eax        # 60d190 <KS.5926>
  402656:	85 c0                	test   %eax,%eax
  402658:	0f 85 22 01 00 00    	jne    402780 <randlc+0x130>
  40265e:	48 ba 00 00 00 00 00 	mov    $0x3ff0000000000000,%rdx
  402665:	00 f0 3f 
  402668:	f2 0f 10 1d 58 48 00 	movsd  0x4858(%rip),%xmm3        # 406ec8 <_IO_stdin_used+0x260>
  40266f:	00 
  402670:	48 89 54 24 f8       	mov    %rdx,-0x8(%rsp)
  402675:	31 c0                	xor    %eax,%eax
  402677:	f2 0f 10 54 24 f8    	movsd  -0x8(%rsp),%xmm2
  40267d:	66 0f 28 e2          	movapd %xmm2,%xmm4
  402681:	0f 1f 80 00 00 00 00 	nopl   0x0(%rax)
  402688:	83 c0 01             	add    $0x1,%eax
  40268b:	f2 0f 59 e3          	mulsd  %xmm3,%xmm4
  40268f:	f2 0f 58 d2          	addsd  %xmm2,%xmm2
  402693:	83 f8 17             	cmp    $0x17,%eax
  402696:	75 f0                	jne    402688 <randlc+0x38>
  402698:	48 89 54 24 f8       	mov    %rdx,-0x8(%rsp)
  40269d:	f2 0f 11 25 e3 aa 20 	movsd  %xmm4,0x20aae3(%rip)        # 60d188 <R23.5927>
  4026a4:	00 
  4026a5:	30 c0                	xor    %al,%al
  4026a7:	f2 0f 10 4c 24 f8    	movsd  -0x8(%rsp),%xmm1
  4026ad:	f2 0f 11 15 c3 aa 20 	movsd  %xmm2,0x20aac3(%rip)        # 60d178 <T23.5929>
  4026b4:	00 
  4026b5:	66 0f 28 c1          	movapd %xmm1,%xmm0
  4026b9:	0f 1f 80 00 00 00 00 	nopl   0x0(%rax)
  4026c0:	83 c0 01             	add    $0x1,%eax
  4026c3:	f2 0f 59 c3          	mulsd  %xmm3,%xmm0
  4026c7:	f2 0f 58 c9          	addsd  %xmm1,%xmm1
  4026cb:	83 f8 2e             	cmp    $0x2e,%eax
  4026ce:	75 f0                	jne    4026c0 <randlc+0x70>
  4026d0:	f2 0f 11 05 a8 aa 20 	movsd  %xmm0,0x20aaa8(%rip)        # 60d180 <R46.5928>
  4026d7:	00 
  4026d8:	c7 05 ae aa 20 00 01 	movl   $0x1,0x20aaae(%rip)        # 60d190 <KS.5926>
  4026df:	00 00 00 
  4026e2:	f2 0f 11 0d 86 aa 20 	movsd  %xmm1,0x20aa86(%rip)        # 60d170 <T46.5930>
  4026e9:	00 
  4026ea:	f2 0f 10 36          	movsd  (%rsi),%xmm6
  4026ee:	66 0f 28 de          	movapd %xmm6,%xmm3
  4026f2:	f2 0f 59 dc          	mulsd  %xmm4,%xmm3
  4026f6:	f2 0f 2c c3          	cvttsd2si %xmm3,%eax
  4026fa:	f2 0f 2a d8          	cvtsi2sd %eax,%xmm3
  4026fe:	66 0f 28 eb          	movapd %xmm3,%xmm5
  402702:	f2 0f 59 ea          	mulsd  %xmm2,%xmm5
  402706:	f2 0f 5c f5          	subsd  %xmm5,%xmm6
  40270a:	f2 0f 10 2f          	movsd  (%rdi),%xmm5
  40270e:	66 0f 28 fd          	movapd %xmm5,%xmm7
  402712:	f2 0f 59 fc          	mulsd  %xmm4,%xmm7
  402716:	f2 0f 2c c7          	cvttsd2si %xmm7,%eax
  40271a:	f2 0f 2a f8          	cvtsi2sd %eax,%xmm7
  40271e:	66 44 0f 28 c7       	movapd %xmm7,%xmm8
  402723:	f2 0f 59 fe          	mulsd  %xmm6,%xmm7
  402727:	f2 44 0f 59 c2       	mulsd  %xmm2,%xmm8
  40272c:	f2 41 0f 5c e8       	subsd  %xmm8,%xmm5
  402731:	f2 0f 59 dd          	mulsd  %xmm5,%xmm3
  402735:	f2 0f 59 ee          	mulsd  %xmm6,%xmm5
  402739:	f2 0f 58 df          	addsd  %xmm7,%xmm3
  40273d:	f2 0f 59 e3          	mulsd  %xmm3,%xmm4
  402741:	f2 0f 2c c4          	cvttsd2si %xmm4,%eax
  402745:	f2 0f 2a e0          	cvtsi2sd %eax,%xmm4
  402749:	f2 0f 59 e2          	mulsd  %xmm2,%xmm4
  40274d:	f2 0f 5c dc          	subsd  %xmm4,%xmm3
  402751:	f2 0f 59 da          	mulsd  %xmm2,%xmm3
  402755:	f2 0f 58 dd          	addsd  %xmm5,%xmm3
  402759:	66 0f 28 d3          	movapd %xmm3,%xmm2
  40275d:	f2 0f 59 d0          	mulsd  %xmm0,%xmm2
  402761:	f2 0f 2c c2          	cvttsd2si %xmm2,%eax
  402765:	f2 0f 2a d0          	cvtsi2sd %eax,%xmm2
  402769:	f2 0f 59 d1          	mulsd  %xmm1,%xmm2
  40276d:	f2 0f 5c da          	subsd  %xmm2,%xmm3
  402771:	f2 0f 11 1f          	movsd  %xmm3,(%rdi)
  402775:	f2 0f 59 c3          	mulsd  %xmm3,%xmm0
  402779:	c3                   	retq   
  40277a:	66 0f 1f 44 00 00    	nopw   0x0(%rax,%rax,1)
  402780:	f2 0f 10 25 00 aa 20 	movsd  0x20aa00(%rip),%xmm4        # 60d188 <R23.5927>
  402787:	00 
  402788:	f2 0f 10 15 e8 a9 20 	movsd  0x20a9e8(%rip),%xmm2        # 60d178 <T23.5929>
  40278f:	00 
  402790:	f2 0f 10 05 e8 a9 20 	movsd  0x20a9e8(%rip),%xmm0        # 60d180 <R46.5928>
  402797:	00 
  402798:	f2 0f 10 0d d0 a9 20 	movsd  0x20a9d0(%rip),%xmm1        # 60d170 <T46.5930>
  40279f:	00 
  4027a0:	e9 45 ff ff ff       	jmpq   4026ea <randlc+0x9a>
  4027a5:	66 66 2e 0f 1f 84 00 	data32 nopw %cs:0x0(%rax,%rax,1)
  4027ac:	00 00 00 00 

00000000004027b0 <rank>:
  4027b0:	41 57                	push   %r15
  4027b2:	41 56                	push   %r14
  4027b4:	41 55                	push   %r13
  4027b6:	41 54                	push   %r12
  4027b8:	55                   	push   %rbp
  4027b9:	31 ed                	xor    %ebp,%ebp
  4027bb:	53                   	push   %rbx
  4027bc:	89 fb                	mov    %edi,%ebx
  4027be:	48 83 ec 58          	sub    $0x58,%rsp
  4027c2:	83 3d b7 fa 26 00 00 	cmpl   $0x0,0x26fab7(%rip)        # 672280 <timeron>
  4027c9:	0f 85 bd 06 00 00    	jne    402e8c <rank+0x6dc>
  4027cf:	8b 3d 93 fa 20 00    	mov    0x20fa93(%rip),%edi        # 612268 <my_rank>
  4027d5:	85 ff                	test   %edi,%edi
  4027d7:	75 1e                	jne    4027f7 <rank+0x47>
  4027d9:	48 63 c3             	movslq %ebx,%rax
  4027dc:	8d 53 0a             	lea    0xa(%rbx),%edx
  4027df:	89 1c 85 e0 42 6d 00 	mov    %ebx,0x6d42e0(,%rax,4)
  4027e6:	b8 00 00 01 00       	mov    $0x10000,%eax
  4027eb:	48 63 d2             	movslq %edx,%rdx
  4027ee:	29 d8                	sub    %ebx,%eax
  4027f0:	89 04 95 e0 42 6d 00 	mov    %eax,0x6d42e0(,%rdx,4)
  4027f7:	66 0f ef c0          	pxor   %xmm0,%xmm0
  4027fb:	31 c0                	xor    %eax,%eax
  4027fd:	0f 1f 00             	nopl   (%rax)
  402800:	66 0f 7f 80 c0 32 6d 	movdqa %xmm0,0x6d32c0(%rax)
  402807:	00 
  402808:	66 0f 7f 80 e0 52 73 	movdqa %xmm0,0x7352e0(%rax)
  40280f:	00 
  402810:	66 0f 7f 80 20 02 61 	movdqa %xmm0,0x610220(%rax)
  402817:	00 
  402818:	66 0f 7f 80 c0 d1 60 	movdqa %xmm0,0x60d1c0(%rax)
  40281f:	00 
  402820:	48 83 c0 10          	add    $0x10,%rax
  402824:	48 3d 10 10 00 00    	cmp    $0x1010,%rax
  40282a:	75 d4                	jne    402800 <rank+0x50>
  40282c:	c7 05 9a 1a 2d 00 00 	movl   $0x0,0x2d1a9a(%rip)        # 6d42d0 <bucket_size+0x1010>
  402833:	00 00 00 
  402836:	c7 05 b0 3a 33 00 00 	movl   $0x0,0x333ab0(%rip)        # 7362f0 <bucket_size_totals+0x1010>
  40283d:	00 00 00 
  402840:	48 63 ff             	movslq %edi,%rdi
  402843:	c7 05 e3 e9 20 00 00 	movl   $0x0,0x20e9e3(%rip)        # 611230 <process_bucket_distrib_ptr1+0x1010>
  40284a:	00 00 00 
  40284d:	c7 05 79 b9 20 00 00 	movl   $0x0,0x20b979(%rip)        # 60e1d0 <process_bucket_distrib_ptr2+0x1010>
  402854:	00 00 00 
  402857:	31 c9                	xor    %ecx,%ecx
  402859:	be 00 00 01 00       	mov    $0x10000,%esi
  40285e:	48 8b 94 09 e0 f1 60 	mov    0x60f1e0(%rcx,%rcx,1),%rdx
  402865:	00 
  402866:	48 89 d0             	mov    %rdx,%rax
  402869:	48 c1 fa 3f          	sar    $0x3f,%rdx
  40286d:	48 f7 fe             	idiv   %rsi
  402870:	48 39 f8             	cmp    %rdi,%rax
  402873:	0f 84 d3 05 00 00    	je     402e4c <rank+0x69c>
  402879:	48 83 c1 04          	add    $0x4,%rcx
  40287d:	48 83 f9 14          	cmp    $0x14,%rcx
  402881:	75 db                	jne    40285e <rank+0xae>
  402883:	31 c0                	xor    %eax,%eax
  402885:	0f 1f 00             	nopl   (%rax)
  402888:	8b 90 e0 42 6d 00    	mov    0x6d42e0(%rax),%edx
  40288e:	48 83 c0 04          	add    $0x4,%rax
  402892:	c1 fa 06             	sar    $0x6,%edx
  402895:	48 63 d2             	movslq %edx,%rdx
  402898:	83 04 95 c0 32 6d 00 	addl   $0x1,0x6d32c0(,%rdx,4)
  40289f:	01 
  4028a0:	48 3d 00 00 04 00    	cmp    $0x40000,%rax
  4028a6:	75 e0                	jne    402888 <rank+0xd8>
  4028a8:	c7 05 2e b9 20 00 00 	movl   $0x0,0x20b92e(%rip)        # 60e1e0 <bucket_ptrs>
  4028af:	00 00 00 
  4028b2:	31 c0                	xor    %eax,%eax
  4028b4:	31 d2                	xor    %edx,%edx
  4028b6:	66 2e 0f 1f 84 00 00 	nopw   %cs:0x0(%rax,%rax,1)
  4028bd:	00 00 00 
  4028c0:	03 90 c0 32 6d 00    	add    0x6d32c0(%rax),%edx
  4028c6:	89 90 e4 e1 60 00    	mov    %edx,0x60e1e4(%rax)
  4028cc:	48 83 c0 04          	add    $0x4,%rax
  4028d0:	48 3d fc 0f 00 00    	cmp    $0xffc,%rax
  4028d6:	75 e8                	jne    4028c0 <rank+0x110>
  4028d8:	66 31 c0             	xor    %ax,%ax
  4028db:	0f 1f 44 00 00       	nopl   0x0(%rax,%rax,1)
  4028e0:	8b b0 e0 42 6d 00    	mov    0x6d42e0(%rax),%esi
  4028e6:	48 83 c0 04          	add    $0x4,%rax
  4028ea:	89 f2                	mov    %esi,%edx
  4028ec:	c1 fa 06             	sar    $0x6,%edx
  4028ef:	48 63 d2             	movslq %edx,%rdx
  4028f2:	8b 0c 95 e0 e1 60 00 	mov    0x60e1e0(,%rdx,4),%ecx
  4028f9:	48 63 f9             	movslq %ecx,%rdi
  4028fc:	83 c1 01             	add    $0x1,%ecx
  4028ff:	48 3d 00 00 04 00    	cmp    $0x40000,%rax
  402905:	89 34 bd 80 22 61 00 	mov    %esi,0x612280(,%rdi,4)
  40290c:	89 0c 95 e0 e1 60 00 	mov    %ecx,0x60e1e0(,%rdx,4)
  402913:	75 cb                	jne    4028e0 <rank+0x130>
  402915:	85 ed                	test   %ebp,%ebp
  402917:	0f 85 b8 05 00 00    	jne    402ed5 <rank+0x725>
  40291d:	41 b9 40 b5 60 00    	mov    $0x60b540,%r9d
  402923:	41 b8 40 bb 60 00    	mov    $0x60bb40,%r8d
  402929:	b9 40 87 60 00       	mov    $0x608740,%ecx
  40292e:	ba 05 04 00 00       	mov    $0x405,%edx
  402933:	be e0 52 73 00       	mov    $0x7352e0,%esi
  402938:	bf c0 32 6d 00       	mov    $0x6d32c0,%edi
  40293d:	e8 fe 3f 00 00       	callq  406940 <MPI_Allreduce>
  402942:	83 3d 37 f9 26 00 00 	cmpl   $0x0,0x26f937(%rip)        # 672280 <timeron>
  402949:	0f 85 59 05 00 00    	jne    402ea8 <rank+0x6f8>
  40294f:	45 31 c9             	xor    %r9d,%r9d
  402952:	c7 05 c4 c8 20 00 00 	movl   $0x0,0x20c8c4(%rip)        # 60f220 <send_displ>
  402959:	00 00 00 
  40295c:	c7 05 ba d8 20 00 00 	movl   $0x0,0x20d8ba(%rip)        # 610220 <process_bucket_distrib_ptr1>
  402963:	00 00 00 
  402966:	31 c9                	xor    %ecx,%ecx
  402968:	31 ed                	xor    %ebp,%ebp
  40296a:	31 d2                	xor    %edx,%edx
  40296c:	31 ff                	xor    %edi,%edi
  40296e:	31 f6                	xor    %esi,%esi
  402970:	eb 15                	jmp    402987 <rank+0x1d7>
  402972:	83 c6 01             	add    $0x1,%esi
  402975:	48 83 c1 04          	add    $0x4,%rcx
  402979:	48 89 d0             	mov    %rdx,%rax
  40297c:	81 fe 00 04 00 00    	cmp    $0x400,%esi
  402982:	74 74                	je     4029f8 <rank+0x248>
  402984:	48 89 c2             	mov    %rax,%rdx
  402987:	48 63 81 e0 52 73 00 	movslq 0x7352e0(%rcx),%rax
  40298e:	03 a9 c0 32 6d 00    	add    0x6d32c0(%rcx),%ebp
  402994:	48 01 c7             	add    %rax,%rdi
  402997:	48 8d 42 01          	lea    0x1(%rdx),%rax
  40299b:	49 89 c0             	mov    %rax,%r8
  40299e:	49 c1 e0 10          	shl    $0x10,%r8
  4029a2:	4c 39 c7             	cmp    %r8,%rdi
  4029a5:	7c cb                	jl     402972 <rank+0x1c2>
  4029a7:	48 85 d2             	test   %rdx,%rdx
  4029aa:	89 2c 95 e0 42 73 00 	mov    %ebp,0x7342e0(,%rdx,4)
  4029b1:	74 2d                	je     4029e0 <rank+0x230>
  4029b3:	48 8d 6a ff          	lea    -0x1(%rdx),%rbp
  4029b7:	44 8b 04 ad e0 42 73 	mov    0x7342e0(,%rbp,4),%r8d
  4029be:	00 
  4029bf:	44 03 04 ad 20 f2 60 	add    0x60f220(,%rbp,4),%r8d
  4029c6:	00 
  4029c7:	8b 2c ad c0 d1 60 00 	mov    0x60d1c0(,%rbp,4),%ebp
  4029ce:	83 c5 01             	add    $0x1,%ebp
  4029d1:	44 89 04 95 20 f2 60 	mov    %r8d,0x60f220(,%rdx,4)
  4029d8:	00 
  4029d9:	89 2c 95 20 02 61 00 	mov    %ebp,0x610220(,%rdx,4)
  4029e0:	89 34 95 c0 d1 60 00 	mov    %esi,0x60d1c0(,%rdx,4)
  4029e7:	83 c6 01             	add    $0x1,%esi
  4029ea:	31 ed                	xor    %ebp,%ebp
  4029ec:	48 83 c1 04          	add    $0x4,%rcx
  4029f0:	81 fe 00 04 00 00    	cmp    $0x400,%esi
  4029f6:	75 8c                	jne    402984 <rank+0x1d4>
  4029f8:	48 63 35 09 c8 20 00 	movslq 0x20c809(%rip),%rsi        # 60f208 <comm_size>
  4029ff:	48 39 f0             	cmp    %rsi,%rax
  402a02:	7d 39                	jge    402a3d <rank+0x28d>
  402a04:	48 8d 14 85 00 00 00 	lea    0x0(,%rax,4),%rdx
  402a0b:	00 
  402a0c:	48 8d 8a e0 42 73 00 	lea    0x7342e0(%rdx),%rcx
  402a13:	48 81 c2 20 02 61 00 	add    $0x610220,%rdx
  402a1a:	66 0f 1f 44 00 00    	nopw   0x0(%rax,%rax,1)
  402a20:	48 83 c0 01          	add    $0x1,%rax
  402a24:	c7 01 00 00 00 00    	movl   $0x0,(%rcx)
  402a2a:	c7 02 01 00 00 00    	movl   $0x1,(%rdx)
  402a30:	48 83 c1 04          	add    $0x4,%rcx
  402a34:	48 83 c2 04          	add    $0x4,%rdx
  402a38:	48 39 f0             	cmp    %rsi,%rax
  402a3b:	7c e3                	jl     402a20 <rank+0x270>
  402a3d:	45 85 c9             	test   %r9d,%r9d
  402a40:	0f 85 ff 04 00 00    	jne    402f45 <rank+0x795>
  402a46:	41 b9 40 87 60 00    	mov    $0x608740,%r9d
  402a4c:	41 b8 01 00 00 00    	mov    $0x1,%r8d
  402a52:	b9 40 12 61 00       	mov    $0x611240,%ecx
  402a57:	4c 89 ca             	mov    %r9,%rdx
  402a5a:	be 01 00 00 00       	mov    $0x1,%esi
  402a5f:	bf e0 42 73 00       	mov    $0x7342e0,%edi
  402a64:	48 c7 04 24 40 b5 60 	movq   $0x60b540,(%rsp)
  402a6b:	00 
  402a6c:	e8 0f 2a 00 00       	callq  405480 <MPI_Alltoall>
  402a71:	8b 05 91 c7 20 00    	mov    0x20c791(%rip),%eax        # 60f208 <comm_size>
  402a77:	c7 05 1f f8 2c 00 00 	movl   $0x0,0x2cf81f(%rip)        # 6d22a0 <recv_displ>
  402a7e:	00 00 00 
  402a81:	83 f8 01             	cmp    $0x1,%eax
  402a84:	7e 27                	jle    402aad <rank+0x2fd>
  402a86:	83 e8 02             	sub    $0x2,%eax
  402a89:	31 d2                	xor    %edx,%edx
  402a8b:	48 8d 0c 85 04 00 00 	lea    0x4(,%rax,4),%rcx
  402a92:	00 
  402a93:	31 c0                	xor    %eax,%eax
  402a95:	0f 1f 00             	nopl   (%rax)
  402a98:	03 90 40 12 61 00    	add    0x611240(%rax),%edx
  402a9e:	89 90 a4 22 6d 00    	mov    %edx,0x6d22a4(%rax)
  402aa4:	48 83 c0 04          	add    $0x4,%rax
  402aa8:	48 39 c8             	cmp    %rcx,%rax
  402aab:	75 eb                	jne    402a98 <rank+0x2e8>
  402aad:	41 b9 40 12 61 00    	mov    $0x611240,%r9d
  402ab3:	41 b8 a0 22 67 00    	mov    $0x6722a0,%r8d
  402ab9:	b9 40 87 60 00       	mov    $0x608740,%ecx
  402abe:	ba 20 f2 60 00       	mov    $0x60f220,%edx
  402ac3:	be e0 42 73 00       	mov    $0x7342e0,%esi
  402ac8:	bf 80 22 61 00       	mov    $0x612280,%edi
  402acd:	48 c7 44 24 10 40 b5 	movq   $0x60b540,0x10(%rsp)
  402ad4:	60 00 
  402ad6:	48 c7 44 24 08 40 87 	movq   $0x608740,0x8(%rsp)
  402add:	60 00 
  402adf:	48 c7 04 24 a0 22 6d 	movq   $0x6d22a0,(%rsp)
  402ae6:	00 
  402ae7:	e8 14 27 00 00       	callq  405200 <MPI_Alltoallv>
  402aec:	83 3d 8d f7 26 00 00 	cmpl   $0x0,0x26f78d(%rip)        # 672280 <timeron>
  402af3:	0f 85 26 04 00 00    	jne    402f1f <rank+0x76f>
  402af9:	44 8b 05 68 f7 20 00 	mov    0x20f768(%rip),%r8d        # 612268 <my_rank>
  402b00:	49 63 c0             	movslq %r8d,%rax
  402b03:	44 8b 2c 85 c0 d1 60 	mov    0x60d1c0(,%rax,4),%r13d
  402b0a:	00 
  402b0b:	44 8b 0c 85 20 02 61 	mov    0x610220(,%rax,4),%r9d
  402b12:	00 
  402b13:	45 8d 75 01          	lea    0x1(%r13),%r14d
  402b17:	45 89 cf             	mov    %r9d,%r15d
  402b1a:	41 c1 e7 06          	shl    $0x6,%r15d
  402b1e:	41 c1 e6 06          	shl    $0x6,%r14d
  402b22:	41 8d 46 ff          	lea    -0x1(%r14),%eax
  402b26:	89 c6                	mov    %eax,%esi
  402b28:	89 44 24 4c          	mov    %eax,0x4c(%rsp)
  402b2c:	44 29 fe             	sub    %r15d,%esi
  402b2f:	78 5c                	js     402b8d <rank+0x3dd>
  402b31:	8d 6e 01             	lea    0x1(%rsi),%ebp
  402b34:	89 ef                	mov    %ebp,%edi
  402b36:	c1 ef 02             	shr    $0x2,%edi
  402b39:	83 fd 03             	cmp    $0x3,%ebp
  402b3c:	8d 04 bd 00 00 00 00 	lea    0x0(,%rdi,4),%eax
  402b43:	0f 86 cf 03 00 00    	jbe    402f18 <rank+0x768>
  402b49:	85 c0                	test   %eax,%eax
  402b4b:	0f 84 c7 03 00 00    	je     402f18 <rank+0x768>
  402b51:	66 0f ef c0          	pxor   %xmm0,%xmm0
  402b55:	b9 80 22 61 00       	mov    $0x612280,%ecx
  402b5a:	31 d2                	xor    %edx,%edx
  402b5c:	0f 1f 40 00          	nopl   0x0(%rax)
  402b60:	83 c2 01             	add    $0x1,%edx
  402b63:	66 0f 7f 01          	movdqa %xmm0,(%rcx)
  402b67:	48 83 c1 10          	add    $0x10,%rcx
  402b6b:	39 fa                	cmp    %edi,%edx
  402b6d:	72 f1                	jb     402b60 <rank+0x3b0>
  402b6f:	39 c5                	cmp    %eax,%ebp
  402b71:	74 1a                	je     402b8d <rank+0x3dd>
  402b73:	0f 1f 44 00 00       	nopl   0x0(%rax,%rax,1)
  402b78:	48 63 d0             	movslq %eax,%rdx
  402b7b:	83 c0 01             	add    $0x1,%eax
  402b7e:	39 c6                	cmp    %eax,%esi
  402b80:	c7 04 95 80 22 61 00 	movl   $0x0,0x612280(,%rdx,4)
  402b87:	00 00 00 00 
  402b8b:	7d eb                	jge    402b78 <rank+0x3c8>
  402b8d:	31 ed                	xor    %ebp,%ebp
  402b8f:	45 85 c0             	test   %r8d,%r8d
  402b92:	0f 8e da 00 00 00    	jle    402c72 <rank+0x4c2>
  402b98:	66 0f ef e4          	pxor   %xmm4,%xmm4
  402b9c:	41 83 e8 01          	sub    $0x1,%r8d
  402ba0:	4e 8d 24 85 04 00 00 	lea    0x4(,%r8,4),%r12
  402ba7:	00 
  402ba8:	45 31 c0             	xor    %r8d,%r8d
  402bab:	0f 1f 44 00 00       	nopl   0x0(%rax,%rax,1)
  402bb0:	41 8b 80 20 02 61 00 	mov    0x610220(%r8),%eax
  402bb7:	41 8b b0 c0 d1 60 00 	mov    0x60d1c0(%r8),%esi
  402bbe:	39 f0                	cmp    %esi,%eax
  402bc0:	0f 8f 9f 00 00 00    	jg     402c65 <rank+0x4b5>
  402bc6:	41 89 c3             	mov    %eax,%r11d
  402bc9:	41 f7 d3             	not    %r11d
  402bcc:	46 8d 5c 1e 02       	lea    0x2(%rsi,%r11,1),%r11d
  402bd1:	44 89 df             	mov    %r11d,%edi
  402bd4:	c1 ef 02             	shr    $0x2,%edi
  402bd7:	41 83 fb 04          	cmp    $0x4,%r11d
  402bdb:	44 8d 14 bd 00 00 00 	lea    0x0(,%rdi,4),%r10d
  402be2:	00 
  402be3:	76 6b                	jbe    402c50 <rank+0x4a0>
  402be5:	45 85 d2             	test   %r10d,%r10d
  402be8:	74 66                	je     402c50 <rank+0x4a0>
  402bea:	66 0f ef c0          	pxor   %xmm0,%xmm0
  402bee:	48 63 d0             	movslq %eax,%rdx
  402bf1:	48 8d 0c 95 e0 52 73 	lea    0x7352e0(,%rdx,4),%rcx
  402bf8:	00 
  402bf9:	31 d2                	xor    %edx,%edx
  402bfb:	0f 1f 44 00 00       	nopl   0x0(%rax,%rax,1)
  402c00:	f3 0f 6f 09          	movdqu (%rcx),%xmm1
  402c04:	83 c2 01             	add    $0x1,%edx
  402c07:	66 0f 6f d4          	movdqa %xmm4,%xmm2
  402c0b:	48 83 c1 10          	add    $0x10,%rcx
  402c0f:	66 0f 6f d9          	movdqa %xmm1,%xmm3
  402c13:	39 fa                	cmp    %edi,%edx
  402c15:	66 0f 66 d1          	pcmpgtd %xmm1,%xmm2
  402c19:	66 0f 62 da          	punpckldq %xmm2,%xmm3
  402c1d:	66 0f 6a ca          	punpckhdq %xmm2,%xmm1
  402c21:	66 0f d4 c3          	paddq  %xmm3,%xmm0
  402c25:	66 0f d4 c1          	paddq  %xmm1,%xmm0
  402c29:	72 d5                	jb     402c00 <rank+0x450>
  402c2b:	66 0f 6f c8          	movdqa %xmm0,%xmm1
  402c2f:	44 01 d0             	add    %r10d,%eax
  402c32:	66 0f 73 d9 08       	psrldq $0x8,%xmm1
  402c37:	66 0f d4 c1          	paddq  %xmm1,%xmm0
  402c3b:	66 0f d6 44 24 40    	movq   %xmm0,0x40(%rsp)
  402c41:	48 03 6c 24 40       	add    0x40(%rsp),%rbp
  402c46:	45 39 d3             	cmp    %r10d,%r11d
  402c49:	74 1a                	je     402c65 <rank+0x4b5>
  402c4b:	0f 1f 44 00 00       	nopl   0x0(%rax,%rax,1)
  402c50:	48 63 d0             	movslq %eax,%rdx
  402c53:	83 c0 01             	add    $0x1,%eax
  402c56:	48 63 14 95 e0 52 73 	movslq 0x7352e0(,%rdx,4),%rdx
  402c5d:	00 
  402c5e:	48 01 d5             	add    %rdx,%rbp
  402c61:	39 c6                	cmp    %eax,%esi
  402c63:	7d eb                	jge    402c50 <rank+0x4a0>
  402c65:	49 83 c0 04          	add    $0x4,%r8
  402c69:	4d 39 e0             	cmp    %r12,%r8
  402c6c:	0f 85 3e ff ff ff    	jne    402bb0 <rank+0x400>
  402c72:	45 39 e9             	cmp    %r13d,%r9d
  402c75:	0f 8f 80 02 00 00    	jg     402efb <rank+0x74b>
  402c7b:	44 89 cf             	mov    %r9d,%edi
  402c7e:	f7 d7                	not    %edi
  402c80:	41 8d 7c 3d 02       	lea    0x2(%r13,%rdi,1),%edi
  402c85:	89 f9                	mov    %edi,%ecx
  402c87:	c1 e9 02             	shr    $0x2,%ecx
  402c8a:	83 ff 04             	cmp    $0x4,%edi
  402c8d:	8d 34 8d 00 00 00 00 	lea    0x0(,%rcx,4),%esi
  402c94:	0f 86 ea 01 00 00    	jbe    402e84 <rank+0x6d4>
  402c9a:	85 f6                	test   %esi,%esi
  402c9c:	0f 84 e2 01 00 00    	je     402e84 <rank+0x6d4>
  402ca2:	66 0f ef c0          	pxor   %xmm0,%xmm0
  402ca6:	49 63 c1             	movslq %r9d,%rax
  402ca9:	66 0f ef e4          	pxor   %xmm4,%xmm4
  402cad:	48 8d 14 85 e0 52 73 	lea    0x7352e0(,%rax,4),%rdx
  402cb4:	00 
  402cb5:	31 c0                	xor    %eax,%eax
  402cb7:	66 0f 1f 84 00 00 00 	nopw   0x0(%rax,%rax,1)
  402cbe:	00 00 
  402cc0:	f3 0f 6f 0a          	movdqu (%rdx),%xmm1
  402cc4:	83 c0 01             	add    $0x1,%eax
  402cc7:	66 0f 6f d4          	movdqa %xmm4,%xmm2
  402ccb:	48 83 c2 10          	add    $0x10,%rdx
  402ccf:	66 0f 6f d9          	movdqa %xmm1,%xmm3
  402cd3:	39 c8                	cmp    %ecx,%eax
  402cd5:	66 0f 66 d1          	pcmpgtd %xmm1,%xmm2
  402cd9:	66 0f 62 da          	punpckldq %xmm2,%xmm3
  402cdd:	66 0f 6a ca          	punpckhdq %xmm2,%xmm1
  402ce1:	66 0f d4 c3          	paddq  %xmm3,%xmm0
  402ce5:	66 0f d4 c1          	paddq  %xmm1,%xmm0
  402ce9:	72 d5                	jb     402cc0 <rank+0x510>
  402ceb:	66 0f 6f c8          	movdqa %xmm0,%xmm1
  402cef:	41 01 f1             	add    %esi,%r9d
  402cf2:	39 f7                	cmp    %esi,%edi
  402cf4:	66 0f 73 d9 08       	psrldq $0x8,%xmm1
  402cf9:	66 0f d4 c1          	paddq  %xmm1,%xmm0
  402cfd:	66 0f d6 44 24 28    	movq   %xmm0,0x28(%rsp)
  402d03:	4c 8b 64 24 28       	mov    0x28(%rsp),%r12
  402d08:	74 1d                	je     402d27 <rank+0x577>
  402d0a:	66 0f 1f 44 00 00    	nopw   0x0(%rax,%rax,1)
  402d10:	49 63 c1             	movslq %r9d,%rax
  402d13:	41 83 c1 01          	add    $0x1,%r9d
  402d17:	48 63 04 85 e0 52 73 	movslq 0x7352e0(,%rax,4),%rax
  402d1e:	00 
  402d1f:	49 01 c4             	add    %rax,%r12
  402d22:	45 39 cd             	cmp    %r9d,%r13d
  402d25:	7d e9                	jge    402d10 <rank+0x560>
  402d27:	49 63 f7             	movslq %r15d,%rsi
  402d2a:	4c 8d 2c b5 00 00 00 	lea    0x0(,%rsi,4),%r13
  402d31:	00 
  402d32:	49 f7 dd             	neg    %r13
  402d35:	49 81 c5 80 22 61 00 	add    $0x612280,%r13
  402d3c:	4d 85 e4             	test   %r12,%r12
  402d3f:	7e 25                	jle    402d66 <rank+0x5b6>
  402d41:	4a 8d 0c a5 00 00 00 	lea    0x0(,%r12,4),%rcx
  402d48:	00 
  402d49:	31 c0                	xor    %eax,%eax
  402d4b:	0f 1f 44 00 00       	nopl   0x0(%rax,%rax,1)
  402d50:	48 63 90 a0 22 67 00 	movslq 0x6722a0(%rax),%rdx
  402d57:	48 83 c0 04          	add    $0x4,%rax
  402d5b:	41 83 44 95 00 01    	addl   $0x1,0x0(%r13,%rdx,4)
  402d61:	48 39 c8             	cmp    %rcx,%rax
  402d64:	75 ea                	jne    402d50 <rank+0x5a0>
  402d66:	44 3b 7c 24 4c       	cmp    0x4c(%rsp),%r15d
  402d6b:	7d 1e                	jge    402d8b <rank+0x5db>
  402d6d:	41 8b 4c b5 00       	mov    0x0(%r13,%rsi,4),%ecx
  402d72:	41 8d 57 01          	lea    0x1(%r15),%edx
  402d76:	49 8d 44 b5 04       	lea    0x4(%r13,%rsi,4),%rax
  402d7b:	03 08                	add    (%rax),%ecx
  402d7d:	83 c2 01             	add    $0x1,%edx
  402d80:	89 08                	mov    %ecx,(%rax)
  402d82:	48 83 c0 04          	add    $0x4,%rax
  402d86:	44 39 f2             	cmp    %r14d,%edx
  402d89:	75 f0                	jne    402d7b <rank+0x5cb>
  402d8b:	44 8d 4b fe          	lea    -0x2(%rbx),%r9d
  402d8f:	45 31 c0             	xor    %r8d,%r8d
  402d92:	48 63 c3             	movslq %ebx,%rax
  402d95:	4d 89 e2             	mov    %r12,%r10
  402d98:	45 31 f6             	xor    %r14d,%r14d
  402d9b:	48 89 44 24 40       	mov    %rax,0x40(%rsp)
  402da0:	4d 63 c9             	movslq %r9d,%r9
  402da3:	45 89 c4             	mov    %r8d,%r12d
  402da6:	41 8b 86 e0 62 73 00 	mov    0x7362e0(%r14),%eax
  402dad:	3b 44 24 4c          	cmp    0x4c(%rsp),%eax
  402db1:	7f 52                	jg     402e05 <rank+0x655>
  402db3:	41 39 c7             	cmp    %eax,%r15d
  402db6:	7f 4d                	jg     402e05 <rank+0x655>
  402db8:	48 98                	cltq   
  402dba:	49 63 54 85 fc       	movslq -0x4(%r13,%rax,4),%rdx
  402dbf:	48 01 ea             	add    %rbp,%rdx
  402dc2:	41 83 fc 01          	cmp    $0x1,%r12d
  402dc6:	7e 6b                	jle    402e33 <rank+0x683>
  402dc8:	4b 8b 84 36 40 22 61 	mov    0x612240(%r14,%r14,1),%rax
  402dcf:	00 
  402dd0:	48 2b 44 24 40       	sub    0x40(%rsp),%rax
  402dd5:	48 39 d0             	cmp    %rdx,%rax
  402dd8:	74 69                	je     402e43 <rank+0x693>
  402dda:	8b 15 88 f4 20 00    	mov    0x20f488(%rip),%edx        # 612268 <my_rank>
  402de0:	44 89 e1             	mov    %r12d,%ecx
  402de3:	89 de                	mov    %ebx,%esi
  402de5:	bf 70 6c 40 00       	mov    $0x406c70,%edi
  402dea:	31 c0                	xor    %eax,%eax
  402dec:	4c 89 4c 24 30       	mov    %r9,0x30(%rsp)
  402df1:	4c 89 54 24 38       	mov    %r10,0x38(%rsp)
  402df6:	e8 a5 f5 ff ff       	callq  4023a0 <printf@plt>
  402dfb:	4c 8b 54 24 38       	mov    0x38(%rsp),%r10
  402e00:	4c 8b 4c 24 30       	mov    0x30(%rsp),%r9
  402e05:	41 83 c4 01          	add    $0x1,%r12d
  402e09:	49 83 c6 04          	add    $0x4,%r14
  402e0d:	41 83 fc 05          	cmp    $0x5,%r12d
  402e11:	75 93                	jne    402da6 <rank+0x5f6>
  402e13:	83 3d 66 f4 26 00 00 	cmpl   $0x0,0x26f466(%rip)        # 672280 <timeron>
  402e1a:	4d 89 d4             	mov    %r10,%r12
  402e1d:	75 59                	jne    402e78 <rank+0x6c8>
  402e1f:	83 fb 0a             	cmp    $0xa,%ebx
  402e22:	74 3a                	je     402e5e <rank+0x6ae>
  402e24:	48 83 c4 58          	add    $0x58,%rsp
  402e28:	5b                   	pop    %rbx
  402e29:	5d                   	pop    %rbp
  402e2a:	41 5c                	pop    %r12
  402e2c:	41 5d                	pop    %r13
  402e2e:	41 5e                	pop    %r14
  402e30:	41 5f                	pop    %r15
  402e32:	c3                   	retq   
  402e33:	4c 89 c8             	mov    %r9,%rax
  402e36:	4b 03 84 36 40 22 61 	add    0x612240(%r14,%r14,1),%rax
  402e3d:	00 
  402e3e:	48 39 d0             	cmp    %rdx,%rax
  402e41:	75 97                	jne    402dda <rank+0x62a>
  402e43:	83 05 3a f4 26 00 01 	addl   $0x1,0x26f43a(%rip)        # 672284 <passed_verification>
  402e4a:	eb b9                	jmp    402e05 <rank+0x655>
  402e4c:	8b 04 95 e0 42 6d 00 	mov    0x6d42e0(,%rdx,4),%eax
  402e53:	89 81 c0 42 6d 00    	mov    %eax,0x6d42c0(%rcx)
  402e59:	e9 1b fa ff ff       	jmpq   402879 <rank+0xc9>
  402e5e:	4c 89 2d 93 34 33 00 	mov    %r13,0x333493(%rip)        # 7362f8 <key_buff_ptr_global>
  402e65:	44 89 25 34 04 2d 00 	mov    %r12d,0x2d0434(%rip)        # 6d32a0 <total_local_keys>
  402e6c:	c7 05 2a a3 20 00 00 	movl   $0x0,0x20a32a(%rip)        # 60d1a0 <total_lesser_keys>
  402e73:	00 00 00 
  402e76:	eb ac                	jmp    402e24 <rank+0x674>
  402e78:	bf 01 00 00 00       	mov    $0x1,%edi
  402e7d:	e8 ae 1c 00 00       	callq  404b30 <timer_stop>
  402e82:	eb 9b                	jmp    402e1f <rank+0x66f>
  402e84:	45 31 e4             	xor    %r12d,%r12d
  402e87:	e9 84 fe ff ff       	jmpq   402d10 <rank+0x560>
  402e8c:	bf 01 00 00 00       	mov    $0x1,%edi
  402e91:	0f 1f 80 00 00 00 00 	nopl   0x0(%rax)
  402e98:	e8 c3 1c 00 00       	callq  404b60 <timer_start>
  402e9d:	8b 2d dd f3 26 00    	mov    0x26f3dd(%rip),%ebp        # 672280 <timeron>
  402ea3:	e9 27 f9 ff ff       	jmpq   4027cf <rank+0x1f>
  402ea8:	bf 02 00 00 00       	mov    $0x2,%edi
  402ead:	e8 7e 1c 00 00       	callq  404b30 <timer_stop>
  402eb2:	83 3d c7 f3 26 00 00 	cmpl   $0x0,0x26f3c7(%rip)        # 672280 <timeron>
  402eb9:	0f 84 90 fa ff ff    	je     40294f <rank+0x19f>
  402ebf:	bf 01 00 00 00       	mov    $0x1,%edi
  402ec4:	e8 97 1c 00 00       	callq  404b60 <timer_start>
  402ec9:	44 8b 0d b0 f3 26 00 	mov    0x26f3b0(%rip),%r9d        # 672280 <timeron>
  402ed0:	e9 7d fa ff ff       	jmpq   402952 <rank+0x1a2>
  402ed5:	bf 01 00 00 00       	mov    $0x1,%edi
  402eda:	e8 51 1c 00 00       	callq  404b30 <timer_stop>
  402edf:	83 3d 9a f3 26 00 00 	cmpl   $0x0,0x26f39a(%rip)        # 672280 <timeron>
  402ee6:	0f 84 31 fa ff ff    	je     40291d <rank+0x16d>
  402eec:	bf 02 00 00 00       	mov    $0x2,%edi
  402ef1:	e8 6a 1c 00 00       	callq  404b60 <timer_start>
  402ef6:	e9 22 fa ff ff       	jmpq   40291d <rank+0x16d>
  402efb:	49 63 f7             	movslq %r15d,%rsi
  402efe:	45 31 e4             	xor    %r12d,%r12d
  402f01:	4c 8d 2c b5 00 00 00 	lea    0x0(,%rsi,4),%r13
  402f08:	00 
  402f09:	49 f7 dd             	neg    %r13
  402f0c:	49 81 c5 80 22 61 00 	add    $0x612280,%r13
  402f13:	e9 4e fe ff ff       	jmpq   402d66 <rank+0x5b6>
  402f18:	31 c0                	xor    %eax,%eax
  402f1a:	e9 59 fc ff ff       	jmpq   402b78 <rank+0x3c8>
  402f1f:	bf 02 00 00 00       	mov    $0x2,%edi
  402f24:	e8 07 1c 00 00       	callq  404b30 <timer_stop>
  402f29:	83 3d 50 f3 26 00 00 	cmpl   $0x0,0x26f350(%rip)        # 672280 <timeron>
  402f30:	0f 84 c3 fb ff ff    	je     402af9 <rank+0x349>
  402f36:	bf 01 00 00 00       	mov    $0x1,%edi
  402f3b:	e8 20 1c 00 00       	callq  404b60 <timer_start>
  402f40:	e9 b4 fb ff ff       	jmpq   402af9 <rank+0x349>
  402f45:	bf 01 00 00 00       	mov    $0x1,%edi
  402f4a:	e8 e1 1b 00 00       	callq  404b30 <timer_stop>
  402f4f:	83 3d 2a f3 26 00 00 	cmpl   $0x0,0x26f32a(%rip)        # 672280 <timeron>
  402f56:	0f 84 ea fa ff ff    	je     402a46 <rank+0x296>
  402f5c:	bf 02 00 00 00       	mov    $0x2,%edi
  402f61:	e8 fa 1b 00 00       	callq  404b60 <timer_start>
  402f66:	e9 db fa ff ff       	jmpq   402a46 <rank+0x296>
  402f6b:	0f 1f 44 00 00       	nopl   0x0(%rax,%rax,1)

0000000000402f70 <full_verify>:
  402f70:	53                   	push   %rbx
  402f71:	48 83 ec 40          	sub    $0x40,%rsp
  402f75:	8b 1d 05 f3 26 00    	mov    0x26f305(%rip),%ebx        # 672280 <timeron>
  402f7b:	85 db                	test   %ebx,%ebx
  402f7d:	0f 85 83 01 00 00    	jne    403106 <full_verify+0x196>
  402f83:	8b 0d 17 03 2d 00    	mov    0x2d0317(%rip),%ecx        # 6d32a0 <total_local_keys>
  402f89:	85 c9                	test   %ecx,%ecx
  402f8b:	0f 8e 84 01 00 00    	jle    403115 <full_verify+0x1a5>
  402f91:	48 8b 35 60 33 33 00 	mov    0x333360(%rip),%rsi        # 7362f8 <key_buff_ptr_global>
  402f98:	b8 a0 22 67 00       	mov    $0x6722a0,%eax
  402f9d:	31 d2                	xor    %edx,%edx
  402f9f:	90                   	nop
  402fa0:	48 63 08             	movslq (%rax),%rcx
  402fa3:	83 c2 01             	add    $0x1,%edx
  402fa6:	48 8d 1c 8e          	lea    (%rsi,%rcx,4),%rbx
  402faa:	8b 0b                	mov    (%rbx),%ecx
  402fac:	83 e9 01             	sub    $0x1,%ecx
  402faf:	89 0b                	mov    %ecx,(%rbx)
  402fb1:	2b 0d e9 a1 20 00    	sub    0x20a1e9(%rip),%ecx        # 60d1a0 <total_lesser_keys>
  402fb7:	8b 18                	mov    (%rax),%ebx
  402fb9:	48 83 c0 04          	add    $0x4,%rax
  402fbd:	48 63 c9             	movslq %ecx,%rcx
  402fc0:	89 1c 8d e0 42 6d 00 	mov    %ebx,0x6d42e0(,%rcx,4)
  402fc7:	8b 1d d3 02 2d 00    	mov    0x2d02d3(%rip),%ebx        # 6d32a0 <total_local_keys>
  402fcd:	39 d3                	cmp    %edx,%ebx
  402fcf:	7f cf                	jg     402fa0 <full_verify+0x30>
  402fd1:	85 db                	test   %ebx,%ebx
  402fd3:	0f 8e 3c 01 00 00    	jle    403115 <full_verify+0x1a5>
  402fd9:	83 eb 01             	sub    $0x1,%ebx
  402fdc:	8b 35 86 f2 20 00    	mov    0x20f286(%rip),%esi        # 612268 <my_rank>
  402fe2:	85 f6                	test   %esi,%esi
  402fe4:	7e 32                	jle    403018 <full_verify+0xa8>
  402fe6:	8d 4e ff             	lea    -0x1(%rsi),%ecx
  402fe9:	48 8d 44 24 30       	lea    0x30(%rsp),%rax
  402fee:	48 8d 7c 24 3c       	lea    0x3c(%rsp),%rdi
  402ff3:	be 01 00 00 00       	mov    $0x1,%esi
  402ff8:	41 b9 40 b5 60 00    	mov    $0x60b540,%r9d
  402ffe:	41 b8 e8 03 00 00    	mov    $0x3e8,%r8d
  403004:	ba 40 87 60 00       	mov    $0x608740,%edx
  403009:	48 89 04 24          	mov    %rax,(%rsp)
  40300d:	e8 7e 2d 00 00       	callq  405d90 <MPI_Irecv>
  403012:	8b 35 50 f2 20 00    	mov    0x20f250(%rip),%esi        # 612268 <my_rank>
  403018:	8b 05 ea c1 20 00    	mov    0x20c1ea(%rip),%eax        # 60f208 <comm_size>
  40301e:	83 e8 01             	sub    $0x1,%eax
  403021:	39 f0                	cmp    %esi,%eax
  403023:	0f 8f a9 00 00 00    	jg     4030d2 <full_verify+0x162>
  403029:	85 f6                	test   %esi,%esi
  40302b:	0f 8e 89 00 00 00    	jle    4030ba <full_verify+0x14a>
  403031:	48 8d 74 24 10       	lea    0x10(%rsp),%rsi
  403036:	48 8d 7c 24 30       	lea    0x30(%rsp),%rdi
  40303b:	e8 60 1e 00 00       	callq  404ea0 <MPI_Wait>
  403040:	8b 35 22 f2 20 00    	mov    0x20f222(%rip),%esi        # 612268 <my_rank>
  403046:	85 f6                	test   %esi,%esi
  403048:	7e 70                	jle    4030ba <full_verify+0x14a>
  40304a:	8b 0d 50 02 2d 00    	mov    0x2d0250(%rip),%ecx        # 6d32a0 <total_local_keys>
  403050:	85 c9                	test   %ecx,%ecx
  403052:	7e 45                	jle    403099 <full_verify+0x129>
  403054:	31 d2                	xor    %edx,%edx
  403056:	8b 05 84 12 2d 00    	mov    0x2d1284(%rip),%eax        # 6d42e0 <key_array>
  40305c:	3b 44 24 3c          	cmp    0x3c(%rsp),%eax
  403060:	0f 9c c2             	setl   %dl
  403063:	83 f9 01             	cmp    $0x1,%ecx
  403066:	7e 2d                	jle    403095 <full_verify+0x125>
  403068:	83 e9 02             	sub    $0x2,%ecx
  40306b:	8b 3d 6f 12 2d 00    	mov    0x2d126f(%rip),%edi        # 6d42e0 <key_array>
  403071:	b8 e4 42 6d 00       	mov    $0x6d42e4,%eax
  403076:	4c 8d 04 8d e8 42 6d 	lea    0x6d42e8(,%rcx,4),%r8
  40307d:	00 
  40307e:	eb 02                	jmp    403082 <full_verify+0x112>
  403080:	89 cf                	mov    %ecx,%edi
  403082:	8b 08                	mov    (%rax),%ecx
  403084:	8d 5a 01             	lea    0x1(%rdx),%ebx
  403087:	39 f9                	cmp    %edi,%ecx
  403089:	0f 4c d3             	cmovl  %ebx,%edx
  40308c:	48 83 c0 04          	add    $0x4,%rax
  403090:	4c 39 c0             	cmp    %r8,%rax
  403093:	75 eb                	jne    403080 <full_verify+0x110>
  403095:	85 d2                	test   %edx,%edx
  403097:	75 2b                	jne    4030c4 <full_verify+0x154>
  403099:	83 05 e4 f1 26 00 01 	addl   $0x1,0x26f1e4(%rip)        # 672284 <passed_verification>
  4030a0:	8b 15 da f1 26 00    	mov    0x26f1da(%rip),%edx        # 672280 <timeron>
  4030a6:	85 d2                	test   %edx,%edx
  4030a8:	74 0a                	je     4030b4 <full_verify+0x144>
  4030aa:	bf 03 00 00 00       	mov    $0x3,%edi
  4030af:	e8 7c 1a 00 00       	callq  404b30 <timer_stop>
  4030b4:	48 83 c4 40          	add    $0x40,%rsp
  4030b8:	5b                   	pop    %rbx
  4030b9:	c3                   	retq   
  4030ba:	8b 0d e0 01 2d 00    	mov    0x2d01e0(%rip),%ecx        # 6d32a0 <total_local_keys>
  4030c0:	31 d2                	xor    %edx,%edx
  4030c2:	eb 9f                	jmp    403063 <full_verify+0xf3>
  4030c4:	bf b8 6c 40 00       	mov    $0x406cb8,%edi
  4030c9:	31 c0                	xor    %eax,%eax
  4030cb:	e8 d0 f2 ff ff       	callq  4023a0 <printf@plt>
  4030d0:	eb ce                	jmp    4030a0 <full_verify+0x130>
  4030d2:	48 63 db             	movslq %ebx,%rbx
  4030d5:	8d 4e 01             	lea    0x1(%rsi),%ecx
  4030d8:	41 b9 40 b5 60 00    	mov    $0x60b540,%r9d
  4030de:	48 8d 3c 9d e0 42 6d 	lea    0x6d42e0(,%rbx,4),%rdi
  4030e5:	00 
  4030e6:	be 01 00 00 00       	mov    $0x1,%esi
  4030eb:	41 b8 e8 03 00 00    	mov    $0x3e8,%r8d
  4030f1:	ba 40 87 60 00       	mov    $0x608740,%edx
  4030f6:	e8 a5 35 00 00       	callq  4066a0 <MPI_Send>
  4030fb:	8b 35 67 f1 20 00    	mov    0x20f167(%rip),%esi        # 612268 <my_rank>
  403101:	e9 23 ff ff ff       	jmpq   403029 <full_verify+0xb9>
  403106:	bf 03 00 00 00       	mov    $0x3,%edi
  40310b:	e8 50 1a 00 00       	callq  404b60 <timer_start>
  403110:	e9 6e fe ff ff       	jmpq   402f83 <full_verify+0x13>
  403115:	31 db                	xor    %ebx,%ebx
  403117:	e9 c0 fe ff ff       	jmpq   402fdc <full_verify+0x6c>
  40311c:	0f 1f 40 00          	nopl   0x0(%rax)

0000000000403120 <find_my_seed>:
  403120:	48 89 d0             	mov    %rdx,%rax
  403123:	48 63 f6             	movslq %esi,%rsi
  403126:	48 c1 fa 3f          	sar    $0x3f,%rdx
  40312a:	48 f7 fe             	idiv   %rsi
  40312d:	31 d2                	xor    %edx,%edx
  40312f:	66 44 0f 28 c1       	movapd %xmm1,%xmm8
  403134:	48 83 f8 01          	cmp    $0x1,%rax
  403138:	0f 8e 7e 01 00 00    	jle    4032bc <find_my_seed+0x19c>
  40313e:	66 90                	xchg   %ax,%ax
  403140:	48 d1 f8             	sar    %rax
  403143:	48 83 c2 01          	add    $0x1,%rdx
  403147:	48 83 f8 01          	cmp    $0x1,%rax
  40314b:	7f f3                	jg     403140 <find_my_seed+0x20>
  40314d:	44 8b 05 3c a0 20 00 	mov    0x20a03c(%rip),%r8d        # 60d190 <KS.5926>
  403154:	f2 44 0f 10 15 2b a0 	movsd  0x20a02b(%rip),%xmm10        # 60d188 <R23.5927>
  40315b:	20 00 
  40315d:	f2 44 0f 10 0d 12 a0 	movsd  0x20a012(%rip),%xmm9        # 60d178 <T23.5929>
  403164:	20 00 
  403166:	b9 01 00 00 00       	mov    $0x1,%ecx
  40316b:	f2 0f 10 1d 0d a0 20 	movsd  0x20a00d(%rip),%xmm3        # 60d180 <R46.5928>
  403172:	00 
  403173:	48 be 00 00 00 00 00 	mov    $0x3ff0000000000000,%rsi
  40317a:	00 f0 3f 
  40317d:	f2 0f 10 15 eb 9f 20 	movsd  0x209feb(%rip),%xmm2        # 60d170 <T46.5930>
  403184:	00 
  403185:	45 89 c1             	mov    %r8d,%r9d
  403188:	66 44 0f 28 c1       	movapd %xmm1,%xmm8
  40318d:	f2 0f 10 25 33 3d 00 	movsd  0x3d33(%rip),%xmm4        # 406ec8 <_IO_stdin_used+0x260>
  403194:	00 
  403195:	0f 1f 00             	nopl   (%rax)
  403198:	45 85 c0             	test   %r8d,%r8d
  40319b:	66 41 0f 28 c9       	movapd %xmm9,%xmm1
  4031a0:	66 41 0f 28 ea       	movapd %xmm10,%xmm5
  4031a5:	75 67                	jne    40320e <find_my_seed+0xee>
  4031a7:	48 89 74 24 f8       	mov    %rsi,-0x8(%rsp)
  4031ac:	31 c0                	xor    %eax,%eax
  4031ae:	f2 0f 10 4c 24 f8    	movsd  -0x8(%rsp),%xmm1
  4031b4:	66 0f 28 e9          	movapd %xmm1,%xmm5
  4031b8:	0f 1f 84 00 00 00 00 	nopl   0x0(%rax,%rax,1)
  4031bf:	00 
  4031c0:	83 c0 01             	add    $0x1,%eax
  4031c3:	f2 0f 59 ec          	mulsd  %xmm4,%xmm5
  4031c7:	f2 0f 58 c9          	addsd  %xmm1,%xmm1
  4031cb:	83 f8 17             	cmp    $0x17,%eax
  4031ce:	75 f0                	jne    4031c0 <find_my_seed+0xa0>
  4031d0:	48 89 74 24 f8       	mov    %rsi,-0x8(%rsp)
  4031d5:	30 c0                	xor    %al,%al
  4031d7:	f2 0f 10 54 24 f8    	movsd  -0x8(%rsp),%xmm2
  4031dd:	66 0f 28 da          	movapd %xmm2,%xmm3
  4031e1:	0f 1f 80 00 00 00 00 	nopl   0x0(%rax)
  4031e8:	83 c0 01             	add    $0x1,%eax
  4031eb:	f2 0f 59 dc          	mulsd  %xmm4,%xmm3
  4031ef:	f2 0f 58 d2          	addsd  %xmm2,%xmm2
  4031f3:	83 f8 2e             	cmp    $0x2e,%eax
  4031f6:	75 f0                	jne    4031e8 <find_my_seed+0xc8>
  4031f8:	66 44 0f 28 c9       	movapd %xmm1,%xmm9
  4031fd:	41 b9 01 00 00 00    	mov    $0x1,%r9d
  403203:	66 44 0f 28 d5       	movapd %xmm5,%xmm10
  403208:	41 b8 01 00 00 00    	mov    $0x1,%r8d
  40320e:	66 41 0f 28 f0       	movapd %xmm8,%xmm6
  403213:	48 83 c1 01          	add    $0x1,%rcx
  403217:	48 39 d1             	cmp    %rdx,%rcx
  40321a:	f2 41 0f 59 f2       	mulsd  %xmm10,%xmm6
  40321f:	f2 0f 2c c6          	cvttsd2si %xmm6,%eax
  403223:	f2 0f 2a f0          	cvtsi2sd %eax,%xmm6
  403227:	66 0f 28 fe          	movapd %xmm6,%xmm7
  40322b:	f2 41 0f 59 f9       	mulsd  %xmm9,%xmm7
  403230:	f2 44 0f 5c c7       	subsd  %xmm7,%xmm8
  403235:	f2 41 0f 59 f0       	mulsd  %xmm8,%xmm6
  40323a:	f2 45 0f 59 c0       	mulsd  %xmm8,%xmm8
  40323f:	f2 0f 58 f6          	addsd  %xmm6,%xmm6
  403243:	f2 44 0f 59 d6       	mulsd  %xmm6,%xmm10
  403248:	f2 41 0f 2c c2       	cvttsd2si %xmm10,%eax
  40324d:	f2 0f 2a f8          	cvtsi2sd %eax,%xmm7
  403251:	f2 41 0f 59 f9       	mulsd  %xmm9,%xmm7
  403256:	f2 0f 5c f7          	subsd  %xmm7,%xmm6
  40325a:	f2 41 0f 59 f1       	mulsd  %xmm9,%xmm6
  40325f:	f2 41 0f 58 f0       	addsd  %xmm8,%xmm6
  403264:	66 0f 28 fe          	movapd %xmm6,%xmm7
  403268:	f2 0f 59 fb          	mulsd  %xmm3,%xmm7
  40326c:	f2 0f 2c c7          	cvttsd2si %xmm7,%eax
  403270:	f2 44 0f 2a c0       	cvtsi2sd %eax,%xmm8
  403275:	f2 44 0f 59 c2       	mulsd  %xmm2,%xmm8
  40327a:	f2 41 0f 5c f0       	subsd  %xmm8,%xmm6
  40327f:	66 44 0f 28 c6       	movapd %xmm6,%xmm8
  403284:	7f 0f                	jg     403295 <find_my_seed+0x175>
  403286:	66 44 0f 28 c9       	movapd %xmm1,%xmm9
  40328b:	66 44 0f 28 d5       	movapd %xmm5,%xmm10
  403290:	e9 03 ff ff ff       	jmpq   403198 <find_my_seed+0x78>
  403295:	f2 0f 11 2d eb 9e 20 	movsd  %xmm5,0x209eeb(%rip)        # 60d188 <R23.5927>
  40329c:	00 
  40329d:	44 89 0d ec 9e 20 00 	mov    %r9d,0x209eec(%rip)        # 60d190 <KS.5926>
  4032a4:	f2 0f 11 0d cc 9e 20 	movsd  %xmm1,0x209ecc(%rip)        # 60d178 <T23.5929>
  4032ab:	00 
  4032ac:	f2 0f 11 1d cc 9e 20 	movsd  %xmm3,0x209ecc(%rip)        # 60d180 <R46.5928>
  4032b3:	00 
  4032b4:	f2 0f 11 15 b4 9e 20 	movsd  %xmm2,0x209eb4(%rip)        # 60d170 <T46.5930>
  4032bb:	00 
  4032bc:	f2 0f 10 35 04 3c 00 	movsd  0x3c04(%rip),%xmm6        # 406ec8 <_IO_stdin_used+0x260>
  4032c3:	00 
  4032c4:	8b 05 c6 9e 20 00    	mov    0x209ec6(%rip),%eax        # 60d190 <KS.5926>
  4032ca:	49 b9 00 00 00 00 00 	mov    $0x3ff0000000000000,%r9
  4032d1:	00 f0 3f 
  4032d4:	f2 0f 10 25 ac 9e 20 	movsd  0x209eac(%rip),%xmm4        # 60d188 <R23.5927>
  4032db:	00 
  4032dc:	f2 0f 10 1d 94 9e 20 	movsd  0x209e94(%rip),%xmm3        # 60d178 <T23.5929>
  4032e3:	00 
  4032e4:	48 63 ff             	movslq %edi,%rdi
  4032e7:	f2 0f 10 15 91 9e 20 	movsd  0x209e91(%rip),%xmm2        # 60d180 <R46.5928>
  4032ee:	00 
  4032ef:	31 c9                	xor    %ecx,%ecx
  4032f1:	f2 0f 10 0d 77 9e 20 	movsd  0x209e77(%rip),%xmm1        # 60d170 <T46.5930>
  4032f8:	00 
  4032f9:	4c 89 ce             	mov    %r9,%rsi
  4032fc:	66 0f 28 ee          	movapd %xmm6,%xmm5
  403300:	48 89 fa             	mov    %rdi,%rdx
  403303:	48 c1 ea 3f          	shr    $0x3f,%rdx
  403307:	48 01 fa             	add    %rdi,%rdx
  40330a:	48 d1 fa             	sar    %rdx
  40330d:	4c 8d 04 12          	lea    (%rdx,%rdx,1),%r8
  403311:	49 39 f8             	cmp    %rdi,%r8
  403314:	0f 84 f2 00 00 00    	je     40340c <find_my_seed+0x2ec>
  40331a:	85 c0                	test   %eax,%eax
  40331c:	75 4c                	jne    40336a <find_my_seed+0x24a>
  40331e:	4c 89 4c 24 f8       	mov    %r9,-0x8(%rsp)
  403323:	f2 0f 10 5c 24 f8    	movsd  -0x8(%rsp),%xmm3
  403329:	66 0f 28 e3          	movapd %xmm3,%xmm4
  40332d:	0f 1f 00             	nopl   (%rax)
  403330:	83 c0 01             	add    $0x1,%eax
  403333:	f2 0f 59 e6          	mulsd  %xmm6,%xmm4
  403337:	f2 0f 58 db          	addsd  %xmm3,%xmm3
  40333b:	83 f8 17             	cmp    $0x17,%eax
  40333e:	75 f0                	jne    403330 <find_my_seed+0x210>
  403340:	4c 89 4c 24 f8       	mov    %r9,-0x8(%rsp)
  403345:	30 c0                	xor    %al,%al
  403347:	f2 0f 10 4c 24 f8    	movsd  -0x8(%rsp),%xmm1
  40334d:	66 0f 28 d1          	movapd %xmm1,%xmm2
  403351:	0f 1f 80 00 00 00 00 	nopl   0x0(%rax)
  403358:	83 c0 01             	add    $0x1,%eax
  40335b:	f2 0f 59 d6          	mulsd  %xmm6,%xmm2
  40335f:	f2 0f 58 c9          	addsd  %xmm1,%xmm1
  403363:	83 f8 2e             	cmp    $0x2e,%eax
  403366:	75 f0                	jne    403358 <find_my_seed+0x238>
  403368:	b0 01                	mov    $0x1,%al
  40336a:	66 41 0f 28 f8       	movapd %xmm8,%xmm7
  40336f:	66 45 0f 28 c8       	movapd %xmm8,%xmm9
  403374:	f2 0f 59 fc          	mulsd  %xmm4,%xmm7
  403378:	f2 0f 2c ff          	cvttsd2si %xmm7,%edi
  40337c:	f2 0f 2a ff          	cvtsi2sd %edi,%xmm7
  403380:	66 44 0f 28 d7       	movapd %xmm7,%xmm10
  403385:	f2 44 0f 59 d3       	mulsd  %xmm3,%xmm10
  40338a:	f2 45 0f 5c ca       	subsd  %xmm10,%xmm9
  40338f:	66 45 0f 28 d1       	movapd %xmm9,%xmm10
  403394:	66 44 0f 28 c8       	movapd %xmm0,%xmm9
  403399:	f2 44 0f 59 cc       	mulsd  %xmm4,%xmm9
  40339e:	f2 41 0f 2c f9       	cvttsd2si %xmm9,%edi
  4033a3:	f2 44 0f 2a cf       	cvtsi2sd %edi,%xmm9
  4033a8:	66 45 0f 28 d9       	movapd %xmm9,%xmm11
  4033ad:	f2 45 0f 59 ca       	mulsd  %xmm10,%xmm9
  4033b2:	f2 44 0f 59 db       	mulsd  %xmm3,%xmm11
  4033b7:	f2 41 0f 5c c3       	subsd  %xmm11,%xmm0
  4033bc:	f2 0f 59 f8          	mulsd  %xmm0,%xmm7
  4033c0:	f2 41 0f 59 c2       	mulsd  %xmm10,%xmm0
  4033c5:	f2 41 0f 58 f9       	addsd  %xmm9,%xmm7
  4033ca:	66 44 0f 28 cf       	movapd %xmm7,%xmm9
  4033cf:	f2 44 0f 59 cc       	mulsd  %xmm4,%xmm9
  4033d4:	f2 41 0f 2c f9       	cvttsd2si %xmm9,%edi
  4033d9:	f2 44 0f 2a cf       	cvtsi2sd %edi,%xmm9
  4033de:	f2 44 0f 59 cb       	mulsd  %xmm3,%xmm9
  4033e3:	f2 41 0f 5c f9       	subsd  %xmm9,%xmm7
  4033e8:	f2 0f 59 fb          	mulsd  %xmm3,%xmm7
  4033ec:	f2 0f 58 f8          	addsd  %xmm0,%xmm7
  4033f0:	66 0f 28 c7          	movapd %xmm7,%xmm0
  4033f4:	f2 0f 59 c2          	mulsd  %xmm2,%xmm0
  4033f8:	f2 0f 2c f8          	cvttsd2si %xmm0,%edi
  4033fc:	f2 0f 2a c7          	cvtsi2sd %edi,%xmm0
  403400:	f2 0f 59 c1          	mulsd  %xmm1,%xmm0
  403404:	f2 0f 5c f8          	subsd  %xmm0,%xmm7
  403408:	66 0f 28 c7          	movapd %xmm7,%xmm0
  40340c:	48 85 d2             	test   %rdx,%rdx
  40340f:	0f 84 e1 00 00 00    	je     4034f6 <find_my_seed+0x3d6>
  403415:	85 c0                	test   %eax,%eax
  403417:	75 51                	jne    40346a <find_my_seed+0x34a>
  403419:	48 89 74 24 f8       	mov    %rsi,-0x8(%rsp)
  40341e:	f2 0f 10 5c 24 f8    	movsd  -0x8(%rsp),%xmm3
  403424:	66 0f 28 e3          	movapd %xmm3,%xmm4
  403428:	0f 1f 84 00 00 00 00 	nopl   0x0(%rax,%rax,1)
  40342f:	00 
  403430:	83 c0 01             	add    $0x1,%eax
  403433:	f2 0f 59 e5          	mulsd  %xmm5,%xmm4
  403437:	f2 0f 58 db          	addsd  %xmm3,%xmm3
  40343b:	83 f8 17             	cmp    $0x17,%eax
  40343e:	75 f0                	jne    403430 <find_my_seed+0x310>
  403440:	48 89 74 24 f8       	mov    %rsi,-0x8(%rsp)
  403445:	30 c0                	xor    %al,%al
  403447:	f2 0f 10 4c 24 f8    	movsd  -0x8(%rsp),%xmm1
  40344d:	66 0f 28 d1          	movapd %xmm1,%xmm2
  403451:	0f 1f 80 00 00 00 00 	nopl   0x0(%rax)
  403458:	83 c0 01             	add    $0x1,%eax
  40345b:	f2 0f 59 d5          	mulsd  %xmm5,%xmm2
  40345f:	f2 0f 58 c9          	addsd  %xmm1,%xmm1
  403463:	83 f8 2e             	cmp    $0x2e,%eax
  403466:	75 f0                	jne    403458 <find_my_seed+0x338>
  403468:	b0 01                	mov    $0x1,%al
  40346a:	83 c1 01             	add    $0x1,%ecx
  40346d:	83 f9 64             	cmp    $0x64,%ecx
  403470:	0f 84 a7 00 00 00    	je     40351d <find_my_seed+0x3fd>
  403476:	66 41 0f 28 f8       	movapd %xmm8,%xmm7
  40347b:	f2 0f 59 fc          	mulsd  %xmm4,%xmm7
  40347f:	f2 0f 2c ff          	cvttsd2si %xmm7,%edi
  403483:	f2 0f 2a ff          	cvtsi2sd %edi,%xmm7
  403487:	66 44 0f 28 cf       	movapd %xmm7,%xmm9
  40348c:	f2 44 0f 59 cb       	mulsd  %xmm3,%xmm9
  403491:	f2 45 0f 5c c1       	subsd  %xmm9,%xmm8
  403496:	f2 41 0f 59 f8       	mulsd  %xmm8,%xmm7
  40349b:	f2 45 0f 59 c0       	mulsd  %xmm8,%xmm8
  4034a0:	f2 0f 58 ff          	addsd  %xmm7,%xmm7
  4034a4:	66 44 0f 28 cf       	movapd %xmm7,%xmm9
  4034a9:	f2 44 0f 59 cc       	mulsd  %xmm4,%xmm9
  4034ae:	f2 41 0f 2c f9       	cvttsd2si %xmm9,%edi
  4034b3:	f2 44 0f 2a cf       	cvtsi2sd %edi,%xmm9
  4034b8:	f2 44 0f 59 cb       	mulsd  %xmm3,%xmm9
  4034bd:	f2 41 0f 5c f9       	subsd  %xmm9,%xmm7
  4034c2:	f2 0f 59 fb          	mulsd  %xmm3,%xmm7
  4034c6:	f2 41 0f 58 f8       	addsd  %xmm8,%xmm7
  4034cb:	66 44 0f 28 c7       	movapd %xmm7,%xmm8
  4034d0:	f2 44 0f 59 c2       	mulsd  %xmm2,%xmm8
  4034d5:	f2 41 0f 2c f8       	cvttsd2si %xmm8,%edi
  4034da:	f2 44 0f 2a c7       	cvtsi2sd %edi,%xmm8
  4034df:	48 89 d7             	mov    %rdx,%rdi
  4034e2:	f2 44 0f 59 c1       	mulsd  %xmm1,%xmm8
  4034e7:	f2 41 0f 5c f8       	subsd  %xmm8,%xmm7
  4034ec:	66 44 0f 28 c7       	movapd %xmm7,%xmm8
  4034f1:	e9 0a fe ff ff       	jmpq   403300 <find_my_seed+0x1e0>
  4034f6:	f2 0f 11 25 8a 9c 20 	movsd  %xmm4,0x209c8a(%rip)        # 60d188 <R23.5927>
  4034fd:	00 
  4034fe:	89 05 8c 9c 20 00    	mov    %eax,0x209c8c(%rip)        # 60d190 <KS.5926>
  403504:	f2 0f 11 1d 6c 9c 20 	movsd  %xmm3,0x209c6c(%rip)        # 60d178 <T23.5929>
  40350b:	00 
  40350c:	f2 0f 11 15 6c 9c 20 	movsd  %xmm2,0x209c6c(%rip)        # 60d180 <R46.5928>
  403513:	00 
  403514:	f2 0f 11 0d 54 9c 20 	movsd  %xmm1,0x209c54(%rip)        # 60d170 <T46.5930>
  40351b:	00 
  40351c:	c3                   	retq   
  40351d:	f2 0f 11 25 63 9c 20 	movsd  %xmm4,0x209c63(%rip)        # 60d188 <R23.5927>
  403524:	00 
  403525:	89 05 65 9c 20 00    	mov    %eax,0x209c65(%rip)        # 60d190 <KS.5926>
  40352b:	f2 0f 11 1d 45 9c 20 	movsd  %xmm3,0x209c45(%rip)        # 60d178 <T23.5929>
  403532:	00 
  403533:	f2 0f 11 15 45 9c 20 	movsd  %xmm2,0x209c45(%rip)        # 60d180 <R46.5928>
  40353a:	00 
  40353b:	f2 0f 11 0d 2d 9c 20 	movsd  %xmm1,0x209c2d(%rip)        # 60d170 <T46.5930>
  403542:	00 
  403543:	c3                   	retq   
  403544:	66 66 66 2e 0f 1f 84 	data32 data32 nopw %cs:0x0(%rax,%rax,1)
  40354b:	00 00 00 00 00 

0000000000403550 <create_seq>:
  403550:	8b 35 3a 9c 20 00    	mov    0x209c3a(%rip),%esi        # 60d190 <KS.5926>
  403556:	31 d2                	xor    %edx,%edx
  403558:	f2 0f 11 4c 24 f8    	movsd  %xmm1,-0x8(%rsp)
  40355e:	f2 0f 10 3d 22 9c 20 	movsd  0x209c22(%rip),%xmm7        # 60d188 <R23.5927>
  403565:	00 
  403566:	48 b9 00 00 00 00 00 	mov    $0x3ff0000000000000,%rcx
  40356d:	00 f0 3f 
  403570:	f2 0f 10 35 00 9c 20 	movsd  0x209c00(%rip),%xmm6        # 60d178 <T23.5929>
  403577:	00 
  403578:	85 f6                	test   %esi,%esi
  40357a:	f2 44 0f 10 05 fd 9b 	movsd  0x209bfd(%rip),%xmm8        # 60d180 <R46.5928>
  403581:	20 00 
  403583:	f2 44 0f 10 15 e4 9b 	movsd  0x209be4(%rip),%xmm10        # 60d170 <T46.5930>
  40358a:	20 00 
  40358c:	89 f7                	mov    %esi,%edi
  40358e:	f2 0f 10 25 32 39 00 	movsd  0x3932(%rip),%xmm4        # 406ec8 <_IO_stdin_used+0x260>
  403595:	00 
  403596:	0f 85 0a 03 00 00    	jne    4038a6 <create_seq+0x356>
  40359c:	0f 1f 40 00          	nopl   0x0(%rax)
  4035a0:	48 89 4c 24 f0       	mov    %rcx,-0x10(%rsp)
  4035a5:	31 c0                	xor    %eax,%eax
  4035a7:	f2 0f 10 5c 24 f0    	movsd  -0x10(%rsp),%xmm3
  4035ad:	66 0f 28 eb          	movapd %xmm3,%xmm5
  4035b1:	0f 1f 80 00 00 00 00 	nopl   0x0(%rax)
  4035b8:	83 c0 01             	add    $0x1,%eax
  4035bb:	f2 0f 59 ec          	mulsd  %xmm4,%xmm5
  4035bf:	f2 0f 58 db          	addsd  %xmm3,%xmm3
  4035c3:	83 f8 17             	cmp    $0x17,%eax
  4035c6:	75 f0                	jne    4035b8 <create_seq+0x68>
  4035c8:	48 89 4c 24 f0       	mov    %rcx,-0x10(%rsp)
  4035cd:	30 c0                	xor    %al,%al
  4035cf:	f2 0f 10 4c 24 f0    	movsd  -0x10(%rsp),%xmm1
  4035d5:	66 0f 28 d1          	movapd %xmm1,%xmm2
  4035d9:	0f 1f 80 00 00 00 00 	nopl   0x0(%rax)
  4035e0:	83 c0 01             	add    $0x1,%eax
  4035e3:	f2 0f 59 d4          	mulsd  %xmm4,%xmm2
  4035e7:	f2 0f 58 c9          	addsd  %xmm1,%xmm1
  4035eb:	83 f8 2e             	cmp    $0x2e,%eax
  4035ee:	75 f0                	jne    4035e0 <create_seq+0x90>
  4035f0:	66 44 0f 28 d1       	movapd %xmm1,%xmm10
  4035f5:	bf 01 00 00 00       	mov    $0x1,%edi
  4035fa:	66 44 0f 28 c2       	movapd %xmm2,%xmm8
  4035ff:	be 01 00 00 00       	mov    $0x1,%esi
  403604:	66 0f 28 f3          	movapd %xmm3,%xmm6
  403608:	66 0f 28 fd          	movapd %xmm5,%xmm7
  40360c:	f2 44 0f 10 4c 24 f8 	movsd  -0x8(%rsp),%xmm9
  403613:	f2 44 0f 10 64 24 f8 	movsd  -0x8(%rsp),%xmm12
  40361a:	f2 44 0f 59 cf       	mulsd  %xmm7,%xmm9
  40361f:	f2 41 0f 2c c1       	cvttsd2si %xmm9,%eax
  403624:	f2 44 0f 2a d8       	cvtsi2sd %eax,%xmm11
  403629:	66 45 0f 28 cb       	movapd %xmm11,%xmm9
  40362e:	66 45 0f 28 f3       	movapd %xmm11,%xmm14
  403633:	f2 44 0f 59 ce       	mulsd  %xmm6,%xmm9
  403638:	f2 45 0f 5c e1       	subsd  %xmm9,%xmm12
  40363d:	66 45 0f 28 cc       	movapd %xmm12,%xmm9
  403642:	66 44 0f 28 e0       	movapd %xmm0,%xmm12
  403647:	f2 44 0f 59 e7       	mulsd  %xmm7,%xmm12
  40364c:	f2 41 0f 2c c4       	cvttsd2si %xmm12,%eax
  403651:	f2 44 0f 2a e0       	cvtsi2sd %eax,%xmm12
  403656:	66 45 0f 28 ec       	movapd %xmm12,%xmm13
  40365b:	f2 45 0f 59 e1       	mulsd  %xmm9,%xmm12
  403660:	f2 44 0f 59 ee       	mulsd  %xmm6,%xmm13
  403665:	f2 41 0f 5c c5       	subsd  %xmm13,%xmm0
  40366a:	f2 44 0f 59 f0       	mulsd  %xmm0,%xmm14
  40366f:	f2 41 0f 59 c1       	mulsd  %xmm9,%xmm0
  403674:	f2 45 0f 58 f4       	addsd  %xmm12,%xmm14
  403679:	66 45 0f 28 e6       	movapd %xmm14,%xmm12
  40367e:	f2 44 0f 59 e7       	mulsd  %xmm7,%xmm12
  403683:	f2 41 0f 2c c4       	cvttsd2si %xmm12,%eax
  403688:	f2 44 0f 2a e0       	cvtsi2sd %eax,%xmm12
  40368d:	f2 44 0f 59 e6       	mulsd  %xmm6,%xmm12
  403692:	f2 45 0f 5c f4       	subsd  %xmm12,%xmm14
  403697:	f2 44 0f 59 f6       	mulsd  %xmm6,%xmm14
  40369c:	f2 44 0f 58 f0       	addsd  %xmm0,%xmm14
  4036a1:	66 41 0f 28 c6       	movapd %xmm14,%xmm0
  4036a6:	f2 41 0f 59 c0       	mulsd  %xmm8,%xmm0
  4036ab:	f2 0f 2c c0          	cvttsd2si %xmm0,%eax
  4036af:	f2 0f 2a c0          	cvtsi2sd %eax,%xmm0
  4036b3:	f2 41 0f 59 c2       	mulsd  %xmm10,%xmm0
  4036b8:	f2 44 0f 5c f0       	subsd  %xmm0,%xmm14
  4036bd:	66 41 0f 28 c6       	movapd %xmm14,%xmm0
  4036c2:	66 45 0f 28 ee       	movapd %xmm14,%xmm13
  4036c7:	f2 45 0f 59 f0       	mulsd  %xmm8,%xmm14
  4036cc:	f2 0f 59 c7          	mulsd  %xmm7,%xmm0
  4036d0:	f2 0f 2c c0          	cvttsd2si %xmm0,%eax
  4036d4:	f2 44 0f 2a e0       	cvtsi2sd %eax,%xmm12
  4036d9:	66 41 0f 28 c4       	movapd %xmm12,%xmm0
  4036de:	f2 45 0f 59 e1       	mulsd  %xmm9,%xmm12
  4036e3:	f2 0f 59 c6          	mulsd  %xmm6,%xmm0
  4036e7:	f2 44 0f 5c e8       	subsd  %xmm0,%xmm13
  4036ec:	66 41 0f 28 c5       	movapd %xmm13,%xmm0
  4036f1:	66 45 0f 28 eb       	movapd %xmm11,%xmm13
  4036f6:	f2 44 0f 59 e8       	mulsd  %xmm0,%xmm13
  4036fb:	f2 41 0f 59 c1       	mulsd  %xmm9,%xmm0
  403700:	f2 45 0f 58 ec       	addsd  %xmm12,%xmm13
  403705:	66 45 0f 28 e5       	movapd %xmm13,%xmm12
  40370a:	f2 44 0f 59 e7       	mulsd  %xmm7,%xmm12
  40370f:	f2 41 0f 2c c4       	cvttsd2si %xmm12,%eax
  403714:	f2 44 0f 2a e0       	cvtsi2sd %eax,%xmm12
  403719:	f2 44 0f 59 e6       	mulsd  %xmm6,%xmm12
  40371e:	f2 45 0f 5c ec       	subsd  %xmm12,%xmm13
  403723:	f2 44 0f 59 ee       	mulsd  %xmm6,%xmm13
  403728:	f2 44 0f 58 e8       	addsd  %xmm0,%xmm13
  40372d:	66 41 0f 28 c5       	movapd %xmm13,%xmm0
  403732:	f2 41 0f 59 c0       	mulsd  %xmm8,%xmm0
  403737:	f2 0f 2c c0          	cvttsd2si %xmm0,%eax
  40373b:	f2 0f 2a c0          	cvtsi2sd %eax,%xmm0
  40373f:	f2 41 0f 59 c2       	mulsd  %xmm10,%xmm0
  403744:	f2 44 0f 5c e8       	subsd  %xmm0,%xmm13
  403749:	66 41 0f 28 c5       	movapd %xmm13,%xmm0
  40374e:	66 45 0f 28 e5       	movapd %xmm13,%xmm12
  403753:	f2 45 0f 59 e8       	mulsd  %xmm8,%xmm13
  403758:	f2 0f 59 c7          	mulsd  %xmm7,%xmm0
  40375c:	f2 45 0f 58 f5       	addsd  %xmm13,%xmm14
  403761:	f2 0f 2c c0          	cvttsd2si %xmm0,%eax
  403765:	f2 0f 2a c0          	cvtsi2sd %eax,%xmm0
  403769:	66 44 0f 28 f8       	movapd %xmm0,%xmm15
  40376e:	f2 41 0f 59 c1       	mulsd  %xmm9,%xmm0
  403773:	f2 44 0f 59 fe       	mulsd  %xmm6,%xmm15
  403778:	f2 45 0f 5c e7       	subsd  %xmm15,%xmm12
  40377d:	66 45 0f 28 fc       	movapd %xmm12,%xmm15
  403782:	66 45 0f 28 e3       	movapd %xmm11,%xmm12
  403787:	f2 45 0f 59 e7       	mulsd  %xmm15,%xmm12
  40378c:	f2 45 0f 59 f9       	mulsd  %xmm9,%xmm15
  403791:	f2 44 0f 58 e0       	addsd  %xmm0,%xmm12
  403796:	66 41 0f 28 c4       	movapd %xmm12,%xmm0
  40379b:	f2 0f 59 c7          	mulsd  %xmm7,%xmm0
  40379f:	f2 0f 2c c0          	cvttsd2si %xmm0,%eax
  4037a3:	f2 0f 2a c0          	cvtsi2sd %eax,%xmm0
  4037a7:	f2 0f 59 c6          	mulsd  %xmm6,%xmm0
  4037ab:	f2 44 0f 5c e0       	subsd  %xmm0,%xmm12
  4037b0:	f2 44 0f 59 e6       	mulsd  %xmm6,%xmm12
  4037b5:	f2 45 0f 58 e7       	addsd  %xmm15,%xmm12
  4037ba:	66 41 0f 28 c4       	movapd %xmm12,%xmm0
  4037bf:	f2 41 0f 59 c0       	mulsd  %xmm8,%xmm0
  4037c4:	f2 0f 2c c0          	cvttsd2si %xmm0,%eax
  4037c8:	f2 0f 2a c0          	cvtsi2sd %eax,%xmm0
  4037cc:	f2 41 0f 59 c2       	mulsd  %xmm10,%xmm0
  4037d1:	f2 44 0f 5c e0       	subsd  %xmm0,%xmm12
  4037d6:	66 41 0f 28 c4       	movapd %xmm12,%xmm0
  4037db:	f2 0f 59 c7          	mulsd  %xmm7,%xmm0
  4037df:	f2 0f 2c c0          	cvttsd2si %xmm0,%eax
  4037e3:	f2 44 0f 2a f8       	cvtsi2sd %eax,%xmm15
  4037e8:	66 41 0f 28 c7       	movapd %xmm15,%xmm0
  4037ed:	f2 45 0f 59 f9       	mulsd  %xmm9,%xmm15
  4037f2:	f2 0f 59 c6          	mulsd  %xmm6,%xmm0
  4037f6:	f2 0f 11 44 24 e8    	movsd  %xmm0,-0x18(%rsp)
  4037fc:	66 41 0f 28 c4       	movapd %xmm12,%xmm0
  403801:	f2 45 0f 59 e0       	mulsd  %xmm8,%xmm12
  403806:	f2 0f 5c 44 24 e8    	subsd  -0x18(%rsp),%xmm0
  40380c:	f2 45 0f 58 f4       	addsd  %xmm12,%xmm14
  403811:	f2 44 0f 59 d8       	mulsd  %xmm0,%xmm11
  403816:	f2 44 0f 59 c8       	mulsd  %xmm0,%xmm9
  40381b:	f2 45 0f 58 df       	addsd  %xmm15,%xmm11
  403820:	f2 41 0f 59 fb       	mulsd  %xmm11,%xmm7
  403825:	f2 0f 2c c7          	cvttsd2si %xmm7,%eax
  403829:	f2 0f 2a f8          	cvtsi2sd %eax,%xmm7
  40382d:	f2 0f 59 fe          	mulsd  %xmm6,%xmm7
  403831:	f2 44 0f 5c df       	subsd  %xmm7,%xmm11
  403836:	f2 44 0f 59 de       	mulsd  %xmm6,%xmm11
  40383b:	f2 45 0f 58 d9       	addsd  %xmm9,%xmm11
  403840:	66 41 0f 28 c3       	movapd %xmm11,%xmm0
  403845:	f2 41 0f 59 c0       	mulsd  %xmm8,%xmm0
  40384a:	f2 0f 2c c0          	cvttsd2si %xmm0,%eax
  40384e:	f2 0f 2a c0          	cvtsi2sd %eax,%xmm0
  403852:	f2 41 0f 59 c2       	mulsd  %xmm10,%xmm0
  403857:	f2 44 0f 5c d8       	subsd  %xmm0,%xmm11
  40385c:	f2 45 0f 59 c3       	mulsd  %xmm11,%xmm8
  403861:	66 41 0f 28 c3       	movapd %xmm11,%xmm0
  403866:	f2 45 0f 58 f0       	addsd  %xmm8,%xmm14
  40386b:	f2 44 0f 59 35 5c 36 	mulsd  0x365c(%rip),%xmm14        # 406ed0 <_IO_stdin_used+0x268>
  403872:	00 00 
  403874:	f2 41 0f 2c c6       	cvttsd2si %xmm14,%eax
  403879:	89 82 e0 42 6d 00    	mov    %eax,0x6d42e0(%rdx)
  40387f:	48 83 c2 04          	add    $0x4,%rdx
  403883:	48 81 fa 00 00 04 00 	cmp    $0x40000,%rdx
  40388a:	74 31                	je     4038bd <create_seq+0x36d>
  40388c:	85 f6                	test   %esi,%esi
  40388e:	66 44 0f 28 d1       	movapd %xmm1,%xmm10
  403893:	66 44 0f 28 c2       	movapd %xmm2,%xmm8
  403898:	66 0f 28 f3          	movapd %xmm3,%xmm6
  40389c:	66 0f 28 fd          	movapd %xmm5,%xmm7
  4038a0:	0f 84 fa fc ff ff    	je     4035a0 <create_seq+0x50>
  4038a6:	66 41 0f 28 ca       	movapd %xmm10,%xmm1
  4038ab:	66 41 0f 28 d0       	movapd %xmm8,%xmm2
  4038b0:	66 0f 28 de          	movapd %xmm6,%xmm3
  4038b4:	66 0f 28 ef          	movapd %xmm7,%xmm5
  4038b8:	e9 4f fd ff ff       	jmpq   40360c <create_seq+0xbc>
  4038bd:	f2 0f 11 2d c3 98 20 	movsd  %xmm5,0x2098c3(%rip)        # 60d188 <R23.5927>
  4038c4:	00 
  4038c5:	89 3d c5 98 20 00    	mov    %edi,0x2098c5(%rip)        # 60d190 <KS.5926>
  4038cb:	f2 0f 11 1d a5 98 20 	movsd  %xmm3,0x2098a5(%rip)        # 60d178 <T23.5929>
  4038d2:	00 
  4038d3:	f2 0f 11 15 a5 98 20 	movsd  %xmm2,0x2098a5(%rip)        # 60d180 <R46.5928>
  4038da:	00 
  4038db:	f2 0f 11 0d 8d 98 20 	movsd  %xmm1,0x20988d(%rip)        # 60d170 <T46.5930>
  4038e2:	00 
  4038e3:	c3                   	retq   
  4038e4:	66 66 66 2e 0f 1f 84 	data32 data32 nopw %cs:0x0(%rax,%rax,1)
  4038eb:	00 00 00 00 00 

00000000004038f0 <main>:
  4038f0:	41 57                	push   %r15
  4038f2:	41 56                	push   %r14
  4038f4:	41 55                	push   %r13
  4038f6:	41 54                	push   %r12
  4038f8:	55                   	push   %rbp
  4038f9:	53                   	push   %rbx
  4038fa:	48 81 ec 68 01 00 00 	sub    $0x168,%rsp
  403901:	89 bc 24 8c 00 00 00 	mov    %edi,0x8c(%rsp)
  403908:	48 89 b4 24 80 00 00 	mov    %rsi,0x80(%rsp)
  40390f:	00 
  403910:	48 8d bc 24 8c 00 00 	lea    0x8c(%rsp),%rdi
  403917:	00 
  403918:	48 8d b4 24 80 00 00 	lea    0x80(%rsp),%rsi
  40391f:	00 
  403920:	e8 3b 18 00 00       	callq  405160 <MPI_Init>
  403925:	be 68 22 61 00       	mov    $0x612268,%esi
  40392a:	bf 40 b5 60 00       	mov    $0x60b540,%edi
  40392f:	e8 6c eb ff ff       	callq  4024a0 <MPI_Comm_rank@plt>
  403934:	be 08 f2 60 00       	mov    $0x60f208,%esi
  403939:	bf 40 b5 60 00       	mov    $0x60b540,%edi
  40393e:	e8 1d eb ff ff       	callq  402460 <MPI_Comm_size@plt>
  403943:	48 8b 05 76 43 20 00 	mov    0x204376(%rip),%rax        # 607cc0 <W_test_index_array>
  40394a:	83 3d 17 e9 20 00 00 	cmpl   $0x0,0x20e917(%rip)        # 612268 <my_rank>
  403951:	48 89 05 88 b8 20 00 	mov    %rax,0x20b888(%rip)        # 60f1e0 <test_index_array>
  403958:	48 8b 05 a1 43 20 00 	mov    0x2043a1(%rip),%rax        # 607d00 <W_test_rank_array>
  40395f:	48 89 05 da e8 20 00 	mov    %rax,0x20e8da(%rip)        # 612240 <test_rank_array>
  403966:	48 8b 05 5b 43 20 00 	mov    0x20435b(%rip),%rax        # 607cc8 <W_test_index_array+0x8>
  40396d:	48 89 05 74 b8 20 00 	mov    %rax,0x20b874(%rip)        # 60f1e8 <test_index_array+0x8>
  403974:	48 8b 05 8d 43 20 00 	mov    0x20438d(%rip),%rax        # 607d08 <W_test_rank_array+0x8>
  40397b:	48 89 05 c6 e8 20 00 	mov    %rax,0x20e8c6(%rip)        # 612248 <test_rank_array+0x8>
  403982:	48 8b 05 47 43 20 00 	mov    0x204347(%rip),%rax        # 607cd0 <W_test_index_array+0x10>
  403989:	48 89 05 60 b8 20 00 	mov    %rax,0x20b860(%rip)        # 60f1f0 <test_index_array+0x10>
  403990:	48 8b 05 79 43 20 00 	mov    0x204379(%rip),%rax        # 607d10 <W_test_rank_array+0x10>
  403997:	48 89 05 b2 e8 20 00 	mov    %rax,0x20e8b2(%rip)        # 612250 <test_rank_array+0x10>
  40399e:	48 8b 05 33 43 20 00 	mov    0x204333(%rip),%rax        # 607cd8 <W_test_index_array+0x18>
  4039a5:	48 89 05 4c b8 20 00 	mov    %rax,0x20b84c(%rip)        # 60f1f8 <test_index_array+0x18>
  4039ac:	48 8b 05 65 43 20 00 	mov    0x204365(%rip),%rax        # 607d18 <W_test_rank_array+0x18>
  4039b3:	48 89 05 9e e8 20 00 	mov    %rax,0x20e89e(%rip)        # 612258 <test_rank_array+0x18>
  4039ba:	48 8b 05 1f 43 20 00 	mov    0x20431f(%rip),%rax        # 607ce0 <W_test_index_array+0x20>
  4039c1:	48 89 05 38 b8 20 00 	mov    %rax,0x20b838(%rip)        # 60f200 <test_index_array+0x20>
  4039c8:	48 8b 05 51 43 20 00 	mov    0x204351(%rip),%rax        # 607d20 <W_test_rank_array+0x20>
  4039cf:	48 89 05 8a e8 20 00 	mov    %rax,0x20e88a(%rip)        # 612260 <test_rank_array+0x20>
  4039d6:	0f 84 a4 0d 00 00    	je     404780 <main+0xe90>
  4039dc:	8b 15 26 b8 20 00    	mov    0x20b826(%rip),%edx        # 60f208 <comm_size>
  4039e2:	83 fa 10             	cmp    $0x10,%edx
  4039e5:	0f 85 30 0e 00 00    	jne    40481b <main+0xf2b>
  4039eb:	31 c9                	xor    %ecx,%ecx
  4039ed:	ba 40 87 60 00       	mov    $0x608740,%edx
  4039f2:	be 01 00 00 00       	mov    $0x1,%esi
  4039f7:	41 b8 40 b5 60 00    	mov    $0x60b540,%r8d
  4039fd:	bf 80 22 67 00       	mov    $0x672280,%edi
  403a02:	e8 49 21 00 00       	callq  405b50 <MPI_Bcast>
  403a07:	bf 01 00 00 00       	mov    $0x1,%edi
  403a0c:	e8 ff 10 00 00       	callq  404b10 <timer_clear>
  403a11:	bf 02 00 00 00       	mov    $0x2,%edi
  403a16:	e8 f5 10 00 00       	callq  404b10 <timer_clear>
  403a1b:	bf 03 00 00 00       	mov    $0x3,%edi
  403a20:	e8 eb 10 00 00       	callq  404b10 <timer_clear>
  403a25:	48 63 1d dc b7 20 00 	movslq 0x20b7dc(%rip),%rbx        # 60f208 <comm_size>
  403a2c:	ba 00 00 40 00       	mov    $0x400000,%edx
  403a31:	31 f6                	xor    %esi,%esi
  403a33:	48 89 d0             	mov    %rdx,%rax
  403a36:	48 c1 fa 3f          	sar    $0x3f,%rdx
  403a3a:	8b 0d 28 e8 20 00    	mov    0x20e828(%rip),%ecx        # 612268 <my_rank>
  403a40:	48 f7 fb             	idiv   %rbx
  403a43:	48 83 f8 01          	cmp    $0x1,%rax
  403a47:	0f 8e af 0d 00 00    	jle    4047fc <main+0xf0c>
  403a4d:	48 d1 f8             	sar    %rax
  403a50:	48 83 c6 01          	add    $0x1,%rsi
  403a54:	48 83 f8 01          	cmp    $0x1,%rax
  403a58:	7f f3                	jg     403a4d <main+0x15d>
  403a5a:	8b 2d 30 97 20 00    	mov    0x209730(%rip),%ebp        # 60d190 <KS.5926>
  403a60:	f2 44 0f 10 25 6f 34 	movsd  0x346f(%rip),%xmm12        # 406ed8 <_IO_stdin_used+0x270>
  403a67:	00 00 
  403a69:	f2 44 0f 10 0d 16 97 	movsd  0x209716(%rip),%xmm9        # 60d188 <R23.5927>
  403a70:	20 00 
  403a72:	ba 01 00 00 00       	mov    $0x1,%edx
  403a77:	f2 44 0f 10 05 f8 96 	movsd  0x2096f8(%rip),%xmm8        # 60d178 <T23.5929>
  403a7e:	20 00 
  403a80:	48 bf 00 00 00 00 00 	mov    $0x3ff0000000000000,%rdi
  403a87:	00 f0 3f 
  403a8a:	89 eb                	mov    %ebp,%ebx
  403a8c:	f2 44 0f 10 1d eb 96 	movsd  0x2096eb(%rip),%xmm11        # 60d180 <R46.5928>
  403a93:	20 00 
  403a95:	85 db                	test   %ebx,%ebx
  403a97:	f2 44 0f 10 15 d0 96 	movsd  0x2096d0(%rip),%xmm10        # 60d170 <T46.5930>
  403a9e:	20 00 
  403aa0:	f2 44 0f 11 64 24 78 	movsd  %xmm12,0x78(%rsp)
  403aa7:	66 41 0f 28 f4       	movapd %xmm12,%xmm6
  403aac:	f2 0f 10 1d 14 34 00 	movsd  0x3414(%rip),%xmm3        # 406ec8 <_IO_stdin_used+0x260>
  403ab3:	00 
  403ab4:	0f 85 f6 00 00 00    	jne    403bb0 <main+0x2c0>
  403aba:	48 89 7c 24 68       	mov    %rdi,0x68(%rsp)
  403abf:	31 c0                	xor    %eax,%eax
  403ac1:	f2 0f 10 54 24 68    	movsd  0x68(%rsp),%xmm2
  403ac7:	66 0f 28 e2          	movapd %xmm2,%xmm4
  403acb:	0f 1f 44 00 00       	nopl   0x0(%rax,%rax,1)
  403ad0:	83 c0 01             	add    $0x1,%eax
  403ad3:	f2 0f 59 e3          	mulsd  %xmm3,%xmm4
  403ad7:	f2 0f 58 d2          	addsd  %xmm2,%xmm2
  403adb:	83 f8 17             	cmp    $0x17,%eax
  403ade:	75 f0                	jne    403ad0 <main+0x1e0>
  403ae0:	48 89 7c 24 68       	mov    %rdi,0x68(%rsp)
  403ae5:	30 c0                	xor    %al,%al
  403ae7:	f2 0f 10 44 24 68    	movsd  0x68(%rsp),%xmm0
  403aed:	66 0f 28 c8          	movapd %xmm0,%xmm1
  403af1:	0f 1f 80 00 00 00 00 	nopl   0x0(%rax)
  403af8:	83 c0 01             	add    $0x1,%eax
  403afb:	f2 0f 59 cb          	mulsd  %xmm3,%xmm1
  403aff:	f2 0f 58 c0          	addsd  %xmm0,%xmm0
  403b03:	83 f8 2e             	cmp    $0x2e,%eax
  403b06:	75 f0                	jne    403af8 <main+0x208>
  403b08:	66 44 0f 28 d0       	movapd %xmm0,%xmm10
  403b0d:	bd 01 00 00 00       	mov    $0x1,%ebp
  403b12:	66 44 0f 28 d9       	movapd %xmm1,%xmm11
  403b17:	bb 01 00 00 00       	mov    $0x1,%ebx
  403b1c:	66 44 0f 28 c2       	movapd %xmm2,%xmm8
  403b21:	66 44 0f 28 cc       	movapd %xmm4,%xmm9
  403b26:	66 0f 28 ee          	movapd %xmm6,%xmm5
  403b2a:	48 83 c2 01          	add    $0x1,%rdx
  403b2e:	48 39 f2             	cmp    %rsi,%rdx
  403b31:	f2 41 0f 59 e9       	mulsd  %xmm9,%xmm5
  403b36:	f2 0f 2c c5          	cvttsd2si %xmm5,%eax
  403b3a:	f2 0f 2a e8          	cvtsi2sd %eax,%xmm5
  403b3e:	66 0f 28 fd          	movapd %xmm5,%xmm7
  403b42:	f2 41 0f 59 f8       	mulsd  %xmm8,%xmm7
  403b47:	f2 0f 5c f7          	subsd  %xmm7,%xmm6
  403b4b:	f2 0f 59 ee          	mulsd  %xmm6,%xmm5
  403b4f:	f2 0f 59 f6          	mulsd  %xmm6,%xmm6
  403b53:	f2 0f 58 ed          	addsd  %xmm5,%xmm5
  403b57:	f2 44 0f 59 cd       	mulsd  %xmm5,%xmm9
  403b5c:	f2 41 0f 2c c1       	cvttsd2si %xmm9,%eax
  403b61:	f2 0f 2a f8          	cvtsi2sd %eax,%xmm7
  403b65:	f2 41 0f 59 f8       	mulsd  %xmm8,%xmm7
  403b6a:	f2 0f 5c ef          	subsd  %xmm7,%xmm5
  403b6e:	f2 41 0f 59 e8       	mulsd  %xmm8,%xmm5
  403b73:	f2 0f 58 ee          	addsd  %xmm6,%xmm5
  403b77:	f2 44 0f 59 dd       	mulsd  %xmm5,%xmm11
  403b7c:	f2 41 0f 2c c3       	cvttsd2si %xmm11,%eax
  403b81:	f2 0f 2a f0          	cvtsi2sd %eax,%xmm6
  403b85:	f2 41 0f 59 f2       	mulsd  %xmm10,%xmm6
  403b8a:	f2 0f 5c ee          	subsd  %xmm6,%xmm5
  403b8e:	66 0f 28 f5          	movapd %xmm5,%xmm6
  403b92:	7f 35                	jg     403bc9 <main+0x2d9>
  403b94:	85 db                	test   %ebx,%ebx
  403b96:	66 44 0f 28 d0       	movapd %xmm0,%xmm10
  403b9b:	66 44 0f 28 d9       	movapd %xmm1,%xmm11
  403ba0:	66 44 0f 28 c2       	movapd %xmm2,%xmm8
  403ba5:	66 44 0f 28 cc       	movapd %xmm4,%xmm9
  403baa:	0f 84 0a ff ff ff    	je     403aba <main+0x1ca>
  403bb0:	66 41 0f 28 c2       	movapd %xmm10,%xmm0
  403bb5:	66 41 0f 28 cb       	movapd %xmm11,%xmm1
  403bba:	66 41 0f 28 d0       	movapd %xmm8,%xmm2
  403bbf:	66 41 0f 28 e1       	movapd %xmm9,%xmm4
  403bc4:	e9 5d ff ff ff       	jmpq   403b26 <main+0x236>
  403bc9:	66 0f 28 fd          	movapd %xmm5,%xmm7
  403bcd:	f2 0f 11 25 b3 95 20 	movsd  %xmm4,0x2095b3(%rip)        # 60d188 <R23.5927>
  403bd4:	00 
  403bd5:	f2 0f 11 15 9b 95 20 	movsd  %xmm2,0x20959b(%rip)        # 60d178 <T23.5929>
  403bdc:	00 
  403bdd:	89 e8                	mov    %ebp,%eax
  403bdf:	f2 0f 11 0d 99 95 20 	movsd  %xmm1,0x209599(%rip)        # 60d180 <R46.5928>
  403be6:	00 
  403be7:	f2 0f 11 05 81 95 20 	movsd  %xmm0,0x209581(%rip)        # 60d170 <T46.5930>
  403bee:	00 
  403bef:	f2 0f 10 2d d1 32 00 	movsd  0x32d1(%rip),%xmm5        # 406ec8 <_IO_stdin_used+0x260>
  403bf6:	00 
  403bf7:	48 bd 00 00 00 00 00 	mov    $0x3ff0000000000000,%rbp
  403bfe:	00 f0 3f 
  403c01:	f2 0f 10 1d 7f 95 20 	movsd  0x20957f(%rip),%xmm3        # 60d188 <R23.5927>
  403c08:	00 
  403c09:	48 63 c9             	movslq %ecx,%rcx
  403c0c:	f2 0f 10 15 64 95 20 	movsd  0x209564(%rip),%xmm2        # 60d178 <T23.5929>
  403c13:	00 
  403c14:	31 f6                	xor    %esi,%esi
  403c16:	f2 0f 10 0d 62 95 20 	movsd  0x209562(%rip),%xmm1        # 60d180 <R46.5928>
  403c1d:	00 
  403c1e:	48 89 ef             	mov    %rbp,%rdi
  403c21:	f2 0f 10 05 47 95 20 	movsd  0x209547(%rip),%xmm0        # 60d170 <T46.5930>
  403c28:	00 
  403c29:	f2 44 0f 10 35 ae 32 	movsd  0x32ae(%rip),%xmm14        # 406ee0 <_IO_stdin_used+0x278>
  403c30:	00 00 
  403c32:	66 0f 28 e5          	movapd %xmm5,%xmm4
  403c36:	48 89 ca             	mov    %rcx,%rdx
  403c39:	48 c1 ea 3f          	shr    $0x3f,%rdx
  403c3d:	48 01 ca             	add    %rcx,%rdx
  403c40:	48 d1 fa             	sar    %rdx
  403c43:	4c 8d 04 12          	lea    (%rdx,%rdx,1),%r8
  403c47:	4c 39 c1             	cmp    %r8,%rcx
  403c4a:	0f 85 ec 00 00 00    	jne    403d3c <main+0x44c>
  403c50:	48 85 d2             	test   %rdx,%rdx
  403c53:	89 c3                	mov    %eax,%ebx
  403c55:	0f 84 ef 01 00 00    	je     403e4a <main+0x55a>
  403c5b:	85 db                	test   %ebx,%ebx
  403c5d:	89 c1                	mov    %eax,%ecx
  403c5f:	89 d8                	mov    %ebx,%eax
  403c61:	75 54                	jne    403cb7 <main+0x3c7>
  403c63:	48 89 7c 24 68       	mov    %rdi,0x68(%rsp)
  403c68:	f2 0f 10 54 24 68    	movsd  0x68(%rsp),%xmm2
  403c6e:	66 0f 28 da          	movapd %xmm2,%xmm3
  403c72:	66 0f 1f 44 00 00    	nopw   0x0(%rax,%rax,1)
  403c78:	83 c0 01             	add    $0x1,%eax
  403c7b:	f2 0f 59 dc          	mulsd  %xmm4,%xmm3
  403c7f:	f2 0f 58 d2          	addsd  %xmm2,%xmm2
  403c83:	83 f8 17             	cmp    $0x17,%eax
  403c86:	75 f0                	jne    403c78 <main+0x388>
  403c88:	48 89 7c 24 68       	mov    %rdi,0x68(%rsp)
  403c8d:	30 c0                	xor    %al,%al
  403c8f:	f2 0f 10 44 24 68    	movsd  0x68(%rsp),%xmm0
  403c95:	66 0f 28 c8          	movapd %xmm0,%xmm1
  403c99:	0f 1f 80 00 00 00 00 	nopl   0x0(%rax)
  403ca0:	83 c0 01             	add    $0x1,%eax
  403ca3:	f2 0f 59 cc          	mulsd  %xmm4,%xmm1
  403ca7:	f2 0f 58 c0          	addsd  %xmm0,%xmm0
  403cab:	83 f8 2e             	cmp    $0x2e,%eax
  403cae:	75 f0                	jne    403ca0 <main+0x3b0>
  403cb0:	b9 01 00 00 00       	mov    $0x1,%ecx
  403cb5:	b0 01                	mov    $0x1,%al
  403cb7:	83 c6 01             	add    $0x1,%esi
  403cba:	83 fe 64             	cmp    $0x64,%esi
  403cbd:	0f 84 92 0a 00 00    	je     404755 <main+0xe65>
  403cc3:	66 0f 28 f7          	movapd %xmm7,%xmm6
  403cc7:	f2 0f 59 f3          	mulsd  %xmm3,%xmm6
  403ccb:	f2 0f 2c de          	cvttsd2si %xmm6,%ebx
  403ccf:	f2 0f 2a f3          	cvtsi2sd %ebx,%xmm6
  403cd3:	66 44 0f 28 c6       	movapd %xmm6,%xmm8
  403cd8:	f2 44 0f 59 c2       	mulsd  %xmm2,%xmm8
  403cdd:	f2 41 0f 5c f8       	subsd  %xmm8,%xmm7
  403ce2:	f2 0f 59 f7          	mulsd  %xmm7,%xmm6
  403ce6:	f2 0f 59 ff          	mulsd  %xmm7,%xmm7
  403cea:	f2 0f 58 f6          	addsd  %xmm6,%xmm6
  403cee:	66 44 0f 28 c6       	movapd %xmm6,%xmm8
  403cf3:	f2 44 0f 59 c3       	mulsd  %xmm3,%xmm8
  403cf8:	f2 41 0f 2c d8       	cvttsd2si %xmm8,%ebx
  403cfd:	f2 44 0f 2a c3       	cvtsi2sd %ebx,%xmm8
  403d02:	f2 44 0f 59 c2       	mulsd  %xmm2,%xmm8
  403d07:	f2 41 0f 5c f0       	subsd  %xmm8,%xmm6
  403d0c:	f2 0f 59 f2          	mulsd  %xmm2,%xmm6
  403d10:	f2 0f 58 f7          	addsd  %xmm7,%xmm6
  403d14:	66 0f 28 fe          	movapd %xmm6,%xmm7
  403d18:	f2 0f 59 f9          	mulsd  %xmm1,%xmm7
  403d1c:	f2 0f 2c df          	cvttsd2si %xmm7,%ebx
  403d20:	f2 0f 2a fb          	cvtsi2sd %ebx,%xmm7
  403d24:	89 c3                	mov    %eax,%ebx
  403d26:	89 c8                	mov    %ecx,%eax
  403d28:	48 89 d1             	mov    %rdx,%rcx
  403d2b:	f2 0f 59 f8          	mulsd  %xmm0,%xmm7
  403d2f:	f2 0f 5c f7          	subsd  %xmm7,%xmm6
  403d33:	66 0f 28 fe          	movapd %xmm6,%xmm7
  403d37:	e9 fa fe ff ff       	jmpq   403c36 <main+0x346>
  403d3c:	85 db                	test   %ebx,%ebx
  403d3e:	75 57                	jne    403d97 <main+0x4a7>
  403d40:	48 89 6c 24 68       	mov    %rbp,0x68(%rsp)
  403d45:	31 c0                	xor    %eax,%eax
  403d47:	f2 0f 10 54 24 68    	movsd  0x68(%rsp),%xmm2
  403d4d:	66 0f 28 da          	movapd %xmm2,%xmm3
  403d51:	0f 1f 80 00 00 00 00 	nopl   0x0(%rax)
  403d58:	83 c0 01             	add    $0x1,%eax
  403d5b:	f2 0f 59 dd          	mulsd  %xmm5,%xmm3
  403d5f:	f2 0f 58 d2          	addsd  %xmm2,%xmm2
  403d63:	83 f8 17             	cmp    $0x17,%eax
  403d66:	75 f0                	jne    403d58 <main+0x468>
  403d68:	48 89 6c 24 68       	mov    %rbp,0x68(%rsp)
  403d6d:	30 c0                	xor    %al,%al
  403d6f:	f2 0f 10 44 24 68    	movsd  0x68(%rsp),%xmm0
  403d75:	66 0f 28 c8          	movapd %xmm0,%xmm1
  403d79:	0f 1f 80 00 00 00 00 	nopl   0x0(%rax)
  403d80:	83 c0 01             	add    $0x1,%eax
  403d83:	f2 0f 59 cd          	mulsd  %xmm5,%xmm1
  403d87:	f2 0f 58 c0          	addsd  %xmm0,%xmm0
  403d8b:	83 f8 2e             	cmp    $0x2e,%eax
  403d8e:	75 f0                	jne    403d80 <main+0x490>
  403d90:	b0 01                	mov    $0x1,%al
  403d92:	bb 01 00 00 00       	mov    $0x1,%ebx
  403d97:	66 0f 28 f7          	movapd %xmm7,%xmm6
  403d9b:	48 85 d2             	test   %rdx,%rdx
  403d9e:	66 44 0f 28 c7       	movapd %xmm7,%xmm8
  403da3:	f2 0f 59 f3          	mulsd  %xmm3,%xmm6
  403da7:	f2 0f 2c ce          	cvttsd2si %xmm6,%ecx
  403dab:	f2 0f 2a f1          	cvtsi2sd %ecx,%xmm6
  403daf:	66 44 0f 28 ce       	movapd %xmm6,%xmm9
  403db4:	f2 44 0f 59 ca       	mulsd  %xmm2,%xmm9
  403db9:	f2 45 0f 5c c1       	subsd  %xmm9,%xmm8
  403dbe:	66 45 0f 28 c8       	movapd %xmm8,%xmm9
  403dc3:	66 45 0f 28 c6       	movapd %xmm14,%xmm8
  403dc8:	f2 44 0f 59 c3       	mulsd  %xmm3,%xmm8
  403dcd:	f2 41 0f 2c c8       	cvttsd2si %xmm8,%ecx
  403dd2:	f2 44 0f 2a c1       	cvtsi2sd %ecx,%xmm8
  403dd7:	66 45 0f 28 d0       	movapd %xmm8,%xmm10
  403ddc:	f2 45 0f 59 c1       	mulsd  %xmm9,%xmm8
  403de1:	f2 44 0f 59 d2       	mulsd  %xmm2,%xmm10
  403de6:	f2 45 0f 5c f2       	subsd  %xmm10,%xmm14
  403deb:	f2 41 0f 59 f6       	mulsd  %xmm14,%xmm6
  403df0:	f2 45 0f 59 f1       	mulsd  %xmm9,%xmm14
  403df5:	f2 41 0f 58 f0       	addsd  %xmm8,%xmm6
  403dfa:	66 44 0f 28 c6       	movapd %xmm6,%xmm8
  403dff:	f2 44 0f 59 c3       	mulsd  %xmm3,%xmm8
  403e04:	f2 41 0f 2c c8       	cvttsd2si %xmm8,%ecx
  403e09:	f2 44 0f 2a c1       	cvtsi2sd %ecx,%xmm8
  403e0e:	f2 44 0f 59 c2       	mulsd  %xmm2,%xmm8
  403e13:	f2 41 0f 5c f0       	subsd  %xmm8,%xmm6
  403e18:	f2 0f 59 f2          	mulsd  %xmm2,%xmm6
  403e1c:	f2 41 0f 58 f6       	addsd  %xmm14,%xmm6
  403e21:	66 44 0f 28 c6       	movapd %xmm6,%xmm8
  403e26:	f2 44 0f 59 c1       	mulsd  %xmm1,%xmm8
  403e2b:	f2 41 0f 2c c8       	cvttsd2si %xmm8,%ecx
  403e30:	f2 44 0f 2a f1       	cvtsi2sd %ecx,%xmm14
  403e35:	f2 44 0f 59 f0       	mulsd  %xmm0,%xmm14
  403e3a:	f2 41 0f 5c f6       	subsd  %xmm14,%xmm6
  403e3f:	66 44 0f 28 f6       	movapd %xmm6,%xmm14
  403e44:	0f 85 11 fe ff ff    	jne    403c5b <main+0x36b>
  403e4a:	f2 0f 11 1d 36 93 20 	movsd  %xmm3,0x209336(%rip)        # 60d188 <R23.5927>
  403e51:	00 
  403e52:	89 05 38 93 20 00    	mov    %eax,0x209338(%rip)        # 60d190 <KS.5926>
  403e58:	f2 0f 11 15 18 93 20 	movsd  %xmm2,0x209318(%rip)        # 60d178 <T23.5929>
  403e5f:	00 
  403e60:	f2 0f 11 0d 18 93 20 	movsd  %xmm1,0x209318(%rip)        # 60d180 <R46.5928>
  403e67:	00 
  403e68:	f2 0f 11 05 00 93 20 	movsd  %xmm0,0x209300(%rip)        # 60d170 <T46.5930>
  403e6f:	00 
  403e70:	31 d2                	xor    %edx,%edx
  403e72:	85 c0                	test   %eax,%eax
  403e74:	8b 35 16 93 20 00    	mov    0x209316(%rip),%esi        # 60d190 <KS.5926>
  403e7a:	f2 0f 10 35 06 93 20 	movsd  0x209306(%rip),%xmm6        # 60d188 <R23.5927>
  403e81:	00 
  403e82:	48 b9 00 00 00 00 00 	mov    $0x3ff0000000000000,%rcx
  403e89:	00 f0 3f 
  403e8c:	f2 0f 10 2d e4 92 20 	movsd  0x2092e4(%rip),%xmm5        # 60d178 <T23.5929>
  403e93:	00 
  403e94:	f2 0f 10 3d e4 92 20 	movsd  0x2092e4(%rip),%xmm7        # 60d180 <R46.5928>
  403e9b:	00 
  403e9c:	f2 44 0f 10 0d cb 92 	movsd  0x2092cb(%rip),%xmm9        # 60d170 <T46.5930>
  403ea3:	20 00 
  403ea5:	f2 0f 10 1d 1b 30 00 	movsd  0x301b(%rip),%xmm3        # 406ec8 <_IO_stdin_used+0x260>
  403eac:	00 
  403ead:	0f 85 1b 03 00 00    	jne    4041ce <main+0x8de>
  403eb3:	0f 1f 44 00 00       	nopl   0x0(%rax,%rax,1)
  403eb8:	48 89 4c 24 68       	mov    %rcx,0x68(%rsp)
  403ebd:	31 c0                	xor    %eax,%eax
  403ebf:	f2 0f 10 54 24 68    	movsd  0x68(%rsp),%xmm2
  403ec5:	66 0f 28 e2          	movapd %xmm2,%xmm4
  403ec9:	0f 1f 80 00 00 00 00 	nopl   0x0(%rax)
  403ed0:	83 c0 01             	add    $0x1,%eax
  403ed3:	f2 0f 59 e3          	mulsd  %xmm3,%xmm4
  403ed7:	f2 0f 58 d2          	addsd  %xmm2,%xmm2
  403edb:	83 f8 17             	cmp    $0x17,%eax
  403ede:	75 f0                	jne    403ed0 <main+0x5e0>
  403ee0:	48 89 4c 24 68       	mov    %rcx,0x68(%rsp)
  403ee5:	30 c0                	xor    %al,%al
  403ee7:	f2 0f 10 44 24 68    	movsd  0x68(%rsp),%xmm0
  403eed:	66 0f 28 c8          	movapd %xmm0,%xmm1
  403ef1:	0f 1f 80 00 00 00 00 	nopl   0x0(%rax)
  403ef8:	83 c0 01             	add    $0x1,%eax
  403efb:	f2 0f 59 cb          	mulsd  %xmm3,%xmm1
  403eff:	f2 0f 58 c0          	addsd  %xmm0,%xmm0
  403f03:	83 f8 2e             	cmp    $0x2e,%eax
  403f06:	75 f0                	jne    403ef8 <main+0x608>
  403f08:	66 44 0f 28 c8       	movapd %xmm0,%xmm9
  403f0d:	be 01 00 00 00       	mov    $0x1,%esi
  403f12:	66 0f 28 f9          	movapd %xmm1,%xmm7
  403f16:	b0 01                	mov    $0x1,%al
  403f18:	66 0f 28 ea          	movapd %xmm2,%xmm5
  403f1c:	66 0f 28 f4          	movapd %xmm4,%xmm6
  403f20:	f2 44 0f 10 44 24 78 	movsd  0x78(%rsp),%xmm8
  403f27:	f2 44 0f 10 5c 24 78 	movsd  0x78(%rsp),%xmm11
  403f2e:	f2 44 0f 59 c6       	mulsd  %xmm6,%xmm8
  403f33:	f2 41 0f 2c d8       	cvttsd2si %xmm8,%ebx
  403f38:	f2 44 0f 2a d3       	cvtsi2sd %ebx,%xmm10
  403f3d:	66 45 0f 28 c2       	movapd %xmm10,%xmm8
  403f42:	66 45 0f 28 ea       	movapd %xmm10,%xmm13
  403f47:	f2 44 0f 59 c5       	mulsd  %xmm5,%xmm8
  403f4c:	f2 45 0f 5c d8       	subsd  %xmm8,%xmm11
  403f51:	66 45 0f 28 c3       	movapd %xmm11,%xmm8
  403f56:	66 45 0f 28 de       	movapd %xmm14,%xmm11
  403f5b:	f2 44 0f 59 de       	mulsd  %xmm6,%xmm11
  403f60:	f2 41 0f 2c db       	cvttsd2si %xmm11,%ebx
  403f65:	f2 44 0f 2a db       	cvtsi2sd %ebx,%xmm11
  403f6a:	66 45 0f 28 e3       	movapd %xmm11,%xmm12
  403f6f:	f2 45 0f 59 d8       	mulsd  %xmm8,%xmm11
  403f74:	f2 44 0f 59 e5       	mulsd  %xmm5,%xmm12
  403f79:	f2 45 0f 5c f4       	subsd  %xmm12,%xmm14
  403f7e:	f2 45 0f 59 ee       	mulsd  %xmm14,%xmm13
  403f83:	f2 45 0f 59 f0       	mulsd  %xmm8,%xmm14
  403f88:	f2 45 0f 58 eb       	addsd  %xmm11,%xmm13
  403f8d:	66 45 0f 28 dd       	movapd %xmm13,%xmm11
  403f92:	f2 44 0f 59 de       	mulsd  %xmm6,%xmm11
  403f97:	f2 41 0f 2c db       	cvttsd2si %xmm11,%ebx
  403f9c:	f2 44 0f 2a db       	cvtsi2sd %ebx,%xmm11
  403fa1:	f2 44 0f 59 dd       	mulsd  %xmm5,%xmm11
  403fa6:	f2 45 0f 5c eb       	subsd  %xmm11,%xmm13
  403fab:	f2 44 0f 59 ed       	mulsd  %xmm5,%xmm13
  403fb0:	f2 45 0f 58 ee       	addsd  %xmm14,%xmm13
  403fb5:	66 45 0f 28 dd       	movapd %xmm13,%xmm11
  403fba:	f2 44 0f 59 df       	mulsd  %xmm7,%xmm11
  403fbf:	f2 41 0f 2c db       	cvttsd2si %xmm11,%ebx
  403fc4:	f2 44 0f 2a db       	cvtsi2sd %ebx,%xmm11
  403fc9:	f2 45 0f 59 d9       	mulsd  %xmm9,%xmm11
  403fce:	f2 45 0f 5c eb       	subsd  %xmm11,%xmm13
  403fd3:	66 45 0f 28 dd       	movapd %xmm13,%xmm11
  403fd8:	66 45 0f 28 e5       	movapd %xmm13,%xmm12
  403fdd:	f2 44 0f 59 ef       	mulsd  %xmm7,%xmm13
  403fe2:	f2 44 0f 59 de       	mulsd  %xmm6,%xmm11
  403fe7:	f2 41 0f 2c db       	cvttsd2si %xmm11,%ebx
  403fec:	f2 44 0f 2a f3       	cvtsi2sd %ebx,%xmm14
  403ff1:	66 45 0f 28 de       	movapd %xmm14,%xmm11
  403ff6:	f2 45 0f 59 f0       	mulsd  %xmm8,%xmm14
  403ffb:	f2 44 0f 59 dd       	mulsd  %xmm5,%xmm11
  404000:	f2 45 0f 5c e3       	subsd  %xmm11,%xmm12
  404005:	66 45 0f 28 dc       	movapd %xmm12,%xmm11
  40400a:	66 45 0f 28 e2       	movapd %xmm10,%xmm12
  40400f:	f2 45 0f 59 e3       	mulsd  %xmm11,%xmm12
  404014:	f2 45 0f 59 d8       	mulsd  %xmm8,%xmm11
  404019:	f2 45 0f 58 e6       	addsd  %xmm14,%xmm12
  40401e:	66 45 0f 28 f4       	movapd %xmm12,%xmm14
  404023:	f2 44 0f 59 f6       	mulsd  %xmm6,%xmm14
  404028:	f2 41 0f 2c de       	cvttsd2si %xmm14,%ebx
  40402d:	f2 44 0f 2a f3       	cvtsi2sd %ebx,%xmm14
  404032:	f2 44 0f 59 f5       	mulsd  %xmm5,%xmm14
  404037:	f2 45 0f 5c e6       	subsd  %xmm14,%xmm12
  40403c:	f2 44 0f 59 e5       	mulsd  %xmm5,%xmm12
  404041:	f2 45 0f 58 e3       	addsd  %xmm11,%xmm12
  404046:	66 45 0f 28 dc       	movapd %xmm12,%xmm11
  40404b:	f2 44 0f 59 df       	mulsd  %xmm7,%xmm11
  404050:	f2 41 0f 2c db       	cvttsd2si %xmm11,%ebx
  404055:	f2 44 0f 2a db       	cvtsi2sd %ebx,%xmm11
  40405a:	f2 45 0f 59 d9       	mulsd  %xmm9,%xmm11
  40405f:	f2 45 0f 5c e3       	subsd  %xmm11,%xmm12
  404064:	66 45 0f 28 dc       	movapd %xmm12,%xmm11
  404069:	f2 44 0f 59 de       	mulsd  %xmm6,%xmm11
  40406e:	f2 41 0f 2c db       	cvttsd2si %xmm11,%ebx
  404073:	66 45 0f 28 dc       	movapd %xmm12,%xmm11
  404078:	f2 44 0f 59 e7       	mulsd  %xmm7,%xmm12
  40407d:	f2 45 0f 58 ec       	addsd  %xmm12,%xmm13
  404082:	f2 44 0f 2a f3       	cvtsi2sd %ebx,%xmm14
  404087:	66 45 0f 28 fe       	movapd %xmm14,%xmm15
  40408c:	f2 45 0f 59 f0       	mulsd  %xmm8,%xmm14
  404091:	f2 44 0f 59 fd       	mulsd  %xmm5,%xmm15
  404096:	f2 45 0f 5c df       	subsd  %xmm15,%xmm11
  40409b:	66 45 0f 28 fb       	movapd %xmm11,%xmm15
  4040a0:	66 45 0f 28 da       	movapd %xmm10,%xmm11
  4040a5:	f2 45 0f 59 df       	mulsd  %xmm15,%xmm11
  4040aa:	f2 45 0f 59 f8       	mulsd  %xmm8,%xmm15
  4040af:	f2 45 0f 58 de       	addsd  %xmm14,%xmm11
  4040b4:	66 45 0f 28 f3       	movapd %xmm11,%xmm14
  4040b9:	f2 44 0f 59 f6       	mulsd  %xmm6,%xmm14
  4040be:	f2 41 0f 2c de       	cvttsd2si %xmm14,%ebx
  4040c3:	f2 44 0f 2a f3       	cvtsi2sd %ebx,%xmm14
  4040c8:	f2 44 0f 59 f5       	mulsd  %xmm5,%xmm14
  4040cd:	f2 45 0f 5c de       	subsd  %xmm14,%xmm11
  4040d2:	f2 44 0f 59 dd       	mulsd  %xmm5,%xmm11
  4040d7:	f2 45 0f 58 df       	addsd  %xmm15,%xmm11
  4040dc:	66 45 0f 28 f3       	movapd %xmm11,%xmm14
  4040e1:	f2 44 0f 59 f7       	mulsd  %xmm7,%xmm14
  4040e6:	f2 41 0f 2c de       	cvttsd2si %xmm14,%ebx
  4040eb:	f2 44 0f 2a f3       	cvtsi2sd %ebx,%xmm14
  4040f0:	f2 45 0f 59 f1       	mulsd  %xmm9,%xmm14
  4040f5:	f2 45 0f 5c de       	subsd  %xmm14,%xmm11
  4040fa:	66 45 0f 28 f3       	movapd %xmm11,%xmm14
  4040ff:	f2 44 0f 59 f6       	mulsd  %xmm6,%xmm14
  404104:	f2 41 0f 2c de       	cvttsd2si %xmm14,%ebx
  404109:	f2 44 0f 2a fb       	cvtsi2sd %ebx,%xmm15
  40410e:	66 45 0f 28 f7       	movapd %xmm15,%xmm14
  404113:	f2 45 0f 59 f8       	mulsd  %xmm8,%xmm15
  404118:	f2 44 0f 59 f5       	mulsd  %xmm5,%xmm14
  40411d:	f2 44 0f 11 74 24 60 	movsd  %xmm14,0x60(%rsp)
  404124:	66 45 0f 28 f3       	movapd %xmm11,%xmm14
  404129:	f2 44 0f 59 df       	mulsd  %xmm7,%xmm11
  40412e:	f2 44 0f 5c 74 24 60 	subsd  0x60(%rsp),%xmm14
  404135:	f2 45 0f 58 eb       	addsd  %xmm11,%xmm13
  40413a:	f2 45 0f 59 d6       	mulsd  %xmm14,%xmm10
  40413f:	f2 45 0f 59 c6       	mulsd  %xmm14,%xmm8
  404144:	f2 45 0f 58 d7       	addsd  %xmm15,%xmm10
  404149:	f2 41 0f 59 f2       	mulsd  %xmm10,%xmm6
  40414e:	f2 0f 2c de          	cvttsd2si %xmm6,%ebx
  404152:	f2 0f 2a f3          	cvtsi2sd %ebx,%xmm6
  404156:	f2 0f 59 f5          	mulsd  %xmm5,%xmm6
  40415a:	f2 44 0f 5c d6       	subsd  %xmm6,%xmm10
  40415f:	f2 44 0f 59 d5       	mulsd  %xmm5,%xmm10
  404164:	f2 45 0f 58 d0       	addsd  %xmm8,%xmm10
  404169:	66 41 0f 28 ea       	movapd %xmm10,%xmm5
  40416e:	f2 0f 59 ef          	mulsd  %xmm7,%xmm5
  404172:	f2 0f 2c dd          	cvttsd2si %xmm5,%ebx
  404176:	f2 44 0f 2a f3       	cvtsi2sd %ebx,%xmm14
  40417b:	f2 45 0f 59 f1       	mulsd  %xmm9,%xmm14
  404180:	f2 45 0f 5c d6       	subsd  %xmm14,%xmm10
  404185:	f2 41 0f 59 fa       	mulsd  %xmm10,%xmm7
  40418a:	66 45 0f 28 f2       	movapd %xmm10,%xmm14
  40418f:	f2 44 0f 58 ef       	addsd  %xmm7,%xmm13
  404194:	f2 44 0f 59 2d 33 2d 	mulsd  0x2d33(%rip),%xmm13        # 406ed0 <_IO_stdin_used+0x268>
  40419b:	00 00 
  40419d:	f2 41 0f 2c dd       	cvttsd2si %xmm13,%ebx
  4041a2:	89 9a e0 42 6d 00    	mov    %ebx,0x6d42e0(%rdx)
  4041a8:	48 83 c2 04          	add    $0x4,%rdx
  4041ac:	48 81 fa 00 00 04 00 	cmp    $0x40000,%rdx
  4041b3:	74 2f                	je     4041e4 <main+0x8f4>
  4041b5:	85 c0                	test   %eax,%eax
  4041b7:	66 44 0f 28 c8       	movapd %xmm0,%xmm9
  4041bc:	66 0f 28 f9          	movapd %xmm1,%xmm7
  4041c0:	66 0f 28 ea          	movapd %xmm2,%xmm5
  4041c4:	66 0f 28 f4          	movapd %xmm4,%xmm6
  4041c8:	0f 84 ea fc ff ff    	je     403eb8 <main+0x5c8>
  4041ce:	66 41 0f 28 c1       	movapd %xmm9,%xmm0
  4041d3:	66 0f 28 cf          	movapd %xmm7,%xmm1
  4041d7:	66 0f 28 d5          	movapd %xmm5,%xmm2
  4041db:	66 0f 28 e6          	movapd %xmm6,%xmm4
  4041df:	e9 3c fd ff ff       	jmpq   403f20 <main+0x630>
  4041e4:	bf 01 00 00 00       	mov    $0x1,%edi
  4041e9:	f2 0f 11 25 97 8f 20 	movsd  %xmm4,0x208f97(%rip)        # 60d188 <R23.5927>
  4041f0:	00 
  4041f1:	89 35 99 8f 20 00    	mov    %esi,0x208f99(%rip)        # 60d190 <KS.5926>
  4041f7:	f2 0f 11 15 79 8f 20 	movsd  %xmm2,0x208f79(%rip)        # 60d178 <T23.5929>
  4041fe:	00 
  4041ff:	f2 0f 11 0d 79 8f 20 	movsd  %xmm1,0x208f79(%rip)        # 60d180 <R46.5928>
  404206:	00 
  404207:	f2 0f 11 05 61 8f 20 	movsd  %xmm0,0x208f61(%rip)        # 60d170 <T46.5930>
  40420e:	00 
  40420f:	e8 9c e5 ff ff       	callq  4027b0 <rank>
  404214:	83 3d 4d e0 20 00 00 	cmpl   $0x0,0x20e04d(%rip)        # 612268 <my_rank>
  40421b:	c7 05 5f e0 26 00 00 	movl   $0x0,0x26e05f(%rip)        # 672284 <passed_verification>
  404222:	00 00 00 
  404225:	0f 84 19 05 00 00    	je     404744 <main+0xe54>
  40422b:	31 ff                	xor    %edi,%edi
  40422d:	e8 de 08 00 00       	callq  404b10 <timer_clear>
  404232:	bf 01 00 00 00       	mov    $0x1,%edi
  404237:	e8 d4 08 00 00       	callq  404b10 <timer_clear>
  40423c:	bf 02 00 00 00       	mov    $0x2,%edi
  404241:	e8 ca 08 00 00       	callq  404b10 <timer_clear>
  404246:	bf 03 00 00 00       	mov    $0x3,%edi
  40424b:	e8 c0 08 00 00       	callq  404b10 <timer_clear>
  404250:	31 ff                	xor    %edi,%edi
  404252:	e8 09 09 00 00       	callq  404b60 <timer_start>
  404257:	83 3d 0a e0 20 00 00 	cmpl   $0x0,0x20e00a(%rip)        # 612268 <my_rank>
  40425e:	0f 84 ca 04 00 00    	je     40472e <main+0xe3e>
  404264:	bf 01 00 00 00       	mov    $0x1,%edi
  404269:	e8 42 e5 ff ff       	callq  4027b0 <rank>
  40426e:	83 3d f3 df 20 00 00 	cmpl   $0x0,0x20dff3(%rip)        # 612268 <my_rank>
  404275:	0f 84 9d 04 00 00    	je     404718 <main+0xe28>
  40427b:	bf 02 00 00 00       	mov    $0x2,%edi
  404280:	e8 2b e5 ff ff       	callq  4027b0 <rank>
  404285:	83 3d dc df 20 00 00 	cmpl   $0x0,0x20dfdc(%rip)        # 612268 <my_rank>
  40428c:	0f 84 70 04 00 00    	je     404702 <main+0xe12>
  404292:	bf 03 00 00 00       	mov    $0x3,%edi
  404297:	e8 14 e5 ff ff       	callq  4027b0 <rank>
  40429c:	83 3d c5 df 20 00 00 	cmpl   $0x0,0x20dfc5(%rip)        # 612268 <my_rank>
  4042a3:	0f 84 43 04 00 00    	je     4046ec <main+0xdfc>
  4042a9:	bf 04 00 00 00       	mov    $0x4,%edi
  4042ae:	e8 fd e4 ff ff       	callq  4027b0 <rank>
  4042b3:	83 3d ae df 20 00 00 	cmpl   $0x0,0x20dfae(%rip)        # 612268 <my_rank>
  4042ba:	0f 84 16 04 00 00    	je     4046d6 <main+0xde6>
  4042c0:	bf 05 00 00 00       	mov    $0x5,%edi
  4042c5:	e8 e6 e4 ff ff       	callq  4027b0 <rank>
  4042ca:	83 3d 97 df 20 00 00 	cmpl   $0x0,0x20df97(%rip)        # 612268 <my_rank>
  4042d1:	0f 84 e9 03 00 00    	je     4046c0 <main+0xdd0>
  4042d7:	bf 06 00 00 00       	mov    $0x6,%edi
  4042dc:	e8 cf e4 ff ff       	callq  4027b0 <rank>
  4042e1:	83 3d 80 df 20 00 00 	cmpl   $0x0,0x20df80(%rip)        # 612268 <my_rank>
  4042e8:	0f 84 bc 03 00 00    	je     4046aa <main+0xdba>
  4042ee:	bf 07 00 00 00       	mov    $0x7,%edi
  4042f3:	e8 b8 e4 ff ff       	callq  4027b0 <rank>
  4042f8:	83 3d 69 df 20 00 00 	cmpl   $0x0,0x20df69(%rip)        # 612268 <my_rank>
  4042ff:	0f 84 8f 03 00 00    	je     404694 <main+0xda4>
  404305:	bf 08 00 00 00       	mov    $0x8,%edi
  40430a:	e8 a1 e4 ff ff       	callq  4027b0 <rank>
  40430f:	83 3d 52 df 20 00 00 	cmpl   $0x0,0x20df52(%rip)        # 612268 <my_rank>
  404316:	0f 84 62 03 00 00    	je     40467e <main+0xd8e>
  40431c:	bf 09 00 00 00       	mov    $0x9,%edi
  404321:	e8 8a e4 ff ff       	callq  4027b0 <rank>
  404326:	83 3d 3b df 20 00 00 	cmpl   $0x0,0x20df3b(%rip)        # 612268 <my_rank>
  40432d:	0f 84 35 03 00 00    	je     404668 <main+0xd78>
  404333:	bf 0a 00 00 00       	mov    $0xa,%edi
  404338:	e8 73 e4 ff ff       	callq  4027b0 <rank>
  40433d:	31 ff                	xor    %edi,%edi
  40433f:	e8 ec 07 00 00       	callq  404b30 <timer_stop>
  404344:	31 ff                	xor    %edi,%edi
  404346:	e8 d5 07 00 00       	callq  404b20 <timer_read>
  40434b:	48 8d b4 24 48 01 00 	lea    0x148(%rsp),%rsi
  404352:	00 
  404353:	48 8d bc 24 50 01 00 	lea    0x150(%rsp),%rdi
  40435a:	00 
  40435b:	45 31 c9             	xor    %r9d,%r9d
  40435e:	41 b8 40 9f 60 00    	mov    $0x609f40,%r8d
  404364:	b9 40 b1 60 00       	mov    $0x60b140,%ecx
  404369:	ba 01 00 00 00       	mov    $0x1,%edx
  40436e:	f2 0f 11 84 24 50 01 	movsd  %xmm0,0x150(%rsp)
  404375:	00 00 
  404377:	48 c7 04 24 40 b5 60 	movq   $0x60b540,(%rsp)
  40437e:	00 
  40437f:	e8 7c 15 00 00       	callq  405900 <MPI_Reduce>
  404384:	e8 e7 eb ff ff       	callq  402f70 <full_verify>
  404389:	8b 05 f5 de 26 00    	mov    0x26def5(%rip),%eax        # 672284 <passed_verification>
  40438f:	48 8d bc 24 5c 01 00 	lea    0x15c(%rsp),%rdi
  404396:	00 
  404397:	45 31 c9             	xor    %r9d,%r9d
  40439a:	41 b8 40 bb 60 00    	mov    $0x60bb40,%r8d
  4043a0:	b9 40 87 60 00       	mov    $0x608740,%ecx
  4043a5:	ba 01 00 00 00       	mov    $0x1,%edx
  4043aa:	be 84 22 67 00       	mov    $0x672284,%esi
  4043af:	48 c7 04 24 40 b5 60 	movq   $0x60b540,(%rsp)
  4043b6:	00 
  4043b7:	89 84 24 5c 01 00 00 	mov    %eax,0x15c(%rsp)
  4043be:	e8 3d 15 00 00       	callq  405900 <MPI_Reduce>
  4043c3:	83 3d 9e de 20 00 00 	cmpl   $0x0,0x20de9e(%rip)        # 612268 <my_rank>
  4043ca:	0f 85 bc 00 00 00    	jne    40448c <main+0xb9c>
  4043d0:	8b 15 32 ae 20 00    	mov    0x20ae32(%rip),%edx        # 60f208 <comm_size>
  4043d6:	8d 42 32             	lea    0x32(%rdx),%eax
  4043d9:	3b 05 a5 de 26 00    	cmp    0x26dea5(%rip),%eax        # 672284 <passed_verification>
  4043df:	74 0c                	je     4043ed <main+0xafd>
  4043e1:	c7 05 99 de 26 00 00 	movl   $0x0,0x26de99(%rip)        # 672284 <passed_verification>
  4043e8:	00 00 00 
  4043eb:	31 c0                	xor    %eax,%eax
  4043ed:	f2 0f 10 84 24 48 01 	movsd  0x148(%rsp),%xmm0
  4043f4:	00 00 
  4043f6:	89 54 24 08          	mov    %edx,0x8(%rsp)
  4043fa:	f2 0f 10 0d e6 2a 00 	movsd  0x2ae6(%rip),%xmm1        # 406ee8 <_IO_stdin_used+0x280>
  404401:	00 
  404402:	41 b9 0a 00 00 00    	mov    $0xa,%r9d
  404408:	45 31 c0             	xor    %r8d,%r8d
  40440b:	b9 01 00 00 00       	mov    $0x1,%ecx
  404410:	ba 00 00 10 00       	mov    $0x100000,%edx
  404415:	f2 0f 5e c8          	divsd  %xmm0,%xmm1
  404419:	be 57 00 00 00       	mov    $0x57,%esi
  40441e:	bf 45 6e 40 00       	mov    $0x406e45,%edi
  404423:	48 c7 44 24 58 48 6e 	movq   $0x406e48,0x58(%rsp)
  40442a:	40 00 
  40442c:	48 c7 44 24 50 48 6e 	movq   $0x406e48,0x50(%rsp)
  404433:	40 00 
  404435:	48 c7 44 24 48 4c 6e 	movq   $0x406e4c,0x48(%rsp)
  40443c:	40 00 
  40443e:	48 c7 44 24 40 61 6e 	movq   $0x406e61,0x40(%rsp)
  404445:	40 00 
  404447:	48 c7 44 24 38 78 6e 	movq   $0x406e78,0x38(%rsp)
  40444e:	40 00 
  404450:	48 c7 44 24 30 81 6e 	movq   $0x406e81,0x30(%rsp)
  404457:	40 00 
  404459:	48 c7 44 24 28 8b 6e 	movq   $0x406e8b,0x28(%rsp)
  404460:	40 00 
  404462:	48 c7 44 24 20 97 6e 	movq   $0x406e97,0x20(%rsp)
  404469:	40 00 
  40446b:	89 44 24 18          	mov    %eax,0x18(%rsp)
  40446f:	48 c7 44 24 10 9d 6e 	movq   $0x406e9d,0x10(%rsp)
  404476:	40 00 
  404478:	c7 04 24 10 00 00 00 	movl   $0x10,(%rsp)
  40447f:	f2 0f 5e 0d 69 2a 00 	divsd  0x2a69(%rip),%xmm1        # 406ef0 <_IO_stdin_used+0x288>
  404486:	00 
  404487:	e8 c4 03 00 00       	callq  404850 <c_print_results>
  40448c:	83 3d ed dd 26 00 00 	cmpl   $0x0,0x26dded(%rip)        # 672280 <timeron>
  404493:	0f 84 e4 00 00 00    	je     40457d <main+0xc8d>
  404499:	31 ff                	xor    %edi,%edi
  40449b:	4c 8d a4 24 20 01 00 	lea    0x120(%rsp),%r12
  4044a2:	00 
  4044a3:	48 8d 9c 24 00 01 00 	lea    0x100(%rsp),%rbx
  4044aa:	00 
  4044ab:	e8 70 06 00 00       	callq  404b20 <timer_read>
  4044b0:	bf 01 00 00 00       	mov    $0x1,%edi
  4044b5:	f2 0f 11 84 24 20 01 	movsd  %xmm0,0x120(%rsp)
  4044bc:	00 00 
  4044be:	48 8d ac 24 e0 00 00 	lea    0xe0(%rsp),%rbp
  4044c5:	00 
  4044c6:	e8 55 06 00 00       	callq  404b20 <timer_read>
  4044cb:	bf 02 00 00 00       	mov    $0x2,%edi
  4044d0:	f2 0f 11 84 24 28 01 	movsd  %xmm0,0x128(%rsp)
  4044d7:	00 00 
  4044d9:	4c 8d ac 24 c0 00 00 	lea    0xc0(%rsp),%r13
  4044e0:	00 
  4044e1:	e8 3a 06 00 00       	callq  404b20 <timer_read>
  4044e6:	bf 03 00 00 00       	mov    $0x3,%edi
  4044eb:	f2 0f 11 84 24 30 01 	movsd  %xmm0,0x130(%rsp)
  4044f2:	00 00 
  4044f4:	e8 27 06 00 00       	callq  404b20 <timer_read>
  4044f9:	45 31 c9             	xor    %r9d,%r9d
  4044fc:	41 b8 40 8b 60 00    	mov    $0x608b40,%r8d
  404502:	b9 40 b1 60 00       	mov    $0x60b140,%ecx
  404507:	ba 04 00 00 00       	mov    $0x4,%edx
  40450c:	48 89 de             	mov    %rbx,%rsi
  40450f:	4c 89 e7             	mov    %r12,%rdi
  404512:	f2 0f 11 84 24 38 01 	movsd  %xmm0,0x138(%rsp)
  404519:	00 00 
  40451b:	48 c7 04 24 40 b5 60 	movq   $0x60b540,(%rsp)
  404522:	00 
  404523:	e8 d8 13 00 00       	callq  405900 <MPI_Reduce>
  404528:	45 31 c9             	xor    %r9d,%r9d
  40452b:	41 b8 40 bb 60 00    	mov    $0x60bb40,%r8d
  404531:	b9 40 b1 60 00       	mov    $0x60b140,%ecx
  404536:	ba 04 00 00 00       	mov    $0x4,%edx
  40453b:	48 89 ee             	mov    %rbp,%rsi
  40453e:	4c 89 e7             	mov    %r12,%rdi
  404541:	48 c7 04 24 40 b5 60 	movq   $0x60b540,(%rsp)
  404548:	00 
  404549:	e8 b2 13 00 00       	callq  405900 <MPI_Reduce>
  40454e:	45 31 c9             	xor    %r9d,%r9d
  404551:	41 b8 40 9f 60 00    	mov    $0x609f40,%r8d
  404557:	b9 40 b1 60 00       	mov    $0x60b140,%ecx
  40455c:	ba 04 00 00 00       	mov    $0x4,%edx
  404561:	4c 89 ee             	mov    %r13,%rsi
  404564:	4c 89 e7             	mov    %r12,%rdi
  404567:	48 c7 04 24 40 b5 60 	movq   $0x60b540,(%rsp)
  40456e:	00 
  40456f:	e8 8c 13 00 00       	callq  405900 <MPI_Reduce>
  404574:	83 3d ed dc 20 00 00 	cmpl   $0x0,0x20dced(%rip)        # 612268 <my_rank>
  40457b:	74 19                	je     404596 <main+0xca6>
  40457d:	e8 5e df ff ff       	callq  4024e0 <MPI_Finalize@plt>
  404582:	48 81 c4 68 01 00 00 	add    $0x168,%rsp
  404589:	31 c0                	xor    %eax,%eax
  40458b:	5b                   	pop    %rbx
  40458c:	5d                   	pop    %rbp
  40458d:	41 5c                	pop    %r12
  40458f:	41 5d                	pop    %r13
  404591:	41 5e                	pop    %r14
  404593:	41 5f                	pop    %r15
  404595:	c3                   	retq   
  404596:	4c 8d a4 24 90 00 00 	lea    0x90(%rsp),%r12
  40459d:	00 
  40459e:	c7 84 24 90 00 00 00 	movl   $0x61746f74,0x90(%rsp)
  4045a5:	74 6f 74 61 
  4045a9:	66 c7 84 24 94 00 00 	movw   $0x6c,0x94(%rsp)
  4045b0:	00 6c 00 
  4045b3:	c7 84 24 99 00 00 00 	movl   $0x6d6f6372,0x99(%rsp)
  4045ba:	72 63 6f 6d 
  4045be:	c7 84 24 a2 00 00 00 	movl   $0x6d6f6372,0xa2(%rsp)
  4045c5:	72 63 6f 6d 
  4045c9:	be a9 6e 40 00       	mov    $0x406ea9,%esi
  4045ce:	49 8d 44 24 1b       	lea    0x1b(%r12),%rax
  4045d3:	66 41 c7 44 24 0d 70 	movw   $0x70,0xd(%r12)
  4045da:	00 
  4045db:	66 41 c7 44 24 16 6d 	movw   $0x6d,0x16(%r12)
  4045e2:	00 
  4045e3:	b9 07 00 00 00       	mov    $0x7,%ecx
  4045e8:	4d 89 e7             	mov    %r12,%r15
  4045eb:	45 31 f6             	xor    %r14d,%r14d
  4045ee:	48 89 c7             	mov    %rax,%rdi
  4045f1:	31 c0                	xor    %eax,%eax
  4045f3:	45 31 e4             	xor    %r12d,%r12d
  4045f6:	f3 a4                	rep movsb %ds:(%rsi),%es:(%rdi)
  4045f8:	8b 35 0a ac 20 00    	mov    0x20ac0a(%rip),%esi        # 60f208 <comm_size>
  4045fe:	bf b0 6e 40 00       	mov    $0x406eb0,%edi
  404603:	e8 98 dd ff ff       	callq  4023a0 <printf@plt>
  404608:	bf 80 6d 40 00       	mov    $0x406d80,%edi
  40460d:	e8 be dd ff ff       	callq  4023d0 <puts@plt>
  404612:	f2 42 0f 10 54 25 00 	movsd  0x0(%rbp,%r12,1),%xmm2
  404619:	f2 0f 2a 0d e7 ab 20 	cvtsi2sdl 0x20abe7(%rip),%xmm1        # 60f208 <comm_size>
  404620:	00 
  404621:	41 83 c6 01          	add    $0x1,%r14d
  404625:	f2 42 0f 10 04 23    	movsd  (%rbx,%r12,1),%xmm0
  40462b:	4c 89 fa             	mov    %r15,%rdx
  40462e:	f2 0f 5e d1          	divsd  %xmm1,%xmm2
  404632:	44 89 f6             	mov    %r14d,%esi
  404635:	bf a8 6d 40 00       	mov    $0x406da8,%edi
  40463a:	b8 03 00 00 00       	mov    $0x3,%eax
  40463f:	49 83 c7 09          	add    $0x9,%r15
  404643:	f2 43 0f 10 4c 25 00 	movsd  0x0(%r13,%r12,1),%xmm1
  40464a:	49 83 c4 08          	add    $0x8,%r12
  40464e:	e8 4d dd ff ff       	callq  4023a0 <printf@plt>
  404653:	41 83 fe 04          	cmp    $0x4,%r14d
  404657:	75 b9                	jne    404612 <main+0xd22>
  404659:	bf 0a 00 00 00       	mov    $0xa,%edi
  40465e:	e8 ad dd ff ff       	callq  402410 <putchar@plt>
  404663:	e9 15 ff ff ff       	jmpq   40457d <main+0xc8d>
  404668:	be 0a 00 00 00       	mov    $0xa,%esi
  40466d:	bf 39 6e 40 00       	mov    $0x406e39,%edi
  404672:	31 c0                	xor    %eax,%eax
  404674:	e8 27 dd ff ff       	callq  4023a0 <printf@plt>
  404679:	e9 b5 fc ff ff       	jmpq   404333 <main+0xa43>
  40467e:	be 09 00 00 00       	mov    $0x9,%esi
  404683:	bf 39 6e 40 00       	mov    $0x406e39,%edi
  404688:	31 c0                	xor    %eax,%eax
  40468a:	e8 11 dd ff ff       	callq  4023a0 <printf@plt>
  40468f:	e9 88 fc ff ff       	jmpq   40431c <main+0xa2c>
  404694:	be 08 00 00 00       	mov    $0x8,%esi
  404699:	bf 39 6e 40 00       	mov    $0x406e39,%edi
  40469e:	31 c0                	xor    %eax,%eax
  4046a0:	e8 fb dc ff ff       	callq  4023a0 <printf@plt>
  4046a5:	e9 5b fc ff ff       	jmpq   404305 <main+0xa15>
  4046aa:	be 07 00 00 00       	mov    $0x7,%esi
  4046af:	bf 39 6e 40 00       	mov    $0x406e39,%edi
  4046b4:	31 c0                	xor    %eax,%eax
  4046b6:	e8 e5 dc ff ff       	callq  4023a0 <printf@plt>
  4046bb:	e9 2e fc ff ff       	jmpq   4042ee <main+0x9fe>
  4046c0:	be 06 00 00 00       	mov    $0x6,%esi
  4046c5:	bf 39 6e 40 00       	mov    $0x406e39,%edi
  4046ca:	31 c0                	xor    %eax,%eax
  4046cc:	e8 cf dc ff ff       	callq  4023a0 <printf@plt>
  4046d1:	e9 01 fc ff ff       	jmpq   4042d7 <main+0x9e7>
  4046d6:	be 05 00 00 00       	mov    $0x5,%esi
  4046db:	bf 39 6e 40 00       	mov    $0x406e39,%edi
  4046e0:	31 c0                	xor    %eax,%eax
  4046e2:	e8 b9 dc ff ff       	callq  4023a0 <printf@plt>
  4046e7:	e9 d4 fb ff ff       	jmpq   4042c0 <main+0x9d0>
  4046ec:	be 04 00 00 00       	mov    $0x4,%esi
  4046f1:	bf 39 6e 40 00       	mov    $0x406e39,%edi
  4046f6:	31 c0                	xor    %eax,%eax
  4046f8:	e8 a3 dc ff ff       	callq  4023a0 <printf@plt>
  4046fd:	e9 a7 fb ff ff       	jmpq   4042a9 <main+0x9b9>
  404702:	be 03 00 00 00       	mov    $0x3,%esi
  404707:	bf 39 6e 40 00       	mov    $0x406e39,%edi
  40470c:	31 c0                	xor    %eax,%eax
  40470e:	e8 8d dc ff ff       	callq  4023a0 <printf@plt>
  404713:	e9 7a fb ff ff       	jmpq   404292 <main+0x9a2>
  404718:	be 02 00 00 00       	mov    $0x2,%esi
  40471d:	bf 39 6e 40 00       	mov    $0x406e39,%edi
  404722:	31 c0                	xor    %eax,%eax
  404724:	e8 77 dc ff ff       	callq  4023a0 <printf@plt>
  404729:	e9 4d fb ff ff       	jmpq   40427b <main+0x98b>
  40472e:	be 01 00 00 00       	mov    $0x1,%esi
  404733:	bf 39 6e 40 00       	mov    $0x406e39,%edi
  404738:	31 c0                	xor    %eax,%eax
  40473a:	e8 61 dc ff ff       	callq  4023a0 <printf@plt>
  40473f:	e9 20 fb ff ff       	jmpq   404264 <main+0x974>
  404744:	bf 2b 6e 40 00       	mov    $0x406e2b,%edi
  404749:	e8 82 dc ff ff       	callq  4023d0 <puts@plt>
  40474e:	66 90                	xchg   %ax,%ax
  404750:	e9 d6 fa ff ff       	jmpq   40422b <main+0x93b>
  404755:	f2 0f 11 1d 2b 8a 20 	movsd  %xmm3,0x208a2b(%rip)        # 60d188 <R23.5927>
  40475c:	00 
  40475d:	89 0d 2d 8a 20 00    	mov    %ecx,0x208a2d(%rip)        # 60d190 <KS.5926>
  404763:	f2 0f 11 15 0d 8a 20 	movsd  %xmm2,0x208a0d(%rip)        # 60d178 <T23.5929>
  40476a:	00 
  40476b:	f2 0f 11 0d 0d 8a 20 	movsd  %xmm1,0x208a0d(%rip)        # 60d180 <R46.5928>
  404772:	00 
  404773:	f2 0f 11 05 f5 89 20 	movsd  %xmm0,0x2089f5(%rip)        # 60d170 <T46.5930>
  40477a:	00 
  40477b:	e9 f0 f6 ff ff       	jmpq   403e70 <main+0x580>
  404780:	bf f8 6c 40 00       	mov    $0x406cf8,%edi
  404785:	e8 46 dc ff ff       	callq  4023d0 <puts@plt>
  40478a:	ba 57 00 00 00       	mov    $0x57,%edx
  40478f:	be 00 00 10 00       	mov    $0x100000,%esi
  404794:	bf d4 6d 40 00       	mov    $0x406dd4,%edi
  404799:	31 c0                	xor    %eax,%eax
  40479b:	e8 00 dc ff ff       	callq  4023a0 <printf@plt>
  4047a0:	be 0a 00 00 00       	mov    $0xa,%esi
  4047a5:	bf ed 6d 40 00       	mov    $0x406ded,%edi
  4047aa:	31 c0                	xor    %eax,%eax
  4047ac:	e8 ef db ff ff       	callq  4023a0 <printf@plt>
  4047b1:	8b 35 51 aa 20 00    	mov    0x20aa51(%rip),%esi        # 60f208 <comm_size>
  4047b7:	bf 00 6e 40 00       	mov    $0x406e00,%edi
  4047bc:	31 c0                	xor    %eax,%eax
  4047be:	e8 dd db ff ff       	callq  4023a0 <printf@plt>
  4047c3:	be 1e 6e 40 00       	mov    $0x406e1e,%esi
  4047c8:	bf 20 6e 40 00       	mov    $0x406e20,%edi
  4047cd:	e8 4e dc ff ff       	callq  402420 <fopen@plt>
  4047d2:	48 85 c0             	test   %rax,%rax
  4047d5:	c7 05 a1 da 26 00 00 	movl   $0x0,0x26daa1(%rip)        # 672280 <timeron>
  4047dc:	00 00 00 
  4047df:	0f 84 f7 f1 ff ff    	je     4039dc <main+0xec>
  4047e5:	48 89 c7             	mov    %rax,%rdi
  4047e8:	c7 05 8e da 26 00 01 	movl   $0x1,0x26da8e(%rip)        # 672280 <timeron>
  4047ef:	00 00 00 
  4047f2:	e8 f9 dc ff ff       	callq  4024f0 <fclose@plt>
  4047f7:	e9 e0 f1 ff ff       	jmpq   4039dc <main+0xec>
  4047fc:	8b 05 8e 89 20 00    	mov    0x20898e(%rip),%eax        # 60d190 <KS.5926>
  404802:	f2 0f 10 05 ce 26 00 	movsd  0x26ce(%rip),%xmm0        # 406ed8 <_IO_stdin_used+0x270>
  404809:	00 
  40480a:	f2 0f 11 44 24 78    	movsd  %xmm0,0x78(%rsp)
  404810:	66 0f 28 f8          	movapd %xmm0,%xmm7
  404814:	89 c3                	mov    %eax,%ebx
  404816:	e9 d4 f3 ff ff       	jmpq   403bef <main+0x2ff>
  40481b:	83 3d 46 da 20 00 00 	cmpl   $0x0,0x20da46(%rip)        # 612268 <my_rank>
  404822:	75 11                	jne    404835 <main+0xf45>
  404824:	be 10 00 00 00       	mov    $0x10,%esi
  404829:	bf 28 6d 40 00       	mov    $0x406d28,%edi
  40482e:	31 c0                	xor    %eax,%eax
  404830:	e8 6b db ff ff       	callq  4023a0 <printf@plt>
  404835:	e8 a6 dc ff ff       	callq  4024e0 <MPI_Finalize@plt>
  40483a:	bf 01 00 00 00       	mov    $0x1,%edi
  40483f:	e8 ac db ff ff       	callq  4023f0 <exit@plt>
  404844:	90                   	nop
  404845:	90                   	nop
  404846:	90                   	nop
  404847:	90                   	nop
  404848:	90                   	nop
  404849:	90                   	nop
  40484a:	90                   	nop
  40484b:	90                   	nop
  40484c:	90                   	nop
  40484d:	90                   	nop
  40484e:	90                   	nop
  40484f:	90                   	nop

0000000000404850 <c_print_results>:
  404850:	41 57                	push   %r15
  404852:	45 89 cf             	mov    %r9d,%r15d
  404855:	41 56                	push   %r14
  404857:	45 89 c6             	mov    %r8d,%r14d
  40485a:	41 55                	push   %r13
  40485c:	41 54                	push   %r12
  40485e:	55                   	push   %rbp
  40485f:	53                   	push   %rbx
  404860:	89 cb                	mov    %ecx,%ebx
  404862:	48 83 ec 68          	sub    $0x68,%rsp
  404866:	48 8b 84 24 b0 00 00 	mov    0xb0(%rsp),%rax
  40486d:	00 
  40486e:	40 88 74 24 0b       	mov    %sil,0xb(%rsp)
  404873:	48 89 fe             	mov    %rdi,%rsi
  404876:	bf f8 6e 40 00       	mov    $0x406ef8,%edi
  40487b:	89 54 24 0c          	mov    %edx,0xc(%rsp)
  40487f:	f2 0f 11 44 24 10    	movsd  %xmm0,0x10(%rsp)
  404885:	f2 0f 11 0c 24       	movsd  %xmm1,(%rsp)
  40488a:	44 8b a4 24 a0 00 00 	mov    0xa0(%rsp),%r12d
  404891:	00 
  404892:	8b ac 24 a8 00 00 00 	mov    0xa8(%rsp),%ebp
  404899:	48 89 44 24 18       	mov    %rax,0x18(%rsp)
  40489e:	48 8b 84 24 c0 00 00 	mov    0xc0(%rsp),%rax
  4048a5:	00 
  4048a6:	44 8b ac 24 b8 00 00 	mov    0xb8(%rsp),%r13d
  4048ad:	00 
  4048ae:	48 89 44 24 20       	mov    %rax,0x20(%rsp)
  4048b3:	48 8b 84 24 c8 00 00 	mov    0xc8(%rsp),%rax
  4048ba:	00 
  4048bb:	48 89 44 24 28       	mov    %rax,0x28(%rsp)
  4048c0:	48 8b 84 24 d0 00 00 	mov    0xd0(%rsp),%rax
  4048c7:	00 
  4048c8:	48 89 44 24 30       	mov    %rax,0x30(%rsp)
  4048cd:	48 8b 84 24 d8 00 00 	mov    0xd8(%rsp),%rax
  4048d4:	00 
  4048d5:	48 89 44 24 38       	mov    %rax,0x38(%rsp)
  4048da:	48 8b 84 24 e0 00 00 	mov    0xe0(%rsp),%rax
  4048e1:	00 
  4048e2:	48 89 44 24 40       	mov    %rax,0x40(%rsp)
  4048e7:	48 8b 84 24 e8 00 00 	mov    0xe8(%rsp),%rax
  4048ee:	00 
  4048ef:	48 89 44 24 48       	mov    %rax,0x48(%rsp)
  4048f4:	48 8b 84 24 f0 00 00 	mov    0xf0(%rsp),%rax
  4048fb:	00 
  4048fc:	48 89 44 24 50       	mov    %rax,0x50(%rsp)
  404901:	48 8b 84 24 f8 00 00 	mov    0xf8(%rsp),%rax
  404908:	00 
  404909:	48 89 44 24 58       	mov    %rax,0x58(%rsp)
  40490e:	31 c0                	xor    %eax,%eax
  404910:	e8 8b da ff ff       	callq  4023a0 <printf@plt>
  404915:	0f be 74 24 0b       	movsbl 0xb(%rsp),%esi
  40491a:	31 c0                	xor    %eax,%eax
  40491c:	bf f8 6f 40 00       	mov    $0x406ff8,%edi
  404921:	e8 7a da ff ff       	callq  4023a0 <printf@plt>
  404926:	45 85 f6             	test   %r14d,%r14d
  404929:	0f 85 a1 01 00 00    	jne    404ad0 <c_print_results+0x280>
  40492f:	85 db                	test   %ebx,%ebx
  404931:	48 63 74 24 0c       	movslq 0xc(%rsp),%rsi
  404936:	0f 85 74 01 00 00    	jne    404ab0 <c_print_results+0x260>
  40493c:	bf 28 70 40 00       	mov    $0x407028,%edi
  404941:	31 c0                	xor    %eax,%eax
  404943:	e8 58 da ff ff       	callq  4023a0 <printf@plt>
  404948:	44 89 fe             	mov    %r15d,%esi
  40494b:	bf 80 70 40 00       	mov    $0x407080,%edi
  404950:	31 c0                	xor    %eax,%eax
  404952:	e8 49 da ff ff       	callq  4023a0 <printf@plt>
  404957:	f2 0f 10 44 24 10    	movsd  0x10(%rsp),%xmm0
  40495d:	bf a8 70 40 00       	mov    $0x4070a8,%edi
  404962:	b8 01 00 00 00       	mov    $0x1,%eax
  404967:	e8 34 da ff ff       	callq  4023a0 <printf@plt>
  40496c:	31 c0                	xor    %eax,%eax
  40496e:	89 ee                	mov    %ebp,%esi
  404970:	bf d0 70 40 00       	mov    $0x4070d0,%edi
  404975:	e8 26 da ff ff       	callq  4023a0 <printf@plt>
  40497a:	45 85 e4             	test   %r12d,%r12d
  40497d:	0f 85 6d 01 00 00    	jne    404af0 <c_print_results+0x2a0>
  404983:	f2 0f 10 04 24       	movsd  (%rsp),%xmm0
  404988:	bf 20 71 40 00       	mov    $0x407120,%edi
  40498d:	b8 01 00 00 00       	mov    $0x1,%eax
  404992:	e8 09 da ff ff       	callq  4023a0 <printf@plt>
  404997:	f3 0f 2a c5          	cvtsi2ss %ebp,%xmm0
  40499b:	bf 48 71 40 00       	mov    $0x407148,%edi
  4049a0:	f2 0f 10 0c 24       	movsd  (%rsp),%xmm1
  4049a5:	b8 01 00 00 00       	mov    $0x1,%eax
  4049aa:	0f 14 c0             	unpcklps %xmm0,%xmm0
  4049ad:	0f 5a c0             	cvtps2pd %xmm0,%xmm0
  4049b0:	f2 0f 5e c8          	divsd  %xmm0,%xmm1
  4049b4:	66 0f 28 c1          	movapd %xmm1,%xmm0
  4049b8:	e8 e3 d9 ff ff       	callq  4023a0 <printf@plt>
  4049bd:	48 8b 74 24 18       	mov    0x18(%rsp),%rsi
  4049c2:	31 c0                	xor    %eax,%eax
  4049c4:	bf 13 6f 40 00       	mov    $0x406f13,%edi
  4049c9:	e8 d2 d9 ff ff       	callq  4023a0 <printf@plt>
  4049ce:	45 85 ed             	test   %r13d,%r13d
  4049d1:	0f 85 e9 00 00 00    	jne    404ac0 <c_print_results+0x270>
  4049d7:	bf a0 71 40 00       	mov    $0x4071a0,%edi
  4049dc:	e8 ef d9 ff ff       	callq  4023d0 <puts@plt>
  4049e1:	48 8b 74 24 20       	mov    0x20(%rsp),%rsi
  4049e6:	bf d0 71 40 00       	mov    $0x4071d0,%edi
  4049eb:	31 c0                	xor    %eax,%eax
  4049ed:	e8 ae d9 ff ff       	callq  4023a0 <printf@plt>
  4049f2:	48 8b 74 24 28       	mov    0x28(%rsp),%rsi
  4049f7:	bf f8 71 40 00       	mov    $0x4071f8,%edi
  4049fc:	31 c0                	xor    %eax,%eax
  4049fe:	e8 9d d9 ff ff       	callq  4023a0 <printf@plt>
  404a03:	bf 2c 6f 40 00       	mov    $0x406f2c,%edi
  404a08:	e8 c3 d9 ff ff       	callq  4023d0 <puts@plt>
  404a0d:	48 8b 74 24 30       	mov    0x30(%rsp),%rsi
  404a12:	bf 3f 6f 40 00       	mov    $0x406f3f,%edi
  404a17:	31 c0                	xor    %eax,%eax
  404a19:	e8 82 d9 ff ff       	callq  4023a0 <printf@plt>
  404a1e:	48 8b 74 24 38       	mov    0x38(%rsp),%rsi
  404a23:	bf 56 6f 40 00       	mov    $0x406f56,%edi
  404a28:	31 c0                	xor    %eax,%eax
  404a2a:	e8 71 d9 ff ff       	callq  4023a0 <printf@plt>
  404a2f:	48 8b 74 24 40       	mov    0x40(%rsp),%rsi
  404a34:	bf 6d 6f 40 00       	mov    $0x406f6d,%edi
  404a39:	31 c0                	xor    %eax,%eax
  404a3b:	e8 60 d9 ff ff       	callq  4023a0 <printf@plt>
  404a40:	48 8b 74 24 48       	mov    0x48(%rsp),%rsi
  404a45:	bf 84 6f 40 00       	mov    $0x406f84,%edi
  404a4a:	31 c0                	xor    %eax,%eax
  404a4c:	e8 4f d9 ff ff       	callq  4023a0 <printf@plt>
  404a51:	48 8b 74 24 50       	mov    0x50(%rsp),%rsi
  404a56:	bf 9b 6f 40 00       	mov    $0x406f9b,%edi
  404a5b:	31 c0                	xor    %eax,%eax
  404a5d:	e8 3e d9 ff ff       	callq  4023a0 <printf@plt>
  404a62:	48 8b 74 24 58       	mov    0x58(%rsp),%rsi
  404a67:	bf b2 6f 40 00       	mov    $0x406fb2,%edi
  404a6c:	31 c0                	xor    %eax,%eax
  404a6e:	e8 2d d9 ff ff       	callq  4023a0 <printf@plt>
  404a73:	bf f1 6f 40 00       	mov    $0x406ff1,%edi
  404a78:	e8 53 d9 ff ff       	callq  4023d0 <puts@plt>
  404a7d:	bf 20 72 40 00       	mov    $0x407220,%edi
  404a82:	e8 49 d9 ff ff       	callq  4023d0 <puts@plt>
  404a87:	bf c9 6f 40 00       	mov    $0x406fc9,%edi
  404a8c:	e8 3f d9 ff ff       	callq  4023d0 <puts@plt>
  404a91:	48 83 c4 68          	add    $0x68,%rsp
  404a95:	bf df 6f 40 00       	mov    $0x406fdf,%edi
  404a9a:	5b                   	pop    %rbx
  404a9b:	5d                   	pop    %rbp
  404a9c:	41 5c                	pop    %r12
  404a9e:	41 5d                	pop    %r13
  404aa0:	41 5e                	pop    %r14
  404aa2:	41 5f                	pop    %r15
  404aa4:	e9 27 d9 ff ff       	jmpq   4023d0 <puts@plt>
  404aa9:	0f 1f 80 00 00 00 00 	nopl   0x0(%rax)
  404ab0:	48 63 db             	movslq %ebx,%rbx
  404ab3:	48 0f af f3          	imul   %rbx,%rsi
  404ab7:	e9 80 fe ff ff       	jmpq   40493c <c_print_results+0xec>
  404abc:	0f 1f 40 00          	nopl   0x0(%rax)
  404ac0:	bf 70 71 40 00       	mov    $0x407170,%edi
  404ac5:	e8 06 d9 ff ff       	callq  4023d0 <puts@plt>
  404aca:	e9 12 ff ff ff       	jmpq   4049e1 <c_print_results+0x191>
  404acf:	90                   	nop
  404ad0:	8b 74 24 0c          	mov    0xc(%rsp),%esi
  404ad4:	44 89 f1             	mov    %r14d,%ecx
  404ad7:	89 da                	mov    %ebx,%edx
  404ad9:	bf 50 70 40 00       	mov    $0x407050,%edi
  404ade:	31 c0                	xor    %eax,%eax
  404ae0:	e8 bb d8 ff ff       	callq  4023a0 <printf@plt>
  404ae5:	e9 5e fe ff ff       	jmpq   404948 <c_print_results+0xf8>
  404aea:	66 0f 1f 44 00 00    	nopw   0x0(%rax,%rax,1)
  404af0:	44 89 e6             	mov    %r12d,%esi
  404af3:	bf f8 70 40 00       	mov    $0x4070f8,%edi
  404af8:	31 c0                	xor    %eax,%eax
  404afa:	e8 a1 d8 ff ff       	callq  4023a0 <printf@plt>
  404aff:	e9 7f fe ff ff       	jmpq   404983 <c_print_results+0x133>
  404b04:	90                   	nop
  404b05:	90                   	nop
  404b06:	90                   	nop
  404b07:	90                   	nop
  404b08:	90                   	nop
  404b09:	90                   	nop
  404b0a:	90                   	nop
  404b0b:	90                   	nop
  404b0c:	90                   	nop
  404b0d:	90                   	nop
  404b0e:	90                   	nop
  404b0f:	90                   	nop

0000000000404b10 <timer_clear>:
  404b10:	48 63 ff             	movslq %edi,%rdi
  404b13:	48 c7 04 fd 00 65 73 	movq   $0x0,0x736500(,%rdi,8)
  404b1a:	00 00 00 00 00 
  404b1f:	c3                   	retq   

0000000000404b20 <timer_read>:
  404b20:	48 63 ff             	movslq %edi,%rdi
  404b23:	f2 0f 10 04 fd 00 65 	movsd  0x736500(,%rdi,8),%xmm0
  404b2a:	73 00 
  404b2c:	c3                   	retq   
  404b2d:	0f 1f 00             	nopl   (%rax)

0000000000404b30 <timer_stop>:
  404b30:	53                   	push   %rbx
  404b31:	89 fb                	mov    %edi,%ebx
  404b33:	e8 c8 d9 ff ff       	callq  402500 <MPI_Wtime@plt>
  404b38:	48 63 fb             	movslq %ebx,%rdi
  404b3b:	f2 0f 5c 04 fd 00 63 	subsd  0x736300(,%rdi,8),%xmm0
  404b42:	73 00 
  404b44:	5b                   	pop    %rbx
  404b45:	f2 0f 58 04 fd 00 65 	addsd  0x736500(,%rdi,8),%xmm0
  404b4c:	73 00 
  404b4e:	f2 0f 11 04 fd 00 65 	movsd  %xmm0,0x736500(,%rdi,8)
  404b55:	73 00 
  404b57:	c3                   	retq   
  404b58:	0f 1f 84 00 00 00 00 	nopl   0x0(%rax,%rax,1)
  404b5f:	00 

0000000000404b60 <timer_start>:
  404b60:	53                   	push   %rbx
  404b61:	89 fb                	mov    %edi,%ebx
  404b63:	e8 98 d9 ff ff       	callq  402500 <MPI_Wtime@plt>
  404b68:	48 63 fb             	movslq %ebx,%rdi
  404b6b:	f2 0f 11 04 fd 00 63 	movsd  %xmm0,0x736300(,%rdi,8)
  404b72:	73 00 
  404b74:	5b                   	pop    %rbx
  404b75:	c3                   	retq   
  404b76:	90                   	nop
  404b77:	90                   	nop
  404b78:	90                   	nop
  404b79:	90                   	nop
  404b7a:	90                   	nop
  404b7b:	90                   	nop
  404b7c:	90                   	nop
  404b7d:	90                   	nop
  404b7e:	90                   	nop
  404b7f:	90                   	nop

0000000000404b80 <PinMPI_Send>:
  404b80:	89 7c 24 fc          	mov    %edi,-0x4(%rsp)
  404b84:	89 74 24 f8          	mov    %esi,-0x8(%rsp)
  404b88:	89 54 24 f4          	mov    %edx,-0xc(%rsp)
  404b8c:	89 4c 24 f0          	mov    %ecx,-0x10(%rsp)
  404b90:	c7 44 24 f0 00 00 00 	movl   $0x0,-0x10(%rsp)
  404b97:	00 
  404b98:	c3                   	retq   
  404b99:	0f 1f 80 00 00 00 00 	nopl   0x0(%rax)

0000000000404ba0 <PinMPI_Recv>:
  404ba0:	89 7c 24 fc          	mov    %edi,-0x4(%rsp)
  404ba4:	89 74 24 f8          	mov    %esi,-0x8(%rsp)
  404ba8:	89 54 24 f4          	mov    %edx,-0xc(%rsp)
  404bac:	89 4c 24 f0          	mov    %ecx,-0x10(%rsp)
  404bb0:	c7 44 24 f0 00 00 00 	movl   $0x0,-0x10(%rsp)
  404bb7:	00 
  404bb8:	c3                   	retq   
  404bb9:	0f 1f 80 00 00 00 00 	nopl   0x0(%rax)

0000000000404bc0 <PinMPI_Barrier>:
  404bc0:	89 7c 24 fc          	mov    %edi,-0x4(%rsp)
  404bc4:	48 89 74 24 f0       	mov    %rsi,-0x10(%rsp)
  404bc9:	89 54 24 ec          	mov    %edx,-0x14(%rsp)
  404bcd:	c7 44 24 ec 00 00 00 	movl   $0x0,-0x14(%rsp)
  404bd4:	00 
  404bd5:	c3                   	retq   
  404bd6:	66 2e 0f 1f 84 00 00 	nopw   %cs:0x0(%rax,%rax,1)
  404bdd:	00 00 00 

0000000000404be0 <PinMPI_Bcast>:
  404be0:	89 7c 24 fc          	mov    %edi,-0x4(%rsp)
  404be4:	48 89 74 24 f0       	mov    %rsi,-0x10(%rsp)
  404be9:	89 54 24 ec          	mov    %edx,-0x14(%rsp)
  404bed:	89 4c 24 e8          	mov    %ecx,-0x18(%rsp)
  404bf1:	c7 44 24 e8 00 00 00 	movl   $0x0,-0x18(%rsp)
  404bf8:	00 
  404bf9:	c3                   	retq   
  404bfa:	66 0f 1f 44 00 00    	nopw   0x0(%rax,%rax,1)

0000000000404c00 <PinMPI_Reduce>:
  404c00:	89 7c 24 fc          	mov    %edi,-0x4(%rsp)
  404c04:	48 89 74 24 f0       	mov    %rsi,-0x10(%rsp)
  404c09:	89 54 24 ec          	mov    %edx,-0x14(%rsp)
  404c0d:	89 4c 24 e8          	mov    %ecx,-0x18(%rsp)
  404c11:	c7 44 24 e8 00 00 00 	movl   $0x0,-0x18(%rsp)
  404c18:	00 
  404c19:	c3                   	retq   
  404c1a:	66 0f 1f 44 00 00    	nopw   0x0(%rax,%rax,1)

0000000000404c20 <PinMPI_Allreduce>:
  404c20:	89 7c 24 fc          	mov    %edi,-0x4(%rsp)
  404c24:	48 89 74 24 f0       	mov    %rsi,-0x10(%rsp)
  404c29:	89 54 24 ec          	mov    %edx,-0x14(%rsp)
  404c2d:	c7 44 24 ec 00 00 00 	movl   $0x0,-0x14(%rsp)
  404c34:	00 
  404c35:	c3                   	retq   
  404c36:	66 2e 0f 1f 84 00 00 	nopw   %cs:0x0(%rax,%rax,1)
  404c3d:	00 00 00 

0000000000404c40 <PinMPI_Allgather>:
  404c40:	89 7c 24 fc          	mov    %edi,-0x4(%rsp)
  404c44:	48 89 74 24 f0       	mov    %rsi,-0x10(%rsp)
  404c49:	89 54 24 ec          	mov    %edx,-0x14(%rsp)
  404c4d:	c7 44 24 ec 00 00 00 	movl   $0x0,-0x14(%rsp)
  404c54:	00 
  404c55:	c3                   	retq   
  404c56:	66 2e 0f 1f 84 00 00 	nopw   %cs:0x0(%rax,%rax,1)
  404c5d:	00 00 00 

0000000000404c60 <PinMPI_Alltoall>:
  404c60:	89 7c 24 fc          	mov    %edi,-0x4(%rsp)
  404c64:	48 89 74 24 f0       	mov    %rsi,-0x10(%rsp)
  404c69:	89 54 24 ec          	mov    %edx,-0x14(%rsp)
  404c6d:	c7 44 24 ec 00 00 00 	movl   $0x0,-0x14(%rsp)
  404c74:	00 
  404c75:	c3                   	retq   
  404c76:	66 2e 0f 1f 84 00 00 	nopw   %cs:0x0(%rax,%rax,1)
  404c7d:	00 00 00 

0000000000404c80 <PinMPI_Alltoallv>:
  404c80:	89 7c 24 fc          	mov    %edi,-0x4(%rsp)
  404c84:	48 89 74 24 f0       	mov    %rsi,-0x10(%rsp)
  404c89:	89 54 24 ec          	mov    %edx,-0x14(%rsp)
  404c8d:	c7 44 24 ec 00 00 00 	movl   $0x0,-0x14(%rsp)
  404c94:	00 
  404c95:	c3                   	retq   
  404c96:	66 2e 0f 1f 84 00 00 	nopw   %cs:0x0(%rax,%rax,1)
  404c9d:	00 00 00 

0000000000404ca0 <getTotalSize>:
  404ca0:	48 83 ec 08          	sub    $0x8,%rsp
  404ca4:	48 81 fe 40 7f 60 00 	cmp    $0x607f40,%rsi
  404cab:	89 f8                	mov    %edi,%eax
  404cad:	0f 84 3d 01 00 00    	je     404df0 <getTotalSize+0x150>
  404cb3:	48 81 fe 40 a7 60 00 	cmp    $0x60a740,%rsi
  404cba:	0f 84 30 01 00 00    	je     404df0 <getTotalSize+0x150>
  404cc0:	48 81 fe 60 c9 60 00 	cmp    $0x60c960,%rsi
  404cc7:	0f 84 23 01 00 00    	je     404df0 <getTotalSize+0x150>
  404ccd:	48 81 fe 40 81 60 00 	cmp    $0x608140,%rsi
  404cd4:	0f 84 26 01 00 00    	je     404e00 <getTotalSize+0x160>
  404cda:	48 81 fe 40 93 60 00 	cmp    $0x609340,%rsi
  404ce1:	0f 84 19 01 00 00    	je     404e00 <getTotalSize+0x160>
  404ce7:	48 81 fe 40 87 60 00 	cmp    $0x608740,%rsi
  404cee:	0f 84 04 01 00 00    	je     404df8 <getTotalSize+0x158>
  404cf4:	48 81 fe 40 ab 60 00 	cmp    $0x60ab40,%rsi
  404cfb:	0f 84 f7 00 00 00    	je     404df8 <getTotalSize+0x158>
  404d01:	48 81 fe 60 c7 60 00 	cmp    $0x60c760,%rsi
  404d08:	0f 84 ea 00 00 00    	je     404df8 <getTotalSize+0x158>
  404d0e:	48 81 fe 60 cb 60 00 	cmp    $0x60cb60,%rsi
  404d15:	0f 84 f5 00 00 00    	je     404e10 <getTotalSize+0x170>
  404d1b:	48 81 fe 40 b9 60 00 	cmp    $0x60b940,%rsi
  404d22:	0f 84 e8 00 00 00    	je     404e10 <getTotalSize+0x170>
  404d28:	48 81 fe 40 9d 60 00 	cmp    $0x609d40,%rsi
  404d2f:	0f 84 db 00 00 00    	je     404e10 <getTotalSize+0x170>
  404d35:	48 81 fe 40 b1 60 00 	cmp    $0x60b140,%rsi
  404d3c:	0f 84 ce 00 00 00    	je     404e10 <getTotalSize+0x170>
  404d42:	48 81 fe 40 9b 60 00 	cmp    $0x609b40,%rsi
  404d49:	0f 84 d1 00 00 00    	je     404e20 <getTotalSize+0x180>
  404d4f:	48 81 fe 40 99 60 00 	cmp    $0x609940,%rsi
  404d56:	0f 84 94 00 00 00    	je     404df0 <getTotalSize+0x150>
  404d5c:	48 81 fe 40 83 60 00 	cmp    $0x608340,%rsi
  404d63:	0f 84 87 00 00 00    	je     404df0 <getTotalSize+0x150>
  404d69:	48 81 fe 40 97 60 00 	cmp    $0x609740,%rsi
  404d70:	0f 84 8a 00 00 00    	je     404e00 <getTotalSize+0x160>
  404d76:	48 81 fe 60 cd 60 00 	cmp    $0x60cd60,%rsi
  404d7d:	74 79                	je     404df8 <getTotalSize+0x158>
  404d7f:	48 81 fe 60 c3 60 00 	cmp    $0x60c360,%rsi
  404d86:	74 70                	je     404df8 <getTotalSize+0x158>
  404d88:	48 81 fe 40 a9 60 00 	cmp    $0x60a940,%rsi
  404d8f:	74 67                	je     404df8 <getTotalSize+0x158>
  404d91:	48 81 fe 40 89 60 00 	cmp    $0x608940,%rsi
  404d98:	74 5e                	je     404df8 <getTotalSize+0x158>
  404d9a:	48 81 fe 40 95 60 00 	cmp    $0x609540,%rsi
  404da1:	74 55                	je     404df8 <getTotalSize+0x158>
  404da3:	48 81 fe 60 c5 60 00 	cmp    $0x60c560,%rsi
  404daa:	74 64                	je     404e10 <getTotalSize+0x170>
  404dac:	48 81 fe 40 85 60 00 	cmp    $0x608540,%rsi
  404db3:	74 5b                	je     404e10 <getTotalSize+0x170>
  404db5:	48 81 fe 40 ad 60 00 	cmp    $0x60ad40,%rsi
  404dbc:	74 52                	je     404e10 <getTotalSize+0x170>
  404dbe:	48 81 fe 60 cf 60 00 	cmp    $0x60cf60,%rsi
  404dc5:	74 49                	je     404e10 <getTotalSize+0x170>
  404dc7:	48 81 fe 40 b3 60 00 	cmp    $0x60b340,%rsi
  404dce:	74 50                	je     404e20 <getTotalSize+0x180>
  404dd0:	8b 15 6a 1c 33 00    	mov    0x331c6a(%rip),%edx        # 736a40 <rank_pmpi>
  404dd6:	48 8b 3d 63 75 20 00 	mov    0x207563(%rip),%rdi        # 60c340 <stderr@@GLIBC_2.2.5>
  404ddd:	89 f1                	mov    %esi,%ecx
  404ddf:	31 c0                	xor    %eax,%eax
  404de1:	be 60 72 40 00       	mov    $0x407260,%esi
  404de6:	e8 45 d7 ff ff       	callq  402530 <fprintf@plt>
  404deb:	31 c0                	xor    %eax,%eax
  404ded:	0f 1f 00             	nopl   (%rax)
  404df0:	48 83 c4 08          	add    $0x8,%rsp
  404df4:	c3                   	retq   
  404df5:	0f 1f 00             	nopl   (%rax)
  404df8:	c1 e0 02             	shl    $0x2,%eax
  404dfb:	48 83 c4 08          	add    $0x8,%rsp
  404dff:	c3                   	retq   
  404e00:	01 c0                	add    %eax,%eax
  404e02:	48 83 c4 08          	add    $0x8,%rsp
  404e06:	c3                   	retq   
  404e07:	66 0f 1f 84 00 00 00 	nopw   0x0(%rax,%rax,1)
  404e0e:	00 00 
  404e10:	c1 e0 03             	shl    $0x3,%eax
  404e13:	48 83 c4 08          	add    $0x8,%rsp
  404e17:	c3                   	retq   
  404e18:	0f 1f 84 00 00 00 00 	nopl   0x0(%rax,%rax,1)
  404e1f:	00 
  404e20:	c1 e0 04             	shl    $0x4,%eax
  404e23:	eb cb                	jmp    404df0 <getTotalSize+0x150>
  404e25:	66 66 2e 0f 1f 84 00 	data32 nopw %cs:0x0(%rax,%rax,1)
  404e2c:	00 00 00 00 

0000000000404e30 <MPI_Barrier>:
  404e30:	48 89 5c 24 f0       	mov    %rbx,-0x10(%rsp)
  404e35:	48 89 6c 24 f8       	mov    %rbp,-0x8(%rsp)
  404e3a:	48 83 ec 18          	sub    $0x18,%rsp
  404e3e:	48 89 fd             	mov    %rdi,%rbp
  404e41:	e8 6a d5 ff ff       	callq  4023b0 <PMPI_Barrier@plt>
  404e46:	49 89 e9             	mov    %rbp,%r9
  404e49:	41 b8 40 bb 60 00    	mov    $0x60bb40,%r8d
  404e4f:	b9 40 af 60 00       	mov    $0x60af40,%ecx
  404e54:	ba 01 00 00 00       	mov    $0x1,%edx
  404e59:	be 48 6a 73 00       	mov    $0x736a48,%esi
  404e5e:	bf 08 67 73 00       	mov    $0x736708,%edi
  404e63:	89 c3                	mov    %eax,%ebx
  404e65:	e8 16 d6 ff ff       	callq  402480 <PMPI_Allreduce@plt>
  404e6a:	8b 15 e0 1b 33 00    	mov    0x331be0(%rip),%edx        # 736a50 <byte0>
  404e70:	48 8b 35 d1 1b 33 00 	mov    0x331bd1(%rip),%rsi        # 736a48 <identity_gather_pmpi>
  404e77:	8b 3d c3 1b 33 00    	mov    0x331bc3(%rip),%edi        # 736a40 <rank_pmpi>
  404e7d:	e8 3e fd ff ff       	callq  404bc0 <PinMPI_Barrier>
  404e82:	89 d8                	mov    %ebx,%eax
  404e84:	48 8b 6c 24 10       	mov    0x10(%rsp),%rbp
  404e89:	48 8b 5c 24 08       	mov    0x8(%rsp),%rbx
  404e8e:	48 83 c4 18          	add    $0x18,%rsp
  404e92:	c3                   	retq   
  404e93:	66 66 66 66 2e 0f 1f 	data32 data32 data32 nopw %cs:0x0(%rax,%rax,1)
  404e9a:	84 00 00 00 00 00 

0000000000404ea0 <MPI_Wait>:
  404ea0:	55                   	push   %rbp
  404ea1:	48 89 f5             	mov    %rsi,%rbp
  404ea4:	53                   	push   %rbx
  404ea5:	48 89 fb             	mov    %rdi,%rbx
  404ea8:	48 83 ec 48          	sub    $0x48,%rsp
  404eac:	8b 05 a2 1b 33 00    	mov    0x331ba2(%rip),%eax        # 736a54 <i_req_pop>
  404eb2:	48 63 d0             	movslq %eax,%rdx
  404eb5:	48 8d 3c 92          	lea    (%rdx,%rdx,4),%rdi
  404eb9:	48 c1 e7 03          	shl    $0x3,%rdi
  404ebd:	0f b6 97 20 67 73 00 	movzbl 0x736720(%rdi),%edx
  404ec4:	80 fa 73             	cmp    $0x73,%dl
  404ec7:	74 2f                	je     404ef8 <MPI_Wait+0x58>
  404ec9:	80 fa 72             	cmp    $0x72,%dl
  404ecc:	0f 84 96 00 00 00    	je     404f68 <MPI_Wait+0xc8>
  404ed2:	8d 50 01             	lea    0x1(%rax),%edx
  404ed5:	31 c0                	xor    %eax,%eax
  404ed7:	48 89 ee             	mov    %rbp,%rsi
  404eda:	48 89 df             	mov    %rbx,%rdi
  404edd:	83 fa 14             	cmp    $0x14,%edx
  404ee0:	0f 45 c2             	cmovne %edx,%eax
  404ee3:	89 05 6b 1b 33 00    	mov    %eax,0x331b6b(%rip)        # 736a54 <i_req_pop>
  404ee9:	e8 32 d6 ff ff       	callq  402520 <PMPI_Wait@plt>
  404eee:	48 83 c4 48          	add    $0x48,%rsp
  404ef2:	5b                   	pop    %rbx
  404ef3:	5d                   	pop    %rbp
  404ef4:	c3                   	retq   
  404ef5:	0f 1f 00             	nopl   (%rax)
  404ef8:	48 8d 74 24 20       	lea    0x20(%rsp),%rsi
  404efd:	48 81 c7 38 67 73 00 	add    $0x736738,%rdi
  404f04:	e8 17 d6 ff ff       	callq  402520 <PMPI_Wait@plt>
  404f09:	48 63 05 44 1b 33 00 	movslq 0x331b44(%rip),%rax        # 736a54 <i_req_pop>
  404f10:	48 89 e6             	mov    %rsp,%rsi
  404f13:	48 8d 04 80          	lea    (%rax,%rax,4),%rax
  404f17:	48 8d 3c c5 40 67 73 	lea    0x736740(,%rax,8),%rdi
  404f1e:	00 
  404f1f:	e8 fc d5 ff ff       	callq  402520 <PMPI_Wait@plt>
  404f24:	48 63 05 29 1b 33 00 	movslq 0x331b29(%rip),%rax        # 736a54 <i_req_pop>
  404f2b:	8b 3d 0f 1b 33 00    	mov    0x331b0f(%rip),%edi        # 736a40 <rank_pmpi>
  404f31:	48 8d 04 80          	lea    (%rax,%rax,4),%rax
  404f35:	48 c1 e0 03          	shl    $0x3,%rax
  404f39:	8b 88 2c 67 73 00    	mov    0x73672c(%rax),%ecx
  404f3f:	8b 90 28 67 73 00    	mov    0x736728(%rax),%edx
  404f45:	8b b0 24 67 73 00    	mov    0x736724(%rax),%esi
  404f4b:	4c 8b 80 30 67 73 00 	mov    0x736730(%rax),%r8
  404f52:	e8 29 fc ff ff       	callq  404b80 <PinMPI_Send>
  404f57:	8b 05 f7 1a 33 00    	mov    0x331af7(%rip),%eax        # 736a54 <i_req_pop>
  404f5d:	e9 70 ff ff ff       	jmpq   404ed2 <MPI_Wait+0x32>
  404f62:	66 0f 1f 44 00 00    	nopw   0x0(%rax,%rax,1)
  404f68:	48 89 e6             	mov    %rsp,%rsi
  404f6b:	48 81 c7 40 67 73 00 	add    $0x736740,%rdi
  404f72:	e8 a9 d5 ff ff       	callq  402520 <PMPI_Wait@plt>
  404f77:	48 63 05 d6 1a 33 00 	movslq 0x331ad6(%rip),%rax        # 736a54 <i_req_pop>
  404f7e:	48 8d 74 24 20       	lea    0x20(%rsp),%rsi
  404f83:	48 8d 04 80          	lea    (%rax,%rax,4),%rax
  404f87:	48 8d 3c c5 38 67 73 	lea    0x736738(,%rax,8),%rdi
  404f8e:	00 
  404f8f:	e8 8c d5 ff ff       	callq  402520 <PMPI_Wait@plt>
  404f94:	48 63 05 b9 1a 33 00 	movslq 0x331ab9(%rip),%rax        # 736a54 <i_req_pop>
  404f9b:	8b 3d 9f 1a 33 00    	mov    0x331a9f(%rip),%edi        # 736a40 <rank_pmpi>
  404fa1:	48 8d 04 80          	lea    (%rax,%rax,4),%rax
  404fa5:	48 c1 e0 03          	shl    $0x3,%rax
  404fa9:	8b 88 2c 67 73 00    	mov    0x73672c(%rax),%ecx
  404faf:	8b 90 28 67 73 00    	mov    0x736728(%rax),%edx
  404fb5:	8b b0 24 67 73 00    	mov    0x736724(%rax),%esi
  404fbb:	4c 8b 80 30 67 73 00 	mov    0x736730(%rax),%r8
  404fc2:	e8 d9 fb ff ff       	callq  404ba0 <PinMPI_Recv>
  404fc7:	8b 05 87 1a 33 00    	mov    0x331a87(%rip),%eax        # 736a54 <i_req_pop>
  404fcd:	e9 00 ff ff ff       	jmpq   404ed2 <MPI_Wait+0x32>
  404fd2:	66 66 66 66 66 2e 0f 	data32 data32 data32 data32 nopw %cs:0x0(%rax,%rax,1)
  404fd9:	1f 84 00 00 00 00 00 

0000000000404fe0 <MPI_Waitall>:
  404fe0:	41 57                	push   %r15
  404fe2:	49 89 f7             	mov    %rsi,%r15
  404fe5:	41 56                	push   %r14
  404fe7:	49 89 d6             	mov    %rdx,%r14
  404fea:	41 55                	push   %r13
  404fec:	41 54                	push   %r12
  404fee:	55                   	push   %rbp
  404fef:	89 fd                	mov    %edi,%ebp
  404ff1:	53                   	push   %rbx
  404ff2:	48 83 ec 48          	sub    $0x48,%rsp
  404ff6:	85 ff                	test   %edi,%edi
  404ff8:	7e 63                	jle    40505d <MPI_Waitall+0x7d>
  404ffa:	8b 05 54 1a 33 00    	mov    0x331a54(%rip),%eax        # 736a54 <i_req_pop>
  405000:	31 db                	xor    %ebx,%ebx
  405002:	4c 8d 6c 24 20       	lea    0x20(%rsp),%r13
  405007:	eb 0e                	jmp    405017 <MPI_Waitall+0x37>
  405009:	0f 1f 80 00 00 00 00 	nopl   0x0(%rax)
  405010:	83 c3 01             	add    $0x1,%ebx
  405013:	39 dd                	cmp    %ebx,%ebp
  405015:	7e 46                	jle    40505d <MPI_Waitall+0x7d>
  405017:	48 63 d0             	movslq %eax,%rdx
  40501a:	48 8d 14 92          	lea    (%rdx,%rdx,4),%rdx
  40501e:	48 8d 3c d5 00 00 00 	lea    0x0(,%rdx,8),%rdi
  405025:	00 
  405026:	0f b6 14 d5 20 67 73 	movzbl 0x736720(,%rdx,8),%edx
  40502d:	00 
  40502e:	80 fa 73             	cmp    $0x73,%dl
  405031:	74 4d                	je     405080 <MPI_Waitall+0xa0>
  405033:	80 fa 72             	cmp    $0x72,%dl
  405036:	0f 84 b4 00 00 00    	je     4050f0 <MPI_Waitall+0x110>
  40503c:	83 c0 01             	add    $0x1,%eax
  40503f:	83 f8 14             	cmp    $0x14,%eax
  405042:	89 05 0c 1a 33 00    	mov    %eax,0x331a0c(%rip)        # 736a54 <i_req_pop>
  405048:	75 c6                	jne    405010 <MPI_Waitall+0x30>
  40504a:	83 c3 01             	add    $0x1,%ebx
  40504d:	30 c0                	xor    %al,%al
  40504f:	c7 05 fb 19 33 00 00 	movl   $0x0,0x3319fb(%rip)        # 736a54 <i_req_pop>
  405056:	00 00 00 
  405059:	39 dd                	cmp    %ebx,%ebp
  40505b:	7f ba                	jg     405017 <MPI_Waitall+0x37>
  40505d:	4c 89 f2             	mov    %r14,%rdx
  405060:	4c 89 fe             	mov    %r15,%rsi
  405063:	89 ef                	mov    %ebp,%edi
  405065:	e8 76 d3 ff ff       	callq  4023e0 <PMPI_Waitall@plt>
  40506a:	48 83 c4 48          	add    $0x48,%rsp
  40506e:	5b                   	pop    %rbx
  40506f:	5d                   	pop    %rbp
  405070:	41 5c                	pop    %r12
  405072:	41 5d                	pop    %r13
  405074:	41 5e                	pop    %r14
  405076:	41 5f                	pop    %r15
  405078:	c3                   	retq   
  405079:	0f 1f 80 00 00 00 00 	nopl   0x0(%rax)
  405080:	48 81 c7 38 67 73 00 	add    $0x736738,%rdi
  405087:	4c 89 ee             	mov    %r13,%rsi
  40508a:	e8 91 d4 ff ff       	callq  402520 <PMPI_Wait@plt>
  40508f:	48 63 05 be 19 33 00 	movslq 0x3319be(%rip),%rax        # 736a54 <i_req_pop>
  405096:	48 89 e6             	mov    %rsp,%rsi
  405099:	48 8d 04 80          	lea    (%rax,%rax,4),%rax
  40509d:	48 8d 3c c5 40 67 73 	lea    0x736740(,%rax,8),%rdi
  4050a4:	00 
  4050a5:	e8 76 d4 ff ff       	callq  402520 <PMPI_Wait@plt>
  4050aa:	48 63 05 a3 19 33 00 	movslq 0x3319a3(%rip),%rax        # 736a54 <i_req_pop>
  4050b1:	8b 3d 89 19 33 00    	mov    0x331989(%rip),%edi        # 736a40 <rank_pmpi>
  4050b7:	48 8d 04 80          	lea    (%rax,%rax,4),%rax
  4050bb:	8b 0c c5 2c 67 73 00 	mov    0x73672c(,%rax,8),%ecx
  4050c2:	8b 14 c5 28 67 73 00 	mov    0x736728(,%rax,8),%edx
  4050c9:	8b 34 c5 24 67 73 00 	mov    0x736724(,%rax,8),%esi
  4050d0:	4c 8b 04 c5 30 67 73 	mov    0x736730(,%rax,8),%r8
  4050d7:	00 
  4050d8:	e8 a3 fa ff ff       	callq  404b80 <PinMPI_Send>
  4050dd:	8b 05 71 19 33 00    	mov    0x331971(%rip),%eax        # 736a54 <i_req_pop>
  4050e3:	e9 54 ff ff ff       	jmpq   40503c <MPI_Waitall+0x5c>
  4050e8:	0f 1f 84 00 00 00 00 	nopl   0x0(%rax,%rax,1)
  4050ef:	00 
  4050f0:	48 81 c7 40 67 73 00 	add    $0x736740,%rdi
  4050f7:	48 89 e6             	mov    %rsp,%rsi
  4050fa:	e8 21 d4 ff ff       	callq  402520 <PMPI_Wait@plt>
  4050ff:	48 63 05 4e 19 33 00 	movslq 0x33194e(%rip),%rax        # 736a54 <i_req_pop>
  405106:	4c 89 ee             	mov    %r13,%rsi
  405109:	48 8d 04 80          	lea    (%rax,%rax,4),%rax
  40510d:	48 8d 3c c5 38 67 73 	lea    0x736738(,%rax,8),%rdi
  405114:	00 
  405115:	e8 06 d4 ff ff       	callq  402520 <PMPI_Wait@plt>
  40511a:	48 63 05 33 19 33 00 	movslq 0x331933(%rip),%rax        # 736a54 <i_req_pop>
  405121:	8b 3d 19 19 33 00    	mov    0x331919(%rip),%edi        # 736a40 <rank_pmpi>
  405127:	48 8d 04 80          	lea    (%rax,%rax,4),%rax
  40512b:	8b 0c c5 2c 67 73 00 	mov    0x73672c(,%rax,8),%ecx
  405132:	8b 14 c5 28 67 73 00 	mov    0x736728(,%rax,8),%edx
  405139:	8b 34 c5 24 67 73 00 	mov    0x736724(,%rax,8),%esi
  405140:	4c 8b 04 c5 30 67 73 	mov    0x736730(,%rax,8),%r8
  405147:	00 
  405148:	e8 53 fa ff ff       	callq  404ba0 <PinMPI_Recv>
  40514d:	8b 05 01 19 33 00    	mov    0x331901(%rip),%eax        # 736a54 <i_req_pop>
  405153:	e9 e4 fe ff ff       	jmpq   40503c <MPI_Waitall+0x5c>
  405158:	0f 1f 84 00 00 00 00 	nopl   0x0(%rax,%rax,1)
  40515f:	00 

0000000000405160 <MPI_Init>:
  405160:	53                   	push   %rbx
  405161:	e8 ea d2 ff ff       	callq  402450 <PMPI_Init@plt>
  405166:	be 40 6a 73 00       	mov    $0x736a40,%esi
  40516b:	bf 40 b5 60 00       	mov    $0x60b540,%edi
  405170:	89 c3                	mov    %eax,%ebx
  405172:	e8 29 d3 ff ff       	callq  4024a0 <MPI_Comm_rank@plt>
  405177:	be 04 67 73 00       	mov    $0x736704,%esi
  40517c:	bf 40 b5 60 00       	mov    $0x60b540,%edi
  405181:	e8 da d2 ff ff       	callq  402460 <MPI_Comm_size@plt>
  405186:	83 3d 77 15 33 00 40 	cmpl   $0x40,0x331577(%rip)        # 736704 <size_pmpi>
  40518d:	7f 37                	jg     4051c6 <MPI_Init+0x66>
  40518f:	8b 0d ab 18 33 00    	mov    0x3318ab(%rip),%ecx        # 736a40 <rank_pmpi>
  405195:	b8 01 00 00 00       	mov    $0x1,%eax
  40519a:	c7 05 b0 18 33 00 00 	movl   $0x0,0x3318b0(%rip)        # 736a54 <i_req_pop>
  4051a1:	00 00 00 
  4051a4:	c7 05 52 15 33 00 00 	movl   $0x0,0x331552(%rip)        # 736700 <i_req_push>
  4051ab:	00 00 00 
  4051ae:	c7 05 98 18 33 00 00 	movl   $0x0,0x331898(%rip)        # 736a50 <byte0>
  4051b5:	00 00 00 
  4051b8:	48 d3 e0             	shl    %cl,%rax
  4051bb:	48 89 05 46 15 33 00 	mov    %rax,0x331546(%rip)        # 736708 <identity_pmpi>
  4051c2:	89 d8                	mov    %ebx,%eax
  4051c4:	5b                   	pop    %rbx
  4051c5:	c3                   	retq   
  4051c6:	83 3d 73 18 33 00 00 	cmpl   $0x0,0x331873(%rip)        # 736a40 <rank_pmpi>
  4051cd:	74 0f                	je     4051de <MPI_Init+0x7e>
  4051cf:	e8 fc d2 ff ff       	callq  4024d0 <PMPI_Finalize@plt>
  4051d4:	bf 01 00 00 00       	mov    $0x1,%edi
  4051d9:	e8 12 d2 ff ff       	callq  4023f0 <exit@plt>
  4051de:	48 8b 0d 5b 71 20 00 	mov    0x20715b(%rip),%rcx        # 60c340 <stderr@@GLIBC_2.2.5>
  4051e5:	ba 33 00 00 00       	mov    $0x33,%edx
  4051ea:	be 01 00 00 00       	mov    $0x1,%esi
  4051ef:	bf 90 72 40 00       	mov    $0x407290,%edi
  4051f4:	e8 17 d3 ff ff       	callq  402510 <fwrite@plt>
  4051f9:	eb d4                	jmp    4051cf <MPI_Init+0x6f>
  4051fb:	0f 1f 44 00 00       	nopl   0x0(%rax,%rax,1)

0000000000405200 <MPI_Alltoallv>:
  405200:	41 57                	push   %r15
  405202:	49 89 ff             	mov    %rdi,%r15
  405205:	41 56                	push   %r14
  405207:	41 55                	push   %r13
  405209:	49 89 f5             	mov    %rsi,%r13
  40520c:	41 54                	push   %r12
  40520e:	4d 89 c4             	mov    %r8,%r12
  405211:	55                   	push   %rbp
  405212:	53                   	push   %rbx
  405213:	48 89 cb             	mov    %rcx,%rbx
  405216:	48 83 ec 48          	sub    $0x48,%rsp
  40521a:	48 8b 84 24 88 00 00 	mov    0x88(%rsp),%rax
  405221:	00 
  405222:	48 8b ac 24 90 00 00 	mov    0x90(%rsp),%rbp
  405229:	00 
  40522a:	48 89 44 24 08       	mov    %rax,0x8(%rsp)
  40522f:	48 8b 84 24 80 00 00 	mov    0x80(%rsp),%rax
  405236:	00 
  405237:	48 89 6c 24 10       	mov    %rbp,0x10(%rsp)
  40523c:	48 89 04 24          	mov    %rax,(%rsp)
  405240:	e8 7b d1 ff ff       	callq  4023c0 <PMPI_Alltoallv@plt>
  405245:	49 89 e9             	mov    %rbp,%r9
  405248:	ba 01 00 00 00       	mov    $0x1,%edx
  40524d:	41 b8 40 bb 60 00    	mov    $0x60bb40,%r8d
  405253:	b9 40 af 60 00       	mov    $0x60af40,%ecx
  405258:	be 48 6a 73 00       	mov    $0x736a48,%esi
  40525d:	bf 08 67 73 00       	mov    $0x736708,%edi
  405262:	89 44 24 2c          	mov    %eax,0x2c(%rsp)
  405266:	e8 15 d2 ff ff       	callq  402480 <PMPI_Allreduce@plt>
  40526b:	48 8d 74 24 3c       	lea    0x3c(%rsp),%rsi
  405270:	48 89 ef             	mov    %rbp,%rdi
  405273:	31 ed                	xor    %ebp,%ebp
  405275:	e8 e6 d1 ff ff       	callq  402460 <MPI_Comm_size@plt>
  40527a:	8b 54 24 3c          	mov    0x3c(%rsp),%edx
  40527e:	85 d2                	test   %edx,%edx
  405280:	0f 8e 9d 01 00 00    	jle    405423 <MPI_Alltoallv+0x223>
  405286:	45 31 f6             	xor    %r14d,%r14d
  405289:	0f 1f 80 00 00 00 00 	nopl   0x0(%rax)
  405290:	48 81 fb 40 7f 60 00 	cmp    $0x607f40,%rbx
  405297:	41 8b 45 00          	mov    0x0(%r13),%eax
  40529b:	0f 84 6f 01 00 00    	je     405410 <MPI_Alltoallv+0x210>
  4052a1:	48 81 fb 40 a7 60 00 	cmp    $0x60a740,%rbx
  4052a8:	0f 84 62 01 00 00    	je     405410 <MPI_Alltoallv+0x210>
  4052ae:	48 81 fb 60 c9 60 00 	cmp    $0x60c960,%rbx
  4052b5:	0f 84 55 01 00 00    	je     405410 <MPI_Alltoallv+0x210>
  4052bb:	48 81 fb 40 81 60 00 	cmp    $0x608140,%rbx
  4052c2:	0f 84 98 01 00 00    	je     405460 <MPI_Alltoallv+0x260>
  4052c8:	48 81 fb 40 93 60 00 	cmp    $0x609340,%rbx
  4052cf:	0f 84 8b 01 00 00    	je     405460 <MPI_Alltoallv+0x260>
  4052d5:	48 81 fb 40 87 60 00 	cmp    $0x608740,%rbx
  4052dc:	0f 84 6e 01 00 00    	je     405450 <MPI_Alltoallv+0x250>
  4052e2:	48 81 fb 40 ab 60 00 	cmp    $0x60ab40,%rbx
  4052e9:	0f 84 61 01 00 00    	je     405450 <MPI_Alltoallv+0x250>
  4052ef:	48 81 fb 60 c7 60 00 	cmp    $0x60c760,%rbx
  4052f6:	0f 84 54 01 00 00    	je     405450 <MPI_Alltoallv+0x250>
  4052fc:	48 81 fb 60 cb 60 00 	cmp    $0x60cb60,%rbx
  405303:	0f 84 4f 01 00 00    	je     405458 <MPI_Alltoallv+0x258>
  405309:	48 81 fb 40 b9 60 00 	cmp    $0x60b940,%rbx
  405310:	0f 84 42 01 00 00    	je     405458 <MPI_Alltoallv+0x258>
  405316:	48 81 fb 40 9d 60 00 	cmp    $0x609d40,%rbx
  40531d:	0f 84 35 01 00 00    	je     405458 <MPI_Alltoallv+0x258>
  405323:	48 81 fb 40 b1 60 00 	cmp    $0x60b140,%rbx
  40532a:	0f 84 28 01 00 00    	je     405458 <MPI_Alltoallv+0x258>
  405330:	48 81 fb 40 9b 60 00 	cmp    $0x609b40,%rbx
  405337:	0f 84 2b 01 00 00    	je     405468 <MPI_Alltoallv+0x268>
  40533d:	48 81 fb 40 99 60 00 	cmp    $0x609940,%rbx
  405344:	0f 84 c6 00 00 00    	je     405410 <MPI_Alltoallv+0x210>
  40534a:	48 81 fb 40 83 60 00 	cmp    $0x608340,%rbx
  405351:	0f 84 b9 00 00 00    	je     405410 <MPI_Alltoallv+0x210>
  405357:	48 81 fb 40 97 60 00 	cmp    $0x609740,%rbx
  40535e:	0f 84 fc 00 00 00    	je     405460 <MPI_Alltoallv+0x260>
  405364:	48 81 fb 60 cd 60 00 	cmp    $0x60cd60,%rbx
  40536b:	0f 84 df 00 00 00    	je     405450 <MPI_Alltoallv+0x250>
  405371:	48 81 fb 60 c3 60 00 	cmp    $0x60c360,%rbx
  405378:	0f 84 d2 00 00 00    	je     405450 <MPI_Alltoallv+0x250>
  40537e:	48 81 fb 40 a9 60 00 	cmp    $0x60a940,%rbx
  405385:	0f 84 c5 00 00 00    	je     405450 <MPI_Alltoallv+0x250>
  40538b:	48 81 fb 40 89 60 00 	cmp    $0x608940,%rbx
  405392:	0f 84 b8 00 00 00    	je     405450 <MPI_Alltoallv+0x250>
  405398:	48 81 fb 40 95 60 00 	cmp    $0x609540,%rbx
  40539f:	0f 84 ab 00 00 00    	je     405450 <MPI_Alltoallv+0x250>
  4053a5:	48 81 fb 60 c5 60 00 	cmp    $0x60c560,%rbx
  4053ac:	0f 84 a6 00 00 00    	je     405458 <MPI_Alltoallv+0x258>
  4053b2:	48 81 fb 40 85 60 00 	cmp    $0x608540,%rbx
  4053b9:	0f 84 99 00 00 00    	je     405458 <MPI_Alltoallv+0x258>
  4053bf:	48 81 fb 40 ad 60 00 	cmp    $0x60ad40,%rbx
  4053c6:	0f 84 8c 00 00 00    	je     405458 <MPI_Alltoallv+0x258>
  4053cc:	48 81 fb 60 cf 60 00 	cmp    $0x60cf60,%rbx
  4053d3:	0f 84 7f 00 00 00    	je     405458 <MPI_Alltoallv+0x258>
  4053d9:	48 81 fb 40 b3 60 00 	cmp    $0x60b340,%rbx
  4053e0:	0f 84 82 00 00 00    	je     405468 <MPI_Alltoallv+0x268>
  4053e6:	8b 15 54 16 33 00    	mov    0x331654(%rip),%edx        # 736a40 <rank_pmpi>
  4053ec:	48 8b 3d 4d 6f 20 00 	mov    0x206f4d(%rip),%rdi        # 60c340 <stderr@@GLIBC_2.2.5>
  4053f3:	89 d9                	mov    %ebx,%ecx
  4053f5:	be 60 72 40 00       	mov    $0x407260,%esi
  4053fa:	31 c0                	xor    %eax,%eax
  4053fc:	e8 2f d1 ff ff       	callq  402530 <fprintf@plt>
  405401:	8b 54 24 3c          	mov    0x3c(%rsp),%edx
  405405:	31 c0                	xor    %eax,%eax
  405407:	66 0f 1f 84 00 00 00 	nopw   0x0(%rax,%rax,1)
  40540e:	00 00 
  405410:	41 83 c6 01          	add    $0x1,%r14d
  405414:	01 c5                	add    %eax,%ebp
  405416:	49 83 c5 04          	add    $0x4,%r13
  40541a:	41 39 d6             	cmp    %edx,%r14d
  40541d:	0f 8c 6d fe ff ff    	jl     405290 <MPI_Alltoallv+0x90>
  405423:	48 8b 35 1e 16 33 00 	mov    0x33161e(%rip),%rsi        # 736a48 <identity_gather_pmpi>
  40542a:	8b 3d 10 16 33 00    	mov    0x331610(%rip),%edi        # 736a40 <rank_pmpi>
  405430:	4d 89 e0             	mov    %r12,%r8
  405433:	4c 89 f9             	mov    %r15,%rcx
  405436:	89 ea                	mov    %ebp,%edx
  405438:	e8 43 f8 ff ff       	callq  404c80 <PinMPI_Alltoallv>
  40543d:	8b 44 24 2c          	mov    0x2c(%rsp),%eax
  405441:	48 83 c4 48          	add    $0x48,%rsp
  405445:	5b                   	pop    %rbx
  405446:	5d                   	pop    %rbp
  405447:	41 5c                	pop    %r12
  405449:	41 5d                	pop    %r13
  40544b:	41 5e                	pop    %r14
  40544d:	41 5f                	pop    %r15
  40544f:	c3                   	retq   
  405450:	c1 e0 02             	shl    $0x2,%eax
  405453:	eb bb                	jmp    405410 <MPI_Alltoallv+0x210>
  405455:	0f 1f 00             	nopl   (%rax)
  405458:	c1 e0 03             	shl    $0x3,%eax
  40545b:	eb b3                	jmp    405410 <MPI_Alltoallv+0x210>
  40545d:	0f 1f 00             	nopl   (%rax)
  405460:	01 c0                	add    %eax,%eax
  405462:	eb ac                	jmp    405410 <MPI_Alltoallv+0x210>
  405464:	0f 1f 40 00          	nopl   0x0(%rax)
  405468:	c1 e0 04             	shl    $0x4,%eax
  40546b:	0f 1f 44 00 00       	nopl   0x0(%rax,%rax,1)
  405470:	eb 9e                	jmp    405410 <MPI_Alltoallv+0x210>
  405472:	66 66 66 66 66 2e 0f 	data32 data32 data32 data32 nopw %cs:0x0(%rax,%rax,1)
  405479:	1f 84 00 00 00 00 00 

0000000000405480 <MPI_Alltoall>:
  405480:	48 89 5c 24 d0       	mov    %rbx,-0x30(%rsp)
  405485:	48 89 6c 24 d8       	mov    %rbp,-0x28(%rsp)
  40548a:	48 89 d3             	mov    %rdx,%rbx
  40548d:	4c 89 64 24 e0       	mov    %r12,-0x20(%rsp)
  405492:	4c 89 6c 24 e8       	mov    %r13,-0x18(%rsp)
  405497:	89 f5                	mov    %esi,%ebp
  405499:	4c 89 74 24 f0       	mov    %r14,-0x10(%rsp)
  40549e:	4c 89 7c 24 f8       	mov    %r15,-0x8(%rsp)
  4054a3:	48 83 ec 48          	sub    $0x48,%rsp
  4054a7:	4c 8b 74 24 50       	mov    0x50(%rsp),%r14
  4054ac:	49 89 fd             	mov    %rdi,%r13
  4054af:	49 89 cc             	mov    %rcx,%r12
  4054b2:	4c 89 34 24          	mov    %r14,(%rsp)
  4054b6:	e8 d5 cf ff ff       	callq  402490 <PMPI_Alltoall@plt>
  4054bb:	4d 89 f1             	mov    %r14,%r9
  4054be:	41 b8 40 bb 60 00    	mov    $0x60bb40,%r8d
  4054c4:	b9 40 af 60 00       	mov    $0x60af40,%ecx
  4054c9:	ba 01 00 00 00       	mov    $0x1,%edx
  4054ce:	be 48 6a 73 00       	mov    $0x736a48,%esi
  4054d3:	bf 08 67 73 00       	mov    $0x736708,%edi
  4054d8:	41 89 c7             	mov    %eax,%r15d
  4054db:	e8 a0 cf ff ff       	callq  402480 <PMPI_Allreduce@plt>
  4054e0:	48 81 fb 40 7f 60 00 	cmp    $0x607f40,%rbx
  4054e7:	0f 84 63 01 00 00    	je     405650 <MPI_Alltoall+0x1d0>
  4054ed:	48 81 fb 40 a7 60 00 	cmp    $0x60a740,%rbx
  4054f4:	0f 84 56 01 00 00    	je     405650 <MPI_Alltoall+0x1d0>
  4054fa:	48 81 fb 60 c9 60 00 	cmp    $0x60c960,%rbx
  405501:	0f 84 49 01 00 00    	je     405650 <MPI_Alltoall+0x1d0>
  405507:	48 81 fb 40 81 60 00 	cmp    $0x608140,%rbx
  40550e:	0f 84 84 01 00 00    	je     405698 <MPI_Alltoall+0x218>
  405514:	48 81 fb 40 93 60 00 	cmp    $0x609340,%rbx
  40551b:	0f 84 77 01 00 00    	je     405698 <MPI_Alltoall+0x218>
  405521:	48 81 fb 40 87 60 00 	cmp    $0x608740,%rbx
  405528:	0f 84 62 01 00 00    	je     405690 <MPI_Alltoall+0x210>
  40552e:	48 81 fb 40 ab 60 00 	cmp    $0x60ab40,%rbx
  405535:	0f 84 55 01 00 00    	je     405690 <MPI_Alltoall+0x210>
  40553b:	48 81 fb 60 c7 60 00 	cmp    $0x60c760,%rbx
  405542:	0f 84 48 01 00 00    	je     405690 <MPI_Alltoall+0x210>
  405548:	48 81 fb 60 cb 60 00 	cmp    $0x60cb60,%rbx
  40554f:	0f 84 4b 01 00 00    	je     4056a0 <MPI_Alltoall+0x220>
  405555:	48 81 fb 40 b9 60 00 	cmp    $0x60b940,%rbx
  40555c:	0f 84 3e 01 00 00    	je     4056a0 <MPI_Alltoall+0x220>
  405562:	48 81 fb 40 9d 60 00 	cmp    $0x609d40,%rbx
  405569:	0f 84 31 01 00 00    	je     4056a0 <MPI_Alltoall+0x220>
  40556f:	48 81 fb 40 b1 60 00 	cmp    $0x60b140,%rbx
  405576:	0f 84 24 01 00 00    	je     4056a0 <MPI_Alltoall+0x220>
  40557c:	48 81 fb 40 9b 60 00 	cmp    $0x609b40,%rbx
  405583:	0f 84 1f 01 00 00    	je     4056a8 <MPI_Alltoall+0x228>
  405589:	48 81 fb 40 99 60 00 	cmp    $0x609940,%rbx
  405590:	0f 84 ba 00 00 00    	je     405650 <MPI_Alltoall+0x1d0>
  405596:	48 81 fb 40 83 60 00 	cmp    $0x608340,%rbx
  40559d:	0f 84 ad 00 00 00    	je     405650 <MPI_Alltoall+0x1d0>
  4055a3:	48 81 fb 40 97 60 00 	cmp    $0x609740,%rbx
  4055aa:	0f 84 e8 00 00 00    	je     405698 <MPI_Alltoall+0x218>
  4055b0:	48 81 fb 60 cd 60 00 	cmp    $0x60cd60,%rbx
  4055b7:	0f 84 d3 00 00 00    	je     405690 <MPI_Alltoall+0x210>
  4055bd:	48 81 fb 60 c3 60 00 	cmp    $0x60c360,%rbx
  4055c4:	0f 84 c6 00 00 00    	je     405690 <MPI_Alltoall+0x210>
  4055ca:	48 81 fb 40 a9 60 00 	cmp    $0x60a940,%rbx
  4055d1:	0f 84 b9 00 00 00    	je     405690 <MPI_Alltoall+0x210>
  4055d7:	48 81 fb 40 89 60 00 	cmp    $0x608940,%rbx
  4055de:	0f 84 ac 00 00 00    	je     405690 <MPI_Alltoall+0x210>
  4055e4:	48 81 fb 40 95 60 00 	cmp    $0x609540,%rbx
  4055eb:	0f 84 9f 00 00 00    	je     405690 <MPI_Alltoall+0x210>
  4055f1:	48 81 fb 60 c5 60 00 	cmp    $0x60c560,%rbx
  4055f8:	0f 84 a2 00 00 00    	je     4056a0 <MPI_Alltoall+0x220>
  4055fe:	48 81 fb 40 85 60 00 	cmp    $0x608540,%rbx
  405605:	0f 84 95 00 00 00    	je     4056a0 <MPI_Alltoall+0x220>
  40560b:	48 81 fb 40 ad 60 00 	cmp    $0x60ad40,%rbx
  405612:	0f 84 88 00 00 00    	je     4056a0 <MPI_Alltoall+0x220>
  405618:	48 81 fb 60 cf 60 00 	cmp    $0x60cf60,%rbx
  40561f:	74 7f                	je     4056a0 <MPI_Alltoall+0x220>
  405621:	48 81 fb 40 b3 60 00 	cmp    $0x60b340,%rbx
  405628:	74 7e                	je     4056a8 <MPI_Alltoall+0x228>
  40562a:	8b 15 10 14 33 00    	mov    0x331410(%rip),%edx        # 736a40 <rank_pmpi>
  405630:	48 8b 3d 09 6d 20 00 	mov    0x206d09(%rip),%rdi        # 60c340 <stderr@@GLIBC_2.2.5>
  405637:	89 d9                	mov    %ebx,%ecx
  405639:	be 60 72 40 00       	mov    $0x407260,%esi
  40563e:	31 c0                	xor    %eax,%eax
  405640:	31 ed                	xor    %ebp,%ebp
  405642:	e8 e9 ce ff ff       	callq  402530 <fprintf@plt>
  405647:	66 0f 1f 84 00 00 00 	nopw   0x0(%rax,%rax,1)
  40564e:	00 00 
  405650:	48 8b 35 f1 13 33 00 	mov    0x3313f1(%rip),%rsi        # 736a48 <identity_gather_pmpi>
  405657:	8b 3d e3 13 33 00    	mov    0x3313e3(%rip),%edi        # 736a40 <rank_pmpi>
  40565d:	4d 89 e0             	mov    %r12,%r8
  405660:	4c 89 e9             	mov    %r13,%rcx
  405663:	89 ea                	mov    %ebp,%edx
  405665:	e8 f6 f5 ff ff       	callq  404c60 <PinMPI_Alltoall>
  40566a:	44 89 f8             	mov    %r15d,%eax
  40566d:	48 8b 5c 24 18       	mov    0x18(%rsp),%rbx
  405672:	48 8b 6c 24 20       	mov    0x20(%rsp),%rbp
  405677:	4c 8b 64 24 28       	mov    0x28(%rsp),%r12
  40567c:	4c 8b 6c 24 30       	mov    0x30(%rsp),%r13
  405681:	4c 8b 74 24 38       	mov    0x38(%rsp),%r14
  405686:	4c 8b 7c 24 40       	mov    0x40(%rsp),%r15
  40568b:	48 83 c4 48          	add    $0x48,%rsp
  40568f:	c3                   	retq   
  405690:	c1 e5 02             	shl    $0x2,%ebp
  405693:	eb bb                	jmp    405650 <MPI_Alltoall+0x1d0>
  405695:	0f 1f 00             	nopl   (%rax)
  405698:	01 ed                	add    %ebp,%ebp
  40569a:	eb b4                	jmp    405650 <MPI_Alltoall+0x1d0>
  40569c:	0f 1f 40 00          	nopl   0x0(%rax)
  4056a0:	c1 e5 03             	shl    $0x3,%ebp
  4056a3:	eb ab                	jmp    405650 <MPI_Alltoall+0x1d0>
  4056a5:	0f 1f 00             	nopl   (%rax)
  4056a8:	c1 e5 04             	shl    $0x4,%ebp
  4056ab:	0f 1f 44 00 00       	nopl   0x0(%rax,%rax,1)
  4056b0:	eb 9e                	jmp    405650 <MPI_Alltoall+0x1d0>
  4056b2:	66 66 66 66 66 2e 0f 	data32 data32 data32 data32 nopw %cs:0x0(%rax,%rax,1)
  4056b9:	1f 84 00 00 00 00 00 

00000000004056c0 <MPI_Allgather>:
  4056c0:	48 89 5c 24 d0       	mov    %rbx,-0x30(%rsp)
  4056c5:	48 89 6c 24 d8       	mov    %rbp,-0x28(%rsp)
  4056ca:	48 89 d3             	mov    %rdx,%rbx
  4056cd:	4c 89 64 24 e0       	mov    %r12,-0x20(%rsp)
  4056d2:	4c 89 6c 24 e8       	mov    %r13,-0x18(%rsp)
  4056d7:	89 f5                	mov    %esi,%ebp
  4056d9:	4c 89 74 24 f0       	mov    %r14,-0x10(%rsp)
  4056de:	4c 89 7c 24 f8       	mov    %r15,-0x8(%rsp)
  4056e3:	48 83 ec 48          	sub    $0x48,%rsp
  4056e7:	4c 8b 74 24 50       	mov    0x50(%rsp),%r14
  4056ec:	49 89 fd             	mov    %rdi,%r13
  4056ef:	49 89 cc             	mov    %rcx,%r12
  4056f2:	4c 89 34 24          	mov    %r14,(%rsp)
  4056f6:	e8 05 cd ff ff       	callq  402400 <PMPI_Allgather@plt>
  4056fb:	4d 89 f1             	mov    %r14,%r9
  4056fe:	41 b8 40 bb 60 00    	mov    $0x60bb40,%r8d
  405704:	b9 40 af 60 00       	mov    $0x60af40,%ecx
  405709:	ba 01 00 00 00       	mov    $0x1,%edx
  40570e:	be 48 6a 73 00       	mov    $0x736a48,%esi
  405713:	bf 08 67 73 00       	mov    $0x736708,%edi
  405718:	41 89 c7             	mov    %eax,%r15d
  40571b:	e8 60 cd ff ff       	callq  402480 <PMPI_Allreduce@plt>
  405720:	48 81 fb 40 7f 60 00 	cmp    $0x607f40,%rbx
  405727:	0f 84 63 01 00 00    	je     405890 <MPI_Allgather+0x1d0>
  40572d:	48 81 fb 40 a7 60 00 	cmp    $0x60a740,%rbx
  405734:	0f 84 56 01 00 00    	je     405890 <MPI_Allgather+0x1d0>
  40573a:	48 81 fb 60 c9 60 00 	cmp    $0x60c960,%rbx
  405741:	0f 84 49 01 00 00    	je     405890 <MPI_Allgather+0x1d0>
  405747:	48 81 fb 40 81 60 00 	cmp    $0x608140,%rbx
  40574e:	0f 84 84 01 00 00    	je     4058d8 <MPI_Allgather+0x218>
  405754:	48 81 fb 40 93 60 00 	cmp    $0x609340,%rbx
  40575b:	0f 84 77 01 00 00    	je     4058d8 <MPI_Allgather+0x218>
  405761:	48 81 fb 40 87 60 00 	cmp    $0x608740,%rbx
  405768:	0f 84 62 01 00 00    	je     4058d0 <MPI_Allgather+0x210>
  40576e:	48 81 fb 40 ab 60 00 	cmp    $0x60ab40,%rbx
  405775:	0f 84 55 01 00 00    	je     4058d0 <MPI_Allgather+0x210>
  40577b:	48 81 fb 60 c7 60 00 	cmp    $0x60c760,%rbx
  405782:	0f 84 48 01 00 00    	je     4058d0 <MPI_Allgather+0x210>
  405788:	48 81 fb 60 cb 60 00 	cmp    $0x60cb60,%rbx
  40578f:	0f 84 4b 01 00 00    	je     4058e0 <MPI_Allgather+0x220>
  405795:	48 81 fb 40 b9 60 00 	cmp    $0x60b940,%rbx
  40579c:	0f 84 3e 01 00 00    	je     4058e0 <MPI_Allgather+0x220>
  4057a2:	48 81 fb 40 9d 60 00 	cmp    $0x609d40,%rbx
  4057a9:	0f 84 31 01 00 00    	je     4058e0 <MPI_Allgather+0x220>
  4057af:	48 81 fb 40 b1 60 00 	cmp    $0x60b140,%rbx
  4057b6:	0f 84 24 01 00 00    	je     4058e0 <MPI_Allgather+0x220>
  4057bc:	48 81 fb 40 9b 60 00 	cmp    $0x609b40,%rbx
  4057c3:	0f 84 1f 01 00 00    	je     4058e8 <MPI_Allgather+0x228>
  4057c9:	48 81 fb 40 99 60 00 	cmp    $0x609940,%rbx
  4057d0:	0f 84 ba 00 00 00    	je     405890 <MPI_Allgather+0x1d0>
  4057d6:	48 81 fb 40 83 60 00 	cmp    $0x608340,%rbx
  4057dd:	0f 84 ad 00 00 00    	je     405890 <MPI_Allgather+0x1d0>
  4057e3:	48 81 fb 40 97 60 00 	cmp    $0x609740,%rbx
  4057ea:	0f 84 e8 00 00 00    	je     4058d8 <MPI_Allgather+0x218>
  4057f0:	48 81 fb 60 cd 60 00 	cmp    $0x60cd60,%rbx
  4057f7:	0f 84 d3 00 00 00    	je     4058d0 <MPI_Allgather+0x210>
  4057fd:	48 81 fb 60 c3 60 00 	cmp    $0x60c360,%rbx
  405804:	0f 84 c6 00 00 00    	je     4058d0 <MPI_Allgather+0x210>
  40580a:	48 81 fb 40 a9 60 00 	cmp    $0x60a940,%rbx
  405811:	0f 84 b9 00 00 00    	je     4058d0 <MPI_Allgather+0x210>
  405817:	48 81 fb 40 89 60 00 	cmp    $0x608940,%rbx
  40581e:	0f 84 ac 00 00 00    	je     4058d0 <MPI_Allgather+0x210>
  405824:	48 81 fb 40 95 60 00 	cmp    $0x609540,%rbx
  40582b:	0f 84 9f 00 00 00    	je     4058d0 <MPI_Allgather+0x210>
  405831:	48 81 fb 60 c5 60 00 	cmp    $0x60c560,%rbx
  405838:	0f 84 a2 00 00 00    	je     4058e0 <MPI_Allgather+0x220>
  40583e:	48 81 fb 40 85 60 00 	cmp    $0x608540,%rbx
  405845:	0f 84 95 00 00 00    	je     4058e0 <MPI_Allgather+0x220>
  40584b:	48 81 fb 40 ad 60 00 	cmp    $0x60ad40,%rbx
  405852:	0f 84 88 00 00 00    	je     4058e0 <MPI_Allgather+0x220>
  405858:	48 81 fb 60 cf 60 00 	cmp    $0x60cf60,%rbx
  40585f:	74 7f                	je     4058e0 <MPI_Allgather+0x220>
  405861:	48 81 fb 40 b3 60 00 	cmp    $0x60b340,%rbx
  405868:	74 7e                	je     4058e8 <MPI_Allgather+0x228>
  40586a:	8b 15 d0 11 33 00    	mov    0x3311d0(%rip),%edx        # 736a40 <rank_pmpi>
  405870:	48 8b 3d c9 6a 20 00 	mov    0x206ac9(%rip),%rdi        # 60c340 <stderr@@GLIBC_2.2.5>
  405877:	89 d9                	mov    %ebx,%ecx
  405879:	be 60 72 40 00       	mov    $0x407260,%esi
  40587e:	31 c0                	xor    %eax,%eax
  405880:	31 ed                	xor    %ebp,%ebp
  405882:	e8 a9 cc ff ff       	callq  402530 <fprintf@plt>
  405887:	66 0f 1f 84 00 00 00 	nopw   0x0(%rax,%rax,1)
  40588e:	00 00 
  405890:	48 8b 35 b1 11 33 00 	mov    0x3311b1(%rip),%rsi        # 736a48 <identity_gather_pmpi>
  405897:	8b 3d a3 11 33 00    	mov    0x3311a3(%rip),%edi        # 736a40 <rank_pmpi>
  40589d:	4d 89 e0             	mov    %r12,%r8
  4058a0:	4c 89 e9             	mov    %r13,%rcx
  4058a3:	89 ea                	mov    %ebp,%edx
  4058a5:	e8 96 f3 ff ff       	callq  404c40 <PinMPI_Allgather>
  4058aa:	44 89 f8             	mov    %r15d,%eax
  4058ad:	48 8b 5c 24 18       	mov    0x18(%rsp),%rbx
  4058b2:	48 8b 6c 24 20       	mov    0x20(%rsp),%rbp
  4058b7:	4c 8b 64 24 28       	mov    0x28(%rsp),%r12
  4058bc:	4c 8b 6c 24 30       	mov    0x30(%rsp),%r13
  4058c1:	4c 8b 74 24 38       	mov    0x38(%rsp),%r14
  4058c6:	4c 8b 7c 24 40       	mov    0x40(%rsp),%r15
  4058cb:	48 83 c4 48          	add    $0x48,%rsp
  4058cf:	c3                   	retq   
  4058d0:	c1 e5 02             	shl    $0x2,%ebp
  4058d3:	eb bb                	jmp    405890 <MPI_Allgather+0x1d0>
  4058d5:	0f 1f 00             	nopl   (%rax)
  4058d8:	01 ed                	add    %ebp,%ebp
  4058da:	eb b4                	jmp    405890 <MPI_Allgather+0x1d0>
  4058dc:	0f 1f 40 00          	nopl   0x0(%rax)
  4058e0:	c1 e5 03             	shl    $0x3,%ebp
  4058e3:	eb ab                	jmp    405890 <MPI_Allgather+0x1d0>
  4058e5:	0f 1f 00             	nopl   (%rax)
  4058e8:	c1 e5 04             	shl    $0x4,%ebp
  4058eb:	0f 1f 44 00 00       	nopl   0x0(%rax,%rax,1)
  4058f0:	eb 9e                	jmp    405890 <MPI_Allgather+0x1d0>
  4058f2:	66 66 66 66 66 2e 0f 	data32 data32 data32 data32 nopw %cs:0x0(%rax,%rax,1)
  4058f9:	1f 84 00 00 00 00 00 

0000000000405900 <MPI_Reduce>:
  405900:	48 89 5c 24 d0       	mov    %rbx,-0x30(%rsp)
  405905:	48 89 6c 24 d8       	mov    %rbp,-0x28(%rsp)
  40590a:	48 89 cb             	mov    %rcx,%rbx
  40590d:	4c 89 64 24 e0       	mov    %r12,-0x20(%rsp)
  405912:	4c 89 6c 24 e8       	mov    %r13,-0x18(%rsp)
  405917:	49 89 f4             	mov    %rsi,%r12
  40591a:	4c 89 74 24 f0       	mov    %r14,-0x10(%rsp)
  40591f:	4c 89 7c 24 f8       	mov    %r15,-0x8(%rsp)
  405924:	48 83 ec 58          	sub    $0x58,%rsp
  405928:	4c 8b 7c 24 60       	mov    0x60(%rsp),%r15
  40592d:	49 89 fd             	mov    %rdi,%r13
  405930:	89 d5                	mov    %edx,%ebp
  405932:	45 89 ce             	mov    %r9d,%r14d
  405935:	4c 89 3c 24          	mov    %r15,(%rsp)
  405939:	e8 32 cb ff ff       	callq  402470 <PMPI_Reduce@plt>
  40593e:	4d 89 f9             	mov    %r15,%r9
  405941:	41 b8 40 bb 60 00    	mov    $0x60bb40,%r8d
  405947:	b9 40 af 60 00       	mov    $0x60af40,%ecx
  40594c:	ba 01 00 00 00       	mov    $0x1,%edx
  405951:	be 48 6a 73 00       	mov    $0x736a48,%esi
  405956:	bf 08 67 73 00       	mov    $0x736708,%edi
  40595b:	89 44 24 1c          	mov    %eax,0x1c(%rsp)
  40595f:	e8 1c cb ff ff       	callq  402480 <PMPI_Allreduce@plt>
  405964:	48 81 fb 40 7f 60 00 	cmp    $0x607f40,%rbx
  40596b:	0f 84 67 01 00 00    	je     405ad8 <MPI_Reduce+0x1d8>
  405971:	48 81 fb 40 a7 60 00 	cmp    $0x60a740,%rbx
  405978:	0f 84 5a 01 00 00    	je     405ad8 <MPI_Reduce+0x1d8>
  40597e:	48 81 fb 60 c9 60 00 	cmp    $0x60c960,%rbx
  405985:	0f 84 4d 01 00 00    	je     405ad8 <MPI_Reduce+0x1d8>
  40598b:	48 81 fb 40 81 60 00 	cmp    $0x608140,%rbx
  405992:	0f 84 90 01 00 00    	je     405b28 <MPI_Reduce+0x228>
  405998:	48 81 fb 40 93 60 00 	cmp    $0x609340,%rbx
  40599f:	0f 84 83 01 00 00    	je     405b28 <MPI_Reduce+0x228>
  4059a5:	48 81 fb 40 87 60 00 	cmp    $0x608740,%rbx
  4059ac:	0f 84 6e 01 00 00    	je     405b20 <MPI_Reduce+0x220>
  4059b2:	48 81 fb 40 ab 60 00 	cmp    $0x60ab40,%rbx
  4059b9:	0f 84 61 01 00 00    	je     405b20 <MPI_Reduce+0x220>
  4059bf:	48 81 fb 60 c7 60 00 	cmp    $0x60c760,%rbx
  4059c6:	0f 84 54 01 00 00    	je     405b20 <MPI_Reduce+0x220>
  4059cc:	48 81 fb 60 cb 60 00 	cmp    $0x60cb60,%rbx
  4059d3:	0f 84 57 01 00 00    	je     405b30 <MPI_Reduce+0x230>
  4059d9:	48 81 fb 40 b9 60 00 	cmp    $0x60b940,%rbx
  4059e0:	0f 84 4a 01 00 00    	je     405b30 <MPI_Reduce+0x230>
  4059e6:	48 81 fb 40 9d 60 00 	cmp    $0x609d40,%rbx
  4059ed:	0f 84 3d 01 00 00    	je     405b30 <MPI_Reduce+0x230>
  4059f3:	48 81 fb 40 b1 60 00 	cmp    $0x60b140,%rbx
  4059fa:	0f 84 30 01 00 00    	je     405b30 <MPI_Reduce+0x230>
  405a00:	48 81 fb 40 9b 60 00 	cmp    $0x609b40,%rbx
  405a07:	0f 84 2b 01 00 00    	je     405b38 <MPI_Reduce+0x238>
  405a0d:	48 81 fb 40 99 60 00 	cmp    $0x609940,%rbx
  405a14:	0f 84 be 00 00 00    	je     405ad8 <MPI_Reduce+0x1d8>
  405a1a:	48 81 fb 40 83 60 00 	cmp    $0x608340,%rbx
  405a21:	0f 84 b1 00 00 00    	je     405ad8 <MPI_Reduce+0x1d8>
  405a27:	48 81 fb 40 97 60 00 	cmp    $0x609740,%rbx
  405a2e:	0f 84 f4 00 00 00    	je     405b28 <MPI_Reduce+0x228>
  405a34:	48 81 fb 60 cd 60 00 	cmp    $0x60cd60,%rbx
  405a3b:	0f 84 df 00 00 00    	je     405b20 <MPI_Reduce+0x220>
  405a41:	48 81 fb 60 c3 60 00 	cmp    $0x60c360,%rbx
  405a48:	0f 84 d2 00 00 00    	je     405b20 <MPI_Reduce+0x220>
  405a4e:	48 81 fb 40 a9 60 00 	cmp    $0x60a940,%rbx
  405a55:	0f 84 c5 00 00 00    	je     405b20 <MPI_Reduce+0x220>
  405a5b:	48 81 fb 40 89 60 00 	cmp    $0x608940,%rbx
  405a62:	0f 84 b8 00 00 00    	je     405b20 <MPI_Reduce+0x220>
  405a68:	48 81 fb 40 95 60 00 	cmp    $0x609540,%rbx
  405a6f:	0f 84 ab 00 00 00    	je     405b20 <MPI_Reduce+0x220>
  405a75:	48 81 fb 60 c5 60 00 	cmp    $0x60c560,%rbx
  405a7c:	0f 84 ae 00 00 00    	je     405b30 <MPI_Reduce+0x230>
  405a82:	48 81 fb 40 85 60 00 	cmp    $0x608540,%rbx
  405a89:	0f 84 a1 00 00 00    	je     405b30 <MPI_Reduce+0x230>
  405a8f:	48 81 fb 40 ad 60 00 	cmp    $0x60ad40,%rbx
  405a96:	0f 84 94 00 00 00    	je     405b30 <MPI_Reduce+0x230>
  405a9c:	48 81 fb 60 cf 60 00 	cmp    $0x60cf60,%rbx
  405aa3:	0f 84 87 00 00 00    	je     405b30 <MPI_Reduce+0x230>
  405aa9:	48 81 fb 40 b3 60 00 	cmp    $0x60b340,%rbx
  405ab0:	0f 84 82 00 00 00    	je     405b38 <MPI_Reduce+0x238>
  405ab6:	8b 15 84 0f 33 00    	mov    0x330f84(%rip),%edx        # 736a40 <rank_pmpi>
  405abc:	48 8b 3d 7d 68 20 00 	mov    0x20687d(%rip),%rdi        # 60c340 <stderr@@GLIBC_2.2.5>
  405ac3:	89 d9                	mov    %ebx,%ecx
  405ac5:	be 60 72 40 00       	mov    $0x407260,%esi
  405aca:	31 c0                	xor    %eax,%eax
  405acc:	31 ed                	xor    %ebp,%ebp
  405ace:	e8 5d ca ff ff       	callq  402530 <fprintf@plt>
  405ad3:	0f 1f 44 00 00       	nopl   0x0(%rax,%rax,1)
  405ad8:	48 8b 35 69 0f 33 00 	mov    0x330f69(%rip),%rsi        # 736a48 <identity_gather_pmpi>
  405adf:	8b 3d 5b 0f 33 00    	mov    0x330f5b(%rip),%edi        # 736a40 <rank_pmpi>
  405ae5:	4d 89 e1             	mov    %r12,%r9
  405ae8:	4d 89 e8             	mov    %r13,%r8
  405aeb:	89 e9                	mov    %ebp,%ecx
  405aed:	44 89 f2             	mov    %r14d,%edx
  405af0:	e8 0b f1 ff ff       	callq  404c00 <PinMPI_Reduce>
  405af5:	8b 44 24 1c          	mov    0x1c(%rsp),%eax
  405af9:	48 8b 5c 24 28       	mov    0x28(%rsp),%rbx
  405afe:	48 8b 6c 24 30       	mov    0x30(%rsp),%rbp
  405b03:	4c 8b 64 24 38       	mov    0x38(%rsp),%r12
  405b08:	4c 8b 6c 24 40       	mov    0x40(%rsp),%r13
  405b0d:	4c 8b 74 24 48       	mov    0x48(%rsp),%r14
  405b12:	4c 8b 7c 24 50       	mov    0x50(%rsp),%r15
  405b17:	48 83 c4 58          	add    $0x58,%rsp
  405b1b:	c3                   	retq   
  405b1c:	0f 1f 40 00          	nopl   0x0(%rax)
  405b20:	c1 e5 02             	shl    $0x2,%ebp
  405b23:	eb b3                	jmp    405ad8 <MPI_Reduce+0x1d8>
  405b25:	0f 1f 00             	nopl   (%rax)
  405b28:	01 ed                	add    %ebp,%ebp
  405b2a:	eb ac                	jmp    405ad8 <MPI_Reduce+0x1d8>
  405b2c:	0f 1f 40 00          	nopl   0x0(%rax)
  405b30:	c1 e5 03             	shl    $0x3,%ebp
  405b33:	eb a3                	jmp    405ad8 <MPI_Reduce+0x1d8>
  405b35:	0f 1f 00             	nopl   (%rax)
  405b38:	c1 e5 04             	shl    $0x4,%ebp
  405b3b:	0f 1f 44 00 00       	nopl   0x0(%rax,%rax,1)
  405b40:	eb 96                	jmp    405ad8 <MPI_Reduce+0x1d8>
  405b42:	66 66 66 66 66 2e 0f 	data32 data32 data32 data32 nopw %cs:0x0(%rax,%rax,1)
  405b49:	1f 84 00 00 00 00 00 

0000000000405b50 <MPI_Bcast>:
  405b50:	48 89 5c 24 d0       	mov    %rbx,-0x30(%rsp)
  405b55:	48 89 6c 24 d8       	mov    %rbp,-0x28(%rsp)
  405b5a:	48 89 d3             	mov    %rdx,%rbx
  405b5d:	4c 89 64 24 e0       	mov    %r12,-0x20(%rsp)
  405b62:	4c 89 6c 24 e8       	mov    %r13,-0x18(%rsp)
  405b67:	4d 89 c4             	mov    %r8,%r12
  405b6a:	4c 89 74 24 f0       	mov    %r14,-0x10(%rsp)
  405b6f:	4c 89 7c 24 f8       	mov    %r15,-0x8(%rsp)
  405b74:	48 83 ec 38          	sub    $0x38,%rsp
  405b78:	49 89 fd             	mov    %rdi,%r13
  405b7b:	89 f5                	mov    %esi,%ebp
  405b7d:	41 89 ce             	mov    %ecx,%r14d
  405b80:	e8 cb c9 ff ff       	callq  402550 <PMPI_Bcast@plt>
  405b85:	4d 89 e1             	mov    %r12,%r9
  405b88:	41 b8 40 bb 60 00    	mov    $0x60bb40,%r8d
  405b8e:	b9 40 af 60 00       	mov    $0x60af40,%ecx
  405b93:	ba 01 00 00 00       	mov    $0x1,%edx
  405b98:	be 48 6a 73 00       	mov    $0x736a48,%esi
  405b9d:	bf 08 67 73 00       	mov    $0x736708,%edi
  405ba2:	41 89 c7             	mov    %eax,%r15d
  405ba5:	e8 d6 c8 ff ff       	callq  402480 <PMPI_Allreduce@plt>
  405baa:	48 81 fb 40 7f 60 00 	cmp    $0x607f40,%rbx
  405bb1:	0f 84 69 01 00 00    	je     405d20 <MPI_Bcast+0x1d0>
  405bb7:	48 81 fb 40 a7 60 00 	cmp    $0x60a740,%rbx
  405bbe:	0f 84 5c 01 00 00    	je     405d20 <MPI_Bcast+0x1d0>
  405bc4:	48 81 fb 60 c9 60 00 	cmp    $0x60c960,%rbx
  405bcb:	0f 84 4f 01 00 00    	je     405d20 <MPI_Bcast+0x1d0>
  405bd1:	48 81 fb 40 81 60 00 	cmp    $0x608140,%rbx
  405bd8:	0f 84 8a 01 00 00    	je     405d68 <MPI_Bcast+0x218>
  405bde:	48 81 fb 40 93 60 00 	cmp    $0x609340,%rbx
  405be5:	0f 84 7d 01 00 00    	je     405d68 <MPI_Bcast+0x218>
  405beb:	48 81 fb 40 87 60 00 	cmp    $0x608740,%rbx
  405bf2:	0f 84 68 01 00 00    	je     405d60 <MPI_Bcast+0x210>
  405bf8:	48 81 fb 40 ab 60 00 	cmp    $0x60ab40,%rbx
  405bff:	0f 84 5b 01 00 00    	je     405d60 <MPI_Bcast+0x210>
  405c05:	48 81 fb 60 c7 60 00 	cmp    $0x60c760,%rbx
  405c0c:	0f 84 4e 01 00 00    	je     405d60 <MPI_Bcast+0x210>
  405c12:	48 81 fb 60 cb 60 00 	cmp    $0x60cb60,%rbx
  405c19:	0f 84 51 01 00 00    	je     405d70 <MPI_Bcast+0x220>
  405c1f:	48 81 fb 40 b9 60 00 	cmp    $0x60b940,%rbx
  405c26:	0f 84 44 01 00 00    	je     405d70 <MPI_Bcast+0x220>
  405c2c:	48 81 fb 40 9d 60 00 	cmp    $0x609d40,%rbx
  405c33:	0f 84 37 01 00 00    	je     405d70 <MPI_Bcast+0x220>
  405c39:	48 81 fb 40 b1 60 00 	cmp    $0x60b140,%rbx
  405c40:	0f 84 2a 01 00 00    	je     405d70 <MPI_Bcast+0x220>
  405c46:	48 81 fb 40 9b 60 00 	cmp    $0x609b40,%rbx
  405c4d:	0f 84 25 01 00 00    	je     405d78 <MPI_Bcast+0x228>
  405c53:	48 81 fb 40 99 60 00 	cmp    $0x609940,%rbx
  405c5a:	0f 84 c0 00 00 00    	je     405d20 <MPI_Bcast+0x1d0>
  405c60:	48 81 fb 40 83 60 00 	cmp    $0x608340,%rbx
  405c67:	0f 84 b3 00 00 00    	je     405d20 <MPI_Bcast+0x1d0>
  405c6d:	48 81 fb 40 97 60 00 	cmp    $0x609740,%rbx
  405c74:	0f 84 ee 00 00 00    	je     405d68 <MPI_Bcast+0x218>
  405c7a:	48 81 fb 60 cd 60 00 	cmp    $0x60cd60,%rbx
  405c81:	0f 84 d9 00 00 00    	je     405d60 <MPI_Bcast+0x210>
  405c87:	48 81 fb 60 c3 60 00 	cmp    $0x60c360,%rbx
  405c8e:	0f 84 cc 00 00 00    	je     405d60 <MPI_Bcast+0x210>
  405c94:	48 81 fb 40 a9 60 00 	cmp    $0x60a940,%rbx
  405c9b:	0f 84 bf 00 00 00    	je     405d60 <MPI_Bcast+0x210>
  405ca1:	48 81 fb 40 89 60 00 	cmp    $0x608940,%rbx
  405ca8:	0f 84 b2 00 00 00    	je     405d60 <MPI_Bcast+0x210>
  405cae:	48 81 fb 40 95 60 00 	cmp    $0x609540,%rbx
  405cb5:	0f 84 a5 00 00 00    	je     405d60 <MPI_Bcast+0x210>
  405cbb:	48 81 fb 60 c5 60 00 	cmp    $0x60c560,%rbx
  405cc2:	0f 84 a8 00 00 00    	je     405d70 <MPI_Bcast+0x220>
  405cc8:	48 81 fb 40 85 60 00 	cmp    $0x608540,%rbx
  405ccf:	0f 84 9b 00 00 00    	je     405d70 <MPI_Bcast+0x220>
  405cd5:	48 81 fb 40 ad 60 00 	cmp    $0x60ad40,%rbx
  405cdc:	0f 84 8e 00 00 00    	je     405d70 <MPI_Bcast+0x220>
  405ce2:	48 81 fb 60 cf 60 00 	cmp    $0x60cf60,%rbx
  405ce9:	0f 84 81 00 00 00    	je     405d70 <MPI_Bcast+0x220>
  405cef:	48 81 fb 40 b3 60 00 	cmp    $0x60b340,%rbx
  405cf6:	0f 84 7c 00 00 00    	je     405d78 <MPI_Bcast+0x228>
  405cfc:	8b 15 3e 0d 33 00    	mov    0x330d3e(%rip),%edx        # 736a40 <rank_pmpi>
  405d02:	48 8b 3d 37 66 20 00 	mov    0x206637(%rip),%rdi        # 60c340 <stderr@@GLIBC_2.2.5>
  405d09:	89 d9                	mov    %ebx,%ecx
  405d0b:	be 60 72 40 00       	mov    $0x407260,%esi
  405d10:	31 c0                	xor    %eax,%eax
  405d12:	31 ed                	xor    %ebp,%ebp
  405d14:	e8 17 c8 ff ff       	callq  402530 <fprintf@plt>
  405d19:	0f 1f 80 00 00 00 00 	nopl   0x0(%rax)
  405d20:	48 8b 35 21 0d 33 00 	mov    0x330d21(%rip),%rsi        # 736a48 <identity_gather_pmpi>
  405d27:	8b 3d 13 0d 33 00    	mov    0x330d13(%rip),%edi        # 736a40 <rank_pmpi>
  405d2d:	4d 89 e8             	mov    %r13,%r8
  405d30:	89 e9                	mov    %ebp,%ecx
  405d32:	44 89 f2             	mov    %r14d,%edx
  405d35:	e8 a6 ee ff ff       	callq  404be0 <PinMPI_Bcast>
  405d3a:	44 89 f8             	mov    %r15d,%eax
  405d3d:	48 8b 5c 24 08       	mov    0x8(%rsp),%rbx
  405d42:	48 8b 6c 24 10       	mov    0x10(%rsp),%rbp
  405d47:	4c 8b 64 24 18       	mov    0x18(%rsp),%r12
  405d4c:	4c 8b 6c 24 20       	mov    0x20(%rsp),%r13
  405d51:	4c 8b 74 24 28       	mov    0x28(%rsp),%r14
  405d56:	4c 8b 7c 24 30       	mov    0x30(%rsp),%r15
  405d5b:	48 83 c4 38          	add    $0x38,%rsp
  405d5f:	c3                   	retq   
  405d60:	c1 e5 02             	shl    $0x2,%ebp
  405d63:	eb bb                	jmp    405d20 <MPI_Bcast+0x1d0>
  405d65:	0f 1f 00             	nopl   (%rax)
  405d68:	01 ed                	add    %ebp,%ebp
  405d6a:	eb b4                	jmp    405d20 <MPI_Bcast+0x1d0>
  405d6c:	0f 1f 40 00          	nopl   0x0(%rax)
  405d70:	c1 e5 03             	shl    $0x3,%ebp
  405d73:	eb ab                	jmp    405d20 <MPI_Bcast+0x1d0>
  405d75:	0f 1f 00             	nopl   (%rax)
  405d78:	c1 e5 04             	shl    $0x4,%ebp
  405d7b:	0f 1f 44 00 00       	nopl   0x0(%rax,%rax,1)
  405d80:	eb 9e                	jmp    405d20 <MPI_Bcast+0x1d0>
  405d82:	66 66 66 66 66 2e 0f 	data32 data32 data32 data32 nopw %cs:0x0(%rax,%rax,1)
  405d89:	1f 84 00 00 00 00 00 

0000000000405d90 <MPI_Irecv>:
  405d90:	48 89 5c 24 d0       	mov    %rbx,-0x30(%rsp)
  405d95:	48 89 6c 24 d8       	mov    %rbp,-0x28(%rsp)
  405d9a:	48 89 d3             	mov    %rdx,%rbx
  405d9d:	4c 89 64 24 e0       	mov    %r12,-0x20(%rsp)
  405da2:	4c 89 6c 24 e8       	mov    %r13,-0x18(%rsp)
  405da7:	49 89 fa             	mov    %rdi,%r10
  405daa:	4c 89 74 24 f0       	mov    %r14,-0x10(%rsp)
  405daf:	4c 89 7c 24 f8       	mov    %r15,-0x8(%rsp)
  405db4:	48 83 ec 58          	sub    $0x58,%rsp
  405db8:	48 8b 44 24 60       	mov    0x60(%rsp),%rax
  405dbd:	41 89 cd             	mov    %ecx,%r13d
  405dc0:	89 f5                	mov    %esi,%ebp
  405dc2:	45 89 c7             	mov    %r8d,%r15d
  405dc5:	4d 89 cc             	mov    %r9,%r12
  405dc8:	89 f1                	mov    %esi,%ecx
  405dca:	48 89 44 24 18       	mov    %rax,0x18(%rsp)
  405dcf:	8b 05 2b 09 33 00    	mov    0x33092b(%rip),%eax        # 736700 <i_req_push>
  405dd5:	4c 63 f0             	movslq %eax,%r14
  405dd8:	4b 8d 14 b6          	lea    (%r14,%r14,4),%rdx
  405ddc:	48 c1 e2 03          	shl    $0x3,%rdx
  405de0:	48 81 fb 40 7f 60 00 	cmp    $0x607f40,%rbx
  405de7:	c6 82 20 67 73 00 72 	movb   $0x72,0x736720(%rdx)
  405dee:	44 89 82 28 67 73 00 	mov    %r8d,0x736728(%rdx)
  405df5:	89 c2                	mov    %eax,%edx
  405df7:	0f 84 73 01 00 00    	je     405f70 <MPI_Irecv+0x1e0>
  405dfd:	48 81 fb 40 a7 60 00 	cmp    $0x60a740,%rbx
  405e04:	0f 84 66 01 00 00    	je     405f70 <MPI_Irecv+0x1e0>
  405e0a:	48 81 fb 60 c9 60 00 	cmp    $0x60c960,%rbx
  405e11:	0f 84 59 01 00 00    	je     405f70 <MPI_Irecv+0x1e0>
  405e17:	48 81 fb 40 81 60 00 	cmp    $0x608140,%rbx
  405e1e:	0f 84 6c 02 00 00    	je     406090 <MPI_Irecv+0x300>
  405e24:	48 81 fb 40 93 60 00 	cmp    $0x609340,%rbx
  405e2b:	0f 84 3f 02 00 00    	je     406070 <MPI_Irecv+0x2e0>
  405e31:	48 81 fb 40 87 60 00 	cmp    $0x608740,%rbx
  405e38:	0f 84 1a 02 00 00    	je     406058 <MPI_Irecv+0x2c8>
  405e3e:	48 81 fb 40 ab 60 00 	cmp    $0x60ab40,%rbx
  405e45:	0f 84 0d 02 00 00    	je     406058 <MPI_Irecv+0x2c8>
  405e4b:	48 81 fb 60 c7 60 00 	cmp    $0x60c760,%rbx
  405e52:	0f 84 00 02 00 00    	je     406058 <MPI_Irecv+0x2c8>
  405e58:	48 81 fb 60 cb 60 00 	cmp    $0x60cb60,%rbx
  405e5f:	0f 84 1b 02 00 00    	je     406080 <MPI_Irecv+0x2f0>
  405e65:	48 81 fb 40 b9 60 00 	cmp    $0x60b940,%rbx
  405e6c:	0f 84 0e 02 00 00    	je     406080 <MPI_Irecv+0x2f0>
  405e72:	48 81 fb 40 9d 60 00 	cmp    $0x609d40,%rbx
  405e79:	0f 84 01 02 00 00    	je     406080 <MPI_Irecv+0x2f0>
  405e7f:	48 81 fb 40 b1 60 00 	cmp    $0x60b140,%rbx
  405e86:	0f 84 f4 01 00 00    	je     406080 <MPI_Irecv+0x2f0>
  405e8c:	48 81 fb 40 9b 60 00 	cmp    $0x609b40,%rbx
  405e93:	0f 84 17 02 00 00    	je     4060b0 <MPI_Irecv+0x320>
  405e99:	48 81 fb 40 99 60 00 	cmp    $0x609940,%rbx
  405ea0:	0f 84 fa 01 00 00    	je     4060a0 <MPI_Irecv+0x310>
  405ea6:	48 81 fb 40 83 60 00 	cmp    $0x608340,%rbx
  405ead:	0f 84 ed 01 00 00    	je     4060a0 <MPI_Irecv+0x310>
  405eb3:	48 81 fb 40 97 60 00 	cmp    $0x609740,%rbx
  405eba:	0f 84 b0 01 00 00    	je     406070 <MPI_Irecv+0x2e0>
  405ec0:	48 81 fb 60 cd 60 00 	cmp    $0x60cd60,%rbx
  405ec7:	0f 84 8b 01 00 00    	je     406058 <MPI_Irecv+0x2c8>
  405ecd:	48 81 fb 60 c3 60 00 	cmp    $0x60c360,%rbx
  405ed4:	0f 84 7e 01 00 00    	je     406058 <MPI_Irecv+0x2c8>
  405eda:	48 81 fb 40 a9 60 00 	cmp    $0x60a940,%rbx
  405ee1:	0f 84 71 01 00 00    	je     406058 <MPI_Irecv+0x2c8>
  405ee7:	48 81 fb 40 89 60 00 	cmp    $0x608940,%rbx
  405eee:	0f 84 64 01 00 00    	je     406058 <MPI_Irecv+0x2c8>
  405ef4:	48 81 fb 40 95 60 00 	cmp    $0x609540,%rbx
  405efb:	0f 84 57 01 00 00    	je     406058 <MPI_Irecv+0x2c8>
  405f01:	48 81 fb 60 c5 60 00 	cmp    $0x60c560,%rbx
  405f08:	0f 84 72 01 00 00    	je     406080 <MPI_Irecv+0x2f0>
  405f0e:	48 81 fb 40 85 60 00 	cmp    $0x608540,%rbx
  405f15:	0f 84 65 01 00 00    	je     406080 <MPI_Irecv+0x2f0>
  405f1b:	48 81 fb 40 ad 60 00 	cmp    $0x60ad40,%rbx
  405f22:	0f 84 58 01 00 00    	je     406080 <MPI_Irecv+0x2f0>
  405f28:	48 81 fb 60 cf 60 00 	cmp    $0x60cf60,%rbx
  405f2f:	0f 84 4b 01 00 00    	je     406080 <MPI_Irecv+0x2f0>
  405f35:	48 81 fb 40 b3 60 00 	cmp    $0x60b340,%rbx
  405f3c:	0f 84 6e 01 00 00    	je     4060b0 <MPI_Irecv+0x320>
  405f42:	8b 15 f8 0a 33 00    	mov    0x330af8(%rip),%edx        # 736a40 <rank_pmpi>
  405f48:	48 8b 3d f1 63 20 00 	mov    0x2063f1(%rip),%rdi        # 60c340 <stderr@@GLIBC_2.2.5>
  405f4f:	89 d9                	mov    %ebx,%ecx
  405f51:	be 60 72 40 00       	mov    $0x407260,%esi
  405f56:	31 c0                	xor    %eax,%eax
  405f58:	4c 89 54 24 10       	mov    %r10,0x10(%rsp)
  405f5d:	e8 ce c5 ff ff       	callq  402530 <fprintf@plt>
  405f62:	8b 15 98 07 33 00    	mov    0x330798(%rip),%edx        # 736700 <i_req_push>
  405f68:	4c 8b 54 24 10       	mov    0x10(%rsp),%r10
  405f6d:	31 c9                	xor    %ecx,%ecx
  405f6f:	90                   	nop
  405f70:	4b 8d 04 b6          	lea    (%r14,%r14,4),%rax
  405f74:	48 63 d2             	movslq %edx,%rdx
  405f77:	4d 89 e1             	mov    %r12,%r9
  405f7a:	41 b8 59 02 00 00    	mov    $0x259,%r8d
  405f80:	be 01 00 00 00       	mov    $0x1,%esi
  405f85:	4c 89 54 24 10       	mov    %r10,0x10(%rsp)
  405f8a:	89 0c c5 2c 67 73 00 	mov    %ecx,0x73672c(,%rax,8)
  405f91:	48 8d 04 92          	lea    (%rdx,%rdx,4),%rax
  405f95:	44 89 e9             	mov    %r13d,%ecx
  405f98:	ba 40 87 60 00       	mov    $0x608740,%edx
  405f9d:	48 c1 e0 03          	shl    $0x3,%rax
  405fa1:	48 8d b8 24 67 73 00 	lea    0x736724(%rax),%rdi
  405fa8:	4c 89 90 30 67 73 00 	mov    %r10,0x736730(%rax)
  405faf:	48 05 40 67 73 00    	add    $0x736740,%rax
  405fb5:	48 89 04 24          	mov    %rax,(%rsp)
  405fb9:	e8 f2 c4 ff ff       	callq  4024b0 <PMPI_Irecv@plt>
  405fbe:	48 63 05 3b 07 33 00 	movslq 0x33073b(%rip),%rax        # 736700 <i_req_push>
  405fc5:	4d 89 e1             	mov    %r12,%r9
  405fc8:	44 89 e9             	mov    %r13d,%ecx
  405fcb:	41 b8 59 02 00 00    	mov    $0x259,%r8d
  405fd1:	ba 40 87 60 00       	mov    $0x608740,%edx
  405fd6:	be 01 00 00 00       	mov    $0x1,%esi
  405fdb:	bf 40 6a 73 00       	mov    $0x736a40,%edi
  405fe0:	48 8d 04 80          	lea    (%rax,%rax,4),%rax
  405fe4:	48 8d 04 c5 38 67 73 	lea    0x736738(,%rax,8),%rax
  405feb:	00 
  405fec:	48 89 04 24          	mov    %rax,(%rsp)
  405ff0:	e8 cb c4 ff ff       	callq  4024c0 <PMPI_Isend@plt>
  405ff5:	8b 15 05 07 33 00    	mov    0x330705(%rip),%edx        # 736700 <i_req_push>
  405ffb:	31 c0                	xor    %eax,%eax
  405ffd:	4c 8b 54 24 10       	mov    0x10(%rsp),%r10
  406002:	4d 89 e1             	mov    %r12,%r9
  406005:	45 89 f8             	mov    %r15d,%r8d
  406008:	44 89 e9             	mov    %r13d,%ecx
  40600b:	89 ee                	mov    %ebp,%esi
  40600d:	4c 8b 64 24 38       	mov    0x38(%rsp),%r12
  406012:	48 8b 6c 24 30       	mov    0x30(%rsp),%rbp
  406017:	83 c2 01             	add    $0x1,%edx
  40601a:	4c 8b 6c 24 40       	mov    0x40(%rsp),%r13
  40601f:	4c 8b 74 24 48       	mov    0x48(%rsp),%r14
  406024:	83 fa 14             	cmp    $0x14,%edx
  406027:	4c 8b 7c 24 50       	mov    0x50(%rsp),%r15
  40602c:	4c 89 d7             	mov    %r10,%rdi
  40602f:	0f 45 c2             	cmovne %edx,%eax
  406032:	48 89 da             	mov    %rbx,%rdx
  406035:	48 8b 5c 24 28       	mov    0x28(%rsp),%rbx
  40603a:	89 05 c0 06 33 00    	mov    %eax,0x3306c0(%rip)        # 736700 <i_req_push>
  406040:	48 8b 44 24 18       	mov    0x18(%rsp),%rax
  406045:	48 89 44 24 60       	mov    %rax,0x60(%rsp)
  40604a:	48 83 c4 58          	add    $0x58,%rsp
  40604e:	e9 5d c4 ff ff       	jmpq   4024b0 <PMPI_Irecv@plt>
  406053:	0f 1f 44 00 00       	nopl   0x0(%rax,%rax,1)
  406058:	8d 0c ad 00 00 00 00 	lea    0x0(,%rbp,4),%ecx
  40605f:	89 c2                	mov    %eax,%edx
  406061:	e9 0a ff ff ff       	jmpq   405f70 <MPI_Irecv+0x1e0>
  406066:	66 2e 0f 1f 84 00 00 	nopw   %cs:0x0(%rax,%rax,1)
  40606d:	00 00 00 
  406070:	8d 4c 2d 00          	lea    0x0(%rbp,%rbp,1),%ecx
  406074:	89 c2                	mov    %eax,%edx
  406076:	e9 f5 fe ff ff       	jmpq   405f70 <MPI_Irecv+0x1e0>
  40607b:	0f 1f 44 00 00       	nopl   0x0(%rax,%rax,1)
  406080:	8d 0c ed 00 00 00 00 	lea    0x0(,%rbp,8),%ecx
  406087:	89 c2                	mov    %eax,%edx
  406089:	e9 e2 fe ff ff       	jmpq   405f70 <MPI_Irecv+0x1e0>
  40608e:	66 90                	xchg   %ax,%ax
  406090:	8d 4c 2d 00          	lea    0x0(%rbp,%rbp,1),%ecx
  406094:	e9 d7 fe ff ff       	jmpq   405f70 <MPI_Irecv+0x1e0>
  406099:	0f 1f 80 00 00 00 00 	nopl   0x0(%rax)
  4060a0:	89 e9                	mov    %ebp,%ecx
  4060a2:	89 c2                	mov    %eax,%edx
  4060a4:	e9 c7 fe ff ff       	jmpq   405f70 <MPI_Irecv+0x1e0>
  4060a9:	0f 1f 80 00 00 00 00 	nopl   0x0(%rax)
  4060b0:	89 e9                	mov    %ebp,%ecx
  4060b2:	89 c2                	mov    %eax,%edx
  4060b4:	c1 e1 04             	shl    $0x4,%ecx
  4060b7:	e9 b4 fe ff ff       	jmpq   405f70 <MPI_Irecv+0x1e0>
  4060bc:	0f 1f 40 00          	nopl   0x0(%rax)

00000000004060c0 <MPI_Isend>:
  4060c0:	48 89 5c 24 d0       	mov    %rbx,-0x30(%rsp)
  4060c5:	48 89 6c 24 d8       	mov    %rbp,-0x28(%rsp)
  4060ca:	48 89 d3             	mov    %rdx,%rbx
  4060cd:	4c 89 64 24 e0       	mov    %r12,-0x20(%rsp)
  4060d2:	4c 89 6c 24 e8       	mov    %r13,-0x18(%rsp)
  4060d7:	49 89 fa             	mov    %rdi,%r10
  4060da:	4c 89 74 24 f0       	mov    %r14,-0x10(%rsp)
  4060df:	4c 89 7c 24 f8       	mov    %r15,-0x8(%rsp)
  4060e4:	48 83 ec 58          	sub    $0x58,%rsp
  4060e8:	48 8b 44 24 60       	mov    0x60(%rsp),%rax
  4060ed:	41 89 cd             	mov    %ecx,%r13d
  4060f0:	89 f5                	mov    %esi,%ebp
  4060f2:	45 89 c7             	mov    %r8d,%r15d
  4060f5:	4d 89 cc             	mov    %r9,%r12
  4060f8:	89 f1                	mov    %esi,%ecx
  4060fa:	48 89 44 24 18       	mov    %rax,0x18(%rsp)
  4060ff:	8b 05 fb 05 33 00    	mov    0x3305fb(%rip),%eax        # 736700 <i_req_push>
  406105:	4c 63 f0             	movslq %eax,%r14
  406108:	4b 8d 14 b6          	lea    (%r14,%r14,4),%rdx
  40610c:	48 c1 e2 03          	shl    $0x3,%rdx
  406110:	48 81 fb 40 7f 60 00 	cmp    $0x607f40,%rbx
  406117:	c6 82 20 67 73 00 73 	movb   $0x73,0x736720(%rdx)
  40611e:	44 89 82 28 67 73 00 	mov    %r8d,0x736728(%rdx)
  406125:	89 c2                	mov    %eax,%edx
  406127:	0f 84 73 01 00 00    	je     4062a0 <MPI_Isend+0x1e0>
  40612d:	48 81 fb 40 a7 60 00 	cmp    $0x60a740,%rbx
  406134:	0f 84 66 01 00 00    	je     4062a0 <MPI_Isend+0x1e0>
  40613a:	48 81 fb 60 c9 60 00 	cmp    $0x60c960,%rbx
  406141:	0f 84 59 01 00 00    	je     4062a0 <MPI_Isend+0x1e0>
  406147:	48 81 fb 40 81 60 00 	cmp    $0x608140,%rbx
  40614e:	0f 84 6c 02 00 00    	je     4063c0 <MPI_Isend+0x300>
  406154:	48 81 fb 40 93 60 00 	cmp    $0x609340,%rbx
  40615b:	0f 84 3f 02 00 00    	je     4063a0 <MPI_Isend+0x2e0>
  406161:	48 81 fb 40 87 60 00 	cmp    $0x608740,%rbx
  406168:	0f 84 1a 02 00 00    	je     406388 <MPI_Isend+0x2c8>
  40616e:	48 81 fb 40 ab 60 00 	cmp    $0x60ab40,%rbx
  406175:	0f 84 0d 02 00 00    	je     406388 <MPI_Isend+0x2c8>
  40617b:	48 81 fb 60 c7 60 00 	cmp    $0x60c760,%rbx
  406182:	0f 84 00 02 00 00    	je     406388 <MPI_Isend+0x2c8>
  406188:	48 81 fb 60 cb 60 00 	cmp    $0x60cb60,%rbx
  40618f:	0f 84 1b 02 00 00    	je     4063b0 <MPI_Isend+0x2f0>
  406195:	48 81 fb 40 b9 60 00 	cmp    $0x60b940,%rbx
  40619c:	0f 84 0e 02 00 00    	je     4063b0 <MPI_Isend+0x2f0>
  4061a2:	48 81 fb 40 9d 60 00 	cmp    $0x609d40,%rbx
  4061a9:	0f 84 01 02 00 00    	je     4063b0 <MPI_Isend+0x2f0>
  4061af:	48 81 fb 40 b1 60 00 	cmp    $0x60b140,%rbx
  4061b6:	0f 84 f4 01 00 00    	je     4063b0 <MPI_Isend+0x2f0>
  4061bc:	48 81 fb 40 9b 60 00 	cmp    $0x609b40,%rbx
  4061c3:	0f 84 17 02 00 00    	je     4063e0 <MPI_Isend+0x320>
  4061c9:	48 81 fb 40 99 60 00 	cmp    $0x609940,%rbx
  4061d0:	0f 84 fa 01 00 00    	je     4063d0 <MPI_Isend+0x310>
  4061d6:	48 81 fb 40 83 60 00 	cmp    $0x608340,%rbx
  4061dd:	0f 84 ed 01 00 00    	je     4063d0 <MPI_Isend+0x310>
  4061e3:	48 81 fb 40 97 60 00 	cmp    $0x609740,%rbx
  4061ea:	0f 84 b0 01 00 00    	je     4063a0 <MPI_Isend+0x2e0>
  4061f0:	48 81 fb 60 cd 60 00 	cmp    $0x60cd60,%rbx
  4061f7:	0f 84 8b 01 00 00    	je     406388 <MPI_Isend+0x2c8>
  4061fd:	48 81 fb 60 c3 60 00 	cmp    $0x60c360,%rbx
  406204:	0f 84 7e 01 00 00    	je     406388 <MPI_Isend+0x2c8>
  40620a:	48 81 fb 40 a9 60 00 	cmp    $0x60a940,%rbx
  406211:	0f 84 71 01 00 00    	je     406388 <MPI_Isend+0x2c8>
  406217:	48 81 fb 40 89 60 00 	cmp    $0x608940,%rbx
  40621e:	0f 84 64 01 00 00    	je     406388 <MPI_Isend+0x2c8>
  406224:	48 81 fb 40 95 60 00 	cmp    $0x609540,%rbx
  40622b:	0f 84 57 01 00 00    	je     406388 <MPI_Isend+0x2c8>
  406231:	48 81 fb 60 c5 60 00 	cmp    $0x60c560,%rbx
  406238:	0f 84 72 01 00 00    	je     4063b0 <MPI_Isend+0x2f0>
  40623e:	48 81 fb 40 85 60 00 	cmp    $0x608540,%rbx
  406245:	0f 84 65 01 00 00    	je     4063b0 <MPI_Isend+0x2f0>
  40624b:	48 81 fb 40 ad 60 00 	cmp    $0x60ad40,%rbx
  406252:	0f 84 58 01 00 00    	je     4063b0 <MPI_Isend+0x2f0>
  406258:	48 81 fb 60 cf 60 00 	cmp    $0x60cf60,%rbx
  40625f:	0f 84 4b 01 00 00    	je     4063b0 <MPI_Isend+0x2f0>
  406265:	48 81 fb 40 b3 60 00 	cmp    $0x60b340,%rbx
  40626c:	0f 84 6e 01 00 00    	je     4063e0 <MPI_Isend+0x320>
  406272:	8b 15 c8 07 33 00    	mov    0x3307c8(%rip),%edx        # 736a40 <rank_pmpi>
  406278:	48 8b 3d c1 60 20 00 	mov    0x2060c1(%rip),%rdi        # 60c340 <stderr@@GLIBC_2.2.5>
  40627f:	89 d9                	mov    %ebx,%ecx
  406281:	be 60 72 40 00       	mov    $0x407260,%esi
  406286:	31 c0                	xor    %eax,%eax
  406288:	4c 89 54 24 10       	mov    %r10,0x10(%rsp)
  40628d:	e8 9e c2 ff ff       	callq  402530 <fprintf@plt>
  406292:	8b 15 68 04 33 00    	mov    0x330468(%rip),%edx        # 736700 <i_req_push>
  406298:	4c 8b 54 24 10       	mov    0x10(%rsp),%r10
  40629d:	31 c9                	xor    %ecx,%ecx
  40629f:	90                   	nop
  4062a0:	4b 8d 04 b6          	lea    (%r14,%r14,4),%rax
  4062a4:	48 63 d2             	movslq %edx,%rdx
  4062a7:	4d 89 e1             	mov    %r12,%r9
  4062aa:	41 b8 59 02 00 00    	mov    $0x259,%r8d
  4062b0:	be 01 00 00 00       	mov    $0x1,%esi
  4062b5:	bf 40 6a 73 00       	mov    $0x736a40,%edi
  4062ba:	89 0c c5 2c 67 73 00 	mov    %ecx,0x73672c(,%rax,8)
  4062c1:	48 8d 04 92          	lea    (%rdx,%rdx,4),%rax
  4062c5:	44 89 e9             	mov    %r13d,%ecx
  4062c8:	ba 40 87 60 00       	mov    $0x608740,%edx
  4062cd:	4c 89 54 24 10       	mov    %r10,0x10(%rsp)
  4062d2:	48 c1 e0 03          	shl    $0x3,%rax
  4062d6:	4c 89 90 30 67 73 00 	mov    %r10,0x736730(%rax)
  4062dd:	48 05 38 67 73 00    	add    $0x736738,%rax
  4062e3:	48 89 04 24          	mov    %rax,(%rsp)
  4062e7:	e8 d4 c1 ff ff       	callq  4024c0 <PMPI_Isend@plt>
  4062ec:	48 63 05 0d 04 33 00 	movslq 0x33040d(%rip),%rax        # 736700 <i_req_push>
  4062f3:	4d 89 e1             	mov    %r12,%r9
  4062f6:	44 89 e9             	mov    %r13d,%ecx
  4062f9:	41 b8 59 02 00 00    	mov    $0x259,%r8d
  4062ff:	ba 40 87 60 00       	mov    $0x608740,%edx
  406304:	be 01 00 00 00       	mov    $0x1,%esi
  406309:	48 8d 04 80          	lea    (%rax,%rax,4),%rax
  40630d:	48 c1 e0 03          	shl    $0x3,%rax
  406311:	48 8d b8 24 67 73 00 	lea    0x736724(%rax),%rdi
  406318:	48 05 40 67 73 00    	add    $0x736740,%rax
  40631e:	48 89 04 24          	mov    %rax,(%rsp)
  406322:	e8 89 c1 ff ff       	callq  4024b0 <PMPI_Irecv@plt>
  406327:	8b 15 d3 03 33 00    	mov    0x3303d3(%rip),%edx        # 736700 <i_req_push>
  40632d:	31 c0                	xor    %eax,%eax
  40632f:	4c 8b 54 24 10       	mov    0x10(%rsp),%r10
  406334:	4d 89 e1             	mov    %r12,%r9
  406337:	45 89 f8             	mov    %r15d,%r8d
  40633a:	44 89 e9             	mov    %r13d,%ecx
  40633d:	89 ee                	mov    %ebp,%esi
  40633f:	4c 8b 64 24 38       	mov    0x38(%rsp),%r12
  406344:	48 8b 6c 24 30       	mov    0x30(%rsp),%rbp
  406349:	83 c2 01             	add    $0x1,%edx
  40634c:	4c 8b 6c 24 40       	mov    0x40(%rsp),%r13
  406351:	4c 8b 74 24 48       	mov    0x48(%rsp),%r14
  406356:	83 fa 14             	cmp    $0x14,%edx
  406359:	4c 8b 7c 24 50       	mov    0x50(%rsp),%r15
  40635e:	4c 89 d7             	mov    %r10,%rdi
  406361:	0f 45 c2             	cmovne %edx,%eax
  406364:	48 89 da             	mov    %rbx,%rdx
  406367:	48 8b 5c 24 28       	mov    0x28(%rsp),%rbx
  40636c:	89 05 8e 03 33 00    	mov    %eax,0x33038e(%rip)        # 736700 <i_req_push>
  406372:	48 8b 44 24 18       	mov    0x18(%rsp),%rax
  406377:	48 89 44 24 60       	mov    %rax,0x60(%rsp)
  40637c:	48 83 c4 58          	add    $0x58,%rsp
  406380:	e9 3b c1 ff ff       	jmpq   4024c0 <PMPI_Isend@plt>
  406385:	0f 1f 00             	nopl   (%rax)
  406388:	8d 0c ad 00 00 00 00 	lea    0x0(,%rbp,4),%ecx
  40638f:	89 c2                	mov    %eax,%edx
  406391:	e9 0a ff ff ff       	jmpq   4062a0 <MPI_Isend+0x1e0>
  406396:	66 2e 0f 1f 84 00 00 	nopw   %cs:0x0(%rax,%rax,1)
  40639d:	00 00 00 
  4063a0:	8d 4c 2d 00          	lea    0x0(%rbp,%rbp,1),%ecx
  4063a4:	89 c2                	mov    %eax,%edx
  4063a6:	e9 f5 fe ff ff       	jmpq   4062a0 <MPI_Isend+0x1e0>
  4063ab:	0f 1f 44 00 00       	nopl   0x0(%rax,%rax,1)
  4063b0:	8d 0c ed 00 00 00 00 	lea    0x0(,%rbp,8),%ecx
  4063b7:	89 c2                	mov    %eax,%edx
  4063b9:	e9 e2 fe ff ff       	jmpq   4062a0 <MPI_Isend+0x1e0>
  4063be:	66 90                	xchg   %ax,%ax
  4063c0:	8d 4c 2d 00          	lea    0x0(%rbp,%rbp,1),%ecx
  4063c4:	e9 d7 fe ff ff       	jmpq   4062a0 <MPI_Isend+0x1e0>
  4063c9:	0f 1f 80 00 00 00 00 	nopl   0x0(%rax)
  4063d0:	89 e9                	mov    %ebp,%ecx
  4063d2:	89 c2                	mov    %eax,%edx
  4063d4:	e9 c7 fe ff ff       	jmpq   4062a0 <MPI_Isend+0x1e0>
  4063d9:	0f 1f 80 00 00 00 00 	nopl   0x0(%rax)
  4063e0:	89 e9                	mov    %ebp,%ecx
  4063e2:	89 c2                	mov    %eax,%edx
  4063e4:	c1 e1 04             	shl    $0x4,%ecx
  4063e7:	e9 b4 fe ff ff       	jmpq   4062a0 <MPI_Isend+0x1e0>
  4063ec:	0f 1f 40 00          	nopl   0x0(%rax)

00000000004063f0 <MPI_Recv>:
  4063f0:	48 89 5c 24 d0       	mov    %rbx,-0x30(%rsp)
  4063f5:	48 89 6c 24 d8       	mov    %rbp,-0x28(%rsp)
  4063fa:	48 89 d3             	mov    %rdx,%rbx
  4063fd:	4c 89 64 24 e0       	mov    %r12,-0x20(%rsp)
  406402:	4c 89 6c 24 e8       	mov    %r13,-0x18(%rsp)
  406407:	41 89 cc             	mov    %ecx,%r12d
  40640a:	4c 89 74 24 f0       	mov    %r14,-0x10(%rsp)
  40640f:	4c 89 7c 24 f8       	mov    %r15,-0x8(%rsp)
  406414:	48 83 ec 78          	sub    $0x78,%rsp
  406418:	48 8d 44 24 20       	lea    0x20(%rsp),%rax
  40641d:	49 89 fe             	mov    %rdi,%r14
  406420:	48 8d 7c 24 3c       	lea    0x3c(%rsp),%rdi
  406425:	4c 89 cd             	mov    %r9,%rbp
  406428:	ba 40 87 60 00       	mov    $0x608740,%edx
  40642d:	41 89 f5             	mov    %esi,%r13d
  406430:	45 89 c7             	mov    %r8d,%r15d
  406433:	be 01 00 00 00       	mov    $0x1,%esi
  406438:	41 b8 59 02 00 00    	mov    $0x259,%r8d
  40643e:	48 89 04 24          	mov    %rax,(%rsp)
  406442:	e8 f9 bf ff ff       	callq  402440 <PMPI_Recv@plt>
  406447:	49 89 e9             	mov    %rbp,%r9
  40644a:	41 b8 59 02 00 00    	mov    $0x259,%r8d
  406450:	44 89 e1             	mov    %r12d,%ecx
  406453:	ba 40 87 60 00       	mov    $0x608740,%edx
  406458:	be 01 00 00 00       	mov    $0x1,%esi
  40645d:	bf 40 6a 73 00       	mov    $0x736a40,%edi
  406462:	e8 d9 c0 ff ff       	callq  402540 <PMPI_Send@plt>
  406467:	48 81 fb 40 7f 60 00 	cmp    $0x607f40,%rbx
  40646e:	0f 84 dc 01 00 00    	je     406650 <MPI_Recv+0x260>
  406474:	48 81 fb 40 a7 60 00 	cmp    $0x60a740,%rbx
  40647b:	0f 84 cf 01 00 00    	je     406650 <MPI_Recv+0x260>
  406481:	48 81 fb 60 c9 60 00 	cmp    $0x60c960,%rbx
  406488:	0f 84 c2 01 00 00    	je     406650 <MPI_Recv+0x260>
  40648e:	48 81 fb 40 81 60 00 	cmp    $0x608140,%rbx
  406495:	0f 84 c5 01 00 00    	je     406660 <MPI_Recv+0x270>
  40649b:	48 81 fb 40 93 60 00 	cmp    $0x609340,%rbx
  4064a2:	0f 84 b8 01 00 00    	je     406660 <MPI_Recv+0x270>
  4064a8:	b8 40 87 60 00       	mov    $0x608740,%eax
  4064ad:	48 39 d8             	cmp    %rbx,%rax
  4064b0:	0f 84 22 01 00 00    	je     4065d8 <MPI_Recv+0x1e8>
  4064b6:	48 81 fb 40 ab 60 00 	cmp    $0x60ab40,%rbx
  4064bd:	0f 84 15 01 00 00    	je     4065d8 <MPI_Recv+0x1e8>
  4064c3:	48 81 fb 60 c7 60 00 	cmp    $0x60c760,%rbx
  4064ca:	0f 84 08 01 00 00    	je     4065d8 <MPI_Recv+0x1e8>
  4064d0:	48 81 fb 60 cb 60 00 	cmp    $0x60cb60,%rbx
  4064d7:	0f 84 93 01 00 00    	je     406670 <MPI_Recv+0x280>
  4064dd:	48 81 fb 40 b9 60 00 	cmp    $0x60b940,%rbx
  4064e4:	0f 84 86 01 00 00    	je     406670 <MPI_Recv+0x280>
  4064ea:	48 81 fb 40 9d 60 00 	cmp    $0x609d40,%rbx
  4064f1:	0f 84 79 01 00 00    	je     406670 <MPI_Recv+0x280>
  4064f7:	48 81 fb 40 b1 60 00 	cmp    $0x60b140,%rbx
  4064fe:	0f 84 6c 01 00 00    	je     406670 <MPI_Recv+0x280>
  406504:	48 81 fb 40 9b 60 00 	cmp    $0x609b40,%rbx
  40650b:	0f 84 77 01 00 00    	je     406688 <MPI_Recv+0x298>
  406511:	48 81 fb 40 99 60 00 	cmp    $0x609940,%rbx
  406518:	0f 84 32 01 00 00    	je     406650 <MPI_Recv+0x260>
  40651e:	48 81 fb 40 83 60 00 	cmp    $0x608340,%rbx
  406525:	0f 84 25 01 00 00    	je     406650 <MPI_Recv+0x260>
  40652b:	48 81 fb 40 97 60 00 	cmp    $0x609740,%rbx
  406532:	0f 84 28 01 00 00    	je     406660 <MPI_Recv+0x270>
  406538:	48 81 fb 60 cd 60 00 	cmp    $0x60cd60,%rbx
  40653f:	0f 84 93 00 00 00    	je     4065d8 <MPI_Recv+0x1e8>
  406545:	48 81 fb 60 c3 60 00 	cmp    $0x60c360,%rbx
  40654c:	0f 84 86 00 00 00    	je     4065d8 <MPI_Recv+0x1e8>
  406552:	48 81 fb 40 a9 60 00 	cmp    $0x60a940,%rbx
  406559:	74 7d                	je     4065d8 <MPI_Recv+0x1e8>
  40655b:	48 81 fb 40 89 60 00 	cmp    $0x608940,%rbx
  406562:	74 74                	je     4065d8 <MPI_Recv+0x1e8>
  406564:	48 81 fb 40 95 60 00 	cmp    $0x609540,%rbx
  40656b:	74 6b                	je     4065d8 <MPI_Recv+0x1e8>
  40656d:	48 81 fb 60 c5 60 00 	cmp    $0x60c560,%rbx
  406574:	0f 84 f6 00 00 00    	je     406670 <MPI_Recv+0x280>
  40657a:	48 81 fb 40 85 60 00 	cmp    $0x608540,%rbx
  406581:	0f 84 e9 00 00 00    	je     406670 <MPI_Recv+0x280>
  406587:	48 81 fb 40 ad 60 00 	cmp    $0x60ad40,%rbx
  40658e:	0f 84 dc 00 00 00    	je     406670 <MPI_Recv+0x280>
  406594:	48 81 fb 60 cf 60 00 	cmp    $0x60cf60,%rbx
  40659b:	0f 84 cf 00 00 00    	je     406670 <MPI_Recv+0x280>
  4065a1:	48 81 fb 40 b3 60 00 	cmp    $0x60b340,%rbx
  4065a8:	0f 84 da 00 00 00    	je     406688 <MPI_Recv+0x298>
  4065ae:	8b 15 8c 04 33 00    	mov    0x33048c(%rip),%edx        # 736a40 <rank_pmpi>
  4065b4:	48 8b 3d 85 5d 20 00 	mov    0x205d85(%rip),%rdi        # 60c340 <stderr@@GLIBC_2.2.5>
  4065bb:	89 d9                	mov    %ebx,%ecx
  4065bd:	be 60 72 40 00       	mov    $0x407260,%esi
  4065c2:	31 c0                	xor    %eax,%eax
  4065c4:	e8 67 bf ff ff       	callq  402530 <fprintf@plt>
  4065c9:	c7 44 24 1c 00 00 00 	movl   $0x0,0x1c(%rsp)
  4065d0:	00 
  4065d1:	eb 11                	jmp    4065e4 <MPI_Recv+0x1f4>
  4065d3:	0f 1f 44 00 00       	nopl   0x0(%rax,%rax,1)
  4065d8:	42 8d 04 ad 00 00 00 	lea    0x0(,%r13,4),%eax
  4065df:	00 
  4065e0:	89 44 24 1c          	mov    %eax,0x1c(%rsp)
  4065e4:	48 8b 84 24 80 00 00 	mov    0x80(%rsp),%rax
  4065eb:	00 
  4065ec:	49 89 e9             	mov    %rbp,%r9
  4065ef:	45 89 f8             	mov    %r15d,%r8d
  4065f2:	44 89 e1             	mov    %r12d,%ecx
  4065f5:	48 89 da             	mov    %rbx,%rdx
  4065f8:	44 89 ee             	mov    %r13d,%esi
  4065fb:	4c 89 f7             	mov    %r14,%rdi
  4065fe:	48 89 04 24          	mov    %rax,(%rsp)
  406602:	e8 39 be ff ff       	callq  402440 <PMPI_Recv@plt>
  406607:	8b 4c 24 1c          	mov    0x1c(%rsp),%ecx
  40660b:	8b 74 24 3c          	mov    0x3c(%rsp),%esi
  40660f:	89 c3                	mov    %eax,%ebx
  406611:	8b 3d 29 04 33 00    	mov    0x330429(%rip),%edi        # 736a40 <rank_pmpi>
  406617:	4d 89 f0             	mov    %r14,%r8
  40661a:	44 89 fa             	mov    %r15d,%edx
  40661d:	e8 7e e5 ff ff       	callq  404ba0 <PinMPI_Recv>
  406622:	89 d8                	mov    %ebx,%eax
  406624:	48 8b 6c 24 50       	mov    0x50(%rsp),%rbp
  406629:	48 8b 5c 24 48       	mov    0x48(%rsp),%rbx
  40662e:	4c 8b 64 24 58       	mov    0x58(%rsp),%r12
  406633:	4c 8b 6c 24 60       	mov    0x60(%rsp),%r13
  406638:	4c 8b 74 24 68       	mov    0x68(%rsp),%r14
  40663d:	4c 8b 7c 24 70       	mov    0x70(%rsp),%r15
  406642:	48 83 c4 78          	add    $0x78,%rsp
  406646:	c3                   	retq   
  406647:	66 0f 1f 84 00 00 00 	nopw   0x0(%rax,%rax,1)
  40664e:	00 00 
  406650:	44 89 6c 24 1c       	mov    %r13d,0x1c(%rsp)
  406655:	eb 8d                	jmp    4065e4 <MPI_Recv+0x1f4>
  406657:	66 0f 1f 84 00 00 00 	nopw   0x0(%rax,%rax,1)
  40665e:	00 00 
  406660:	43 8d 44 2d 00       	lea    0x0(%r13,%r13,1),%eax
  406665:	89 44 24 1c          	mov    %eax,0x1c(%rsp)
  406669:	e9 76 ff ff ff       	jmpq   4065e4 <MPI_Recv+0x1f4>
  40666e:	66 90                	xchg   %ax,%ax
  406670:	42 8d 04 ed 00 00 00 	lea    0x0(,%r13,8),%eax
  406677:	00 
  406678:	89 44 24 1c          	mov    %eax,0x1c(%rsp)
  40667c:	e9 63 ff ff ff       	jmpq   4065e4 <MPI_Recv+0x1f4>
  406681:	0f 1f 80 00 00 00 00 	nopl   0x0(%rax)
  406688:	44 89 e8             	mov    %r13d,%eax
  40668b:	c1 e0 04             	shl    $0x4,%eax
  40668e:	89 44 24 1c          	mov    %eax,0x1c(%rsp)
  406692:	e9 4d ff ff ff       	jmpq   4065e4 <MPI_Recv+0x1f4>
  406697:	66 0f 1f 84 00 00 00 	nopw   0x0(%rax,%rax,1)
  40669e:	00 00 

00000000004066a0 <MPI_Send>:
  4066a0:	48 89 5c 24 d0       	mov    %rbx,-0x30(%rsp)
  4066a5:	48 89 6c 24 d8       	mov    %rbp,-0x28(%rsp)
  4066aa:	48 89 d3             	mov    %rdx,%rbx
  4066ad:	4c 89 64 24 e0       	mov    %r12,-0x20(%rsp)
  4066b2:	4c 89 6c 24 e8       	mov    %r13,-0x18(%rsp)
  4066b7:	ba 40 87 60 00       	mov    $0x608740,%edx
  4066bc:	4c 89 74 24 f0       	mov    %r14,-0x10(%rsp)
  4066c1:	4c 89 7c 24 f8       	mov    %r15,-0x8(%rsp)
  4066c6:	49 89 fe             	mov    %rdi,%r14
  4066c9:	48 83 ec 78          	sub    $0x78,%rsp
  4066cd:	bf 40 6a 73 00       	mov    $0x736a40,%edi
  4066d2:	41 89 f5             	mov    %esi,%r13d
  4066d5:	45 89 c7             	mov    %r8d,%r15d
  4066d8:	be 01 00 00 00       	mov    $0x1,%esi
  4066dd:	41 b8 59 02 00 00    	mov    $0x259,%r8d
  4066e3:	41 89 cc             	mov    %ecx,%r12d
  4066e6:	4c 89 cd             	mov    %r9,%rbp
  4066e9:	e8 52 be ff ff       	callq  402540 <PMPI_Send@plt>
  4066ee:	48 8d 44 24 20       	lea    0x20(%rsp),%rax
  4066f3:	48 8d 7c 24 3c       	lea    0x3c(%rsp),%rdi
  4066f8:	49 89 e9             	mov    %rbp,%r9
  4066fb:	41 b8 59 02 00 00    	mov    $0x259,%r8d
  406701:	44 89 e1             	mov    %r12d,%ecx
  406704:	ba 40 87 60 00       	mov    $0x608740,%edx
  406709:	be 01 00 00 00       	mov    $0x1,%esi
  40670e:	48 89 04 24          	mov    %rax,(%rsp)
  406712:	e8 29 bd ff ff       	callq  402440 <PMPI_Recv@plt>
  406717:	48 81 fb 40 7f 60 00 	cmp    $0x607f40,%rbx
  40671e:	0f 84 cc 01 00 00    	je     4068f0 <MPI_Send+0x250>
  406724:	48 81 fb 40 a7 60 00 	cmp    $0x60a740,%rbx
  40672b:	0f 84 bf 01 00 00    	je     4068f0 <MPI_Send+0x250>
  406731:	48 81 fb 60 c9 60 00 	cmp    $0x60c960,%rbx
  406738:	0f 84 b2 01 00 00    	je     4068f0 <MPI_Send+0x250>
  40673e:	48 81 fb 40 81 60 00 	cmp    $0x608140,%rbx
  406745:	0f 84 b5 01 00 00    	je     406900 <MPI_Send+0x260>
  40674b:	48 81 fb 40 93 60 00 	cmp    $0x609340,%rbx
  406752:	0f 84 a8 01 00 00    	je     406900 <MPI_Send+0x260>
  406758:	b8 40 87 60 00       	mov    $0x608740,%eax
  40675d:	48 39 d8             	cmp    %rbx,%rax
  406760:	0f 84 22 01 00 00    	je     406888 <MPI_Send+0x1e8>
  406766:	48 81 fb 40 ab 60 00 	cmp    $0x60ab40,%rbx
  40676d:	0f 84 15 01 00 00    	je     406888 <MPI_Send+0x1e8>
  406773:	48 81 fb 60 c7 60 00 	cmp    $0x60c760,%rbx
  40677a:	0f 84 08 01 00 00    	je     406888 <MPI_Send+0x1e8>
  406780:	48 81 fb 60 cb 60 00 	cmp    $0x60cb60,%rbx
  406787:	0f 84 83 01 00 00    	je     406910 <MPI_Send+0x270>
  40678d:	48 81 fb 40 b9 60 00 	cmp    $0x60b940,%rbx
  406794:	0f 84 76 01 00 00    	je     406910 <MPI_Send+0x270>
  40679a:	48 81 fb 40 9d 60 00 	cmp    $0x609d40,%rbx
  4067a1:	0f 84 69 01 00 00    	je     406910 <MPI_Send+0x270>
  4067a7:	48 81 fb 40 b1 60 00 	cmp    $0x60b140,%rbx
  4067ae:	0f 84 5c 01 00 00    	je     406910 <MPI_Send+0x270>
  4067b4:	48 81 fb 40 9b 60 00 	cmp    $0x609b40,%rbx
  4067bb:	0f 84 67 01 00 00    	je     406928 <MPI_Send+0x288>
  4067c1:	48 81 fb 40 99 60 00 	cmp    $0x609940,%rbx
  4067c8:	0f 84 22 01 00 00    	je     4068f0 <MPI_Send+0x250>
  4067ce:	48 81 fb 40 83 60 00 	cmp    $0x608340,%rbx
  4067d5:	0f 84 15 01 00 00    	je     4068f0 <MPI_Send+0x250>
  4067db:	48 81 fb 40 97 60 00 	cmp    $0x609740,%rbx
  4067e2:	0f 84 18 01 00 00    	je     406900 <MPI_Send+0x260>
  4067e8:	48 81 fb 60 cd 60 00 	cmp    $0x60cd60,%rbx
  4067ef:	0f 84 93 00 00 00    	je     406888 <MPI_Send+0x1e8>
  4067f5:	48 81 fb 60 c3 60 00 	cmp    $0x60c360,%rbx
  4067fc:	0f 84 86 00 00 00    	je     406888 <MPI_Send+0x1e8>
  406802:	48 81 fb 40 a9 60 00 	cmp    $0x60a940,%rbx
  406809:	74 7d                	je     406888 <MPI_Send+0x1e8>
  40680b:	48 81 fb 40 89 60 00 	cmp    $0x608940,%rbx
  406812:	74 74                	je     406888 <MPI_Send+0x1e8>
  406814:	48 81 fb 40 95 60 00 	cmp    $0x609540,%rbx
  40681b:	74 6b                	je     406888 <MPI_Send+0x1e8>
  40681d:	48 81 fb 60 c5 60 00 	cmp    $0x60c560,%rbx
  406824:	0f 84 e6 00 00 00    	je     406910 <MPI_Send+0x270>
  40682a:	48 81 fb 40 85 60 00 	cmp    $0x608540,%rbx
  406831:	0f 84 d9 00 00 00    	je     406910 <MPI_Send+0x270>
  406837:	48 81 fb 40 ad 60 00 	cmp    $0x60ad40,%rbx
  40683e:	0f 84 cc 00 00 00    	je     406910 <MPI_Send+0x270>
  406844:	48 81 fb 60 cf 60 00 	cmp    $0x60cf60,%rbx
  40684b:	0f 84 bf 00 00 00    	je     406910 <MPI_Send+0x270>
  406851:	48 81 fb 40 b3 60 00 	cmp    $0x60b340,%rbx
  406858:	0f 84 ca 00 00 00    	je     406928 <MPI_Send+0x288>
  40685e:	8b 15 dc 01 33 00    	mov    0x3301dc(%rip),%edx        # 736a40 <rank_pmpi>
  406864:	48 8b 3d d5 5a 20 00 	mov    0x205ad5(%rip),%rdi        # 60c340 <stderr@@GLIBC_2.2.5>
  40686b:	89 d9                	mov    %ebx,%ecx
  40686d:	be 60 72 40 00       	mov    $0x407260,%esi
  406872:	31 c0                	xor    %eax,%eax
  406874:	e8 b7 bc ff ff       	callq  402530 <fprintf@plt>
  406879:	c7 44 24 1c 00 00 00 	movl   $0x0,0x1c(%rsp)
  406880:	00 
  406881:	eb 11                	jmp    406894 <MPI_Send+0x1f4>
  406883:	0f 1f 44 00 00       	nopl   0x0(%rax,%rax,1)
  406888:	42 8d 04 ad 00 00 00 	lea    0x0(,%r13,4),%eax
  40688f:	00 
  406890:	89 44 24 1c          	mov    %eax,0x1c(%rsp)
  406894:	49 89 e9             	mov    %rbp,%r9
  406897:	45 89 f8             	mov    %r15d,%r8d
  40689a:	44 89 e1             	mov    %r12d,%ecx
  40689d:	48 89 da             	mov    %rbx,%rdx
  4068a0:	44 89 ee             	mov    %r13d,%esi
  4068a3:	4c 89 f7             	mov    %r14,%rdi
  4068a6:	e8 95 bc ff ff       	callq  402540 <PMPI_Send@plt>
  4068ab:	8b 4c 24 1c          	mov    0x1c(%rsp),%ecx
  4068af:	8b 74 24 3c          	mov    0x3c(%rsp),%esi
  4068b3:	89 c3                	mov    %eax,%ebx
  4068b5:	8b 3d 85 01 33 00    	mov    0x330185(%rip),%edi        # 736a40 <rank_pmpi>
  4068bb:	4d 89 f0             	mov    %r14,%r8
  4068be:	44 89 fa             	mov    %r15d,%edx
  4068c1:	e8 ba e2 ff ff       	callq  404b80 <PinMPI_Send>
  4068c6:	89 d8                	mov    %ebx,%eax
  4068c8:	48 8b 6c 24 50       	mov    0x50(%rsp),%rbp
  4068cd:	48 8b 5c 24 48       	mov    0x48(%rsp),%rbx
  4068d2:	4c 8b 64 24 58       	mov    0x58(%rsp),%r12
  4068d7:	4c 8b 6c 24 60       	mov    0x60(%rsp),%r13
  4068dc:	4c 8b 74 24 68       	mov    0x68(%rsp),%r14
  4068e1:	4c 8b 7c 24 70       	mov    0x70(%rsp),%r15
  4068e6:	48 83 c4 78          	add    $0x78,%rsp
  4068ea:	c3                   	retq   
  4068eb:	0f 1f 44 00 00       	nopl   0x0(%rax,%rax,1)
  4068f0:	44 89 6c 24 1c       	mov    %r13d,0x1c(%rsp)
  4068f5:	eb 9d                	jmp    406894 <MPI_Send+0x1f4>
  4068f7:	66 0f 1f 84 00 00 00 	nopw   0x0(%rax,%rax,1)
  4068fe:	00 00 
  406900:	43 8d 44 2d 00       	lea    0x0(%r13,%r13,1),%eax
  406905:	89 44 24 1c          	mov    %eax,0x1c(%rsp)
  406909:	eb 89                	jmp    406894 <MPI_Send+0x1f4>
  40690b:	0f 1f 44 00 00       	nopl   0x0(%rax,%rax,1)
  406910:	42 8d 04 ed 00 00 00 	lea    0x0(,%r13,8),%eax
  406917:	00 
  406918:	89 44 24 1c          	mov    %eax,0x1c(%rsp)
  40691c:	e9 73 ff ff ff       	jmpq   406894 <MPI_Send+0x1f4>
  406921:	0f 1f 80 00 00 00 00 	nopl   0x0(%rax)
  406928:	44 89 e8             	mov    %r13d,%eax
  40692b:	c1 e0 04             	shl    $0x4,%eax
  40692e:	89 44 24 1c          	mov    %eax,0x1c(%rsp)
  406932:	e9 5d ff ff ff       	jmpq   406894 <MPI_Send+0x1f4>
  406937:	66 0f 1f 84 00 00 00 	nopw   0x0(%rax,%rax,1)
  40693e:	00 00 

0000000000406940 <MPI_Allreduce>:
  406940:	48 89 5c 24 d0       	mov    %rbx,-0x30(%rsp)
  406945:	48 89 6c 24 d8       	mov    %rbp,-0x28(%rsp)
  40694a:	48 89 cb             	mov    %rcx,%rbx
  40694d:	4c 89 64 24 e0       	mov    %r12,-0x20(%rsp)
  406952:	4c 89 6c 24 e8       	mov    %r13,-0x18(%rsp)
  406957:	4d 89 cc             	mov    %r9,%r12
  40695a:	4c 89 74 24 f0       	mov    %r14,-0x10(%rsp)
  40695f:	4c 89 7c 24 f8       	mov    %r15,-0x8(%rsp)
  406964:	48 83 ec 38          	sub    $0x38,%rsp
  406968:	49 89 fe             	mov    %rdi,%r14
  40696b:	49 89 f5             	mov    %rsi,%r13
  40696e:	89 d5                	mov    %edx,%ebp
  406970:	e8 0b bb ff ff       	callq  402480 <PMPI_Allreduce@plt>
  406975:	4d 89 e1             	mov    %r12,%r9
  406978:	41 b8 40 bb 60 00    	mov    $0x60bb40,%r8d
  40697e:	b9 40 af 60 00       	mov    $0x60af40,%ecx
  406983:	ba 01 00 00 00       	mov    $0x1,%edx
  406988:	be 48 6a 73 00       	mov    $0x736a48,%esi
  40698d:	bf 08 67 73 00       	mov    $0x736708,%edi
  406992:	41 89 c7             	mov    %eax,%r15d
  406995:	e8 e6 ba ff ff       	callq  402480 <PMPI_Allreduce@plt>
  40699a:	48 81 fb 40 7f 60 00 	cmp    $0x607f40,%rbx
  4069a1:	0f 84 69 01 00 00    	je     406b10 <MPI_Allreduce+0x1d0>
  4069a7:	48 81 fb 40 a7 60 00 	cmp    $0x60a740,%rbx
  4069ae:	0f 84 5c 01 00 00    	je     406b10 <MPI_Allreduce+0x1d0>
  4069b4:	48 81 fb 60 c9 60 00 	cmp    $0x60c960,%rbx
  4069bb:	0f 84 4f 01 00 00    	je     406b10 <MPI_Allreduce+0x1d0>
  4069c1:	48 81 fb 40 81 60 00 	cmp    $0x608140,%rbx
  4069c8:	0f 84 8a 01 00 00    	je     406b58 <MPI_Allreduce+0x218>
  4069ce:	48 81 fb 40 93 60 00 	cmp    $0x609340,%rbx
  4069d5:	0f 84 7d 01 00 00    	je     406b58 <MPI_Allreduce+0x218>
  4069db:	48 81 fb 40 87 60 00 	cmp    $0x608740,%rbx
  4069e2:	0f 84 68 01 00 00    	je     406b50 <MPI_Allreduce+0x210>
  4069e8:	48 81 fb 40 ab 60 00 	cmp    $0x60ab40,%rbx
  4069ef:	0f 84 5b 01 00 00    	je     406b50 <MPI_Allreduce+0x210>
  4069f5:	48 81 fb 60 c7 60 00 	cmp    $0x60c760,%rbx
  4069fc:	0f 84 4e 01 00 00    	je     406b50 <MPI_Allreduce+0x210>
  406a02:	48 81 fb 60 cb 60 00 	cmp    $0x60cb60,%rbx
  406a09:	0f 84 51 01 00 00    	je     406b60 <MPI_Allreduce+0x220>
  406a0f:	48 81 fb 40 b9 60 00 	cmp    $0x60b940,%rbx
  406a16:	0f 84 44 01 00 00    	je     406b60 <MPI_Allreduce+0x220>
  406a1c:	48 81 fb 40 9d 60 00 	cmp    $0x609d40,%rbx
  406a23:	0f 84 37 01 00 00    	je     406b60 <MPI_Allreduce+0x220>
  406a29:	48 81 fb 40 b1 60 00 	cmp    $0x60b140,%rbx
  406a30:	0f 84 2a 01 00 00    	je     406b60 <MPI_Allreduce+0x220>
  406a36:	48 81 fb 40 9b 60 00 	cmp    $0x609b40,%rbx
  406a3d:	0f 84 25 01 00 00    	je     406b68 <MPI_Allreduce+0x228>
  406a43:	48 81 fb 40 99 60 00 	cmp    $0x609940,%rbx
  406a4a:	0f 84 c0 00 00 00    	je     406b10 <MPI_Allreduce+0x1d0>
  406a50:	48 81 fb 40 83 60 00 	cmp    $0x608340,%rbx
  406a57:	0f 84 b3 00 00 00    	je     406b10 <MPI_Allreduce+0x1d0>
  406a5d:	48 81 fb 40 97 60 00 	cmp    $0x609740,%rbx
  406a64:	0f 84 ee 00 00 00    	je     406b58 <MPI_Allreduce+0x218>
  406a6a:	48 81 fb 60 cd 60 00 	cmp    $0x60cd60,%rbx
  406a71:	0f 84 d9 00 00 00    	je     406b50 <MPI_Allreduce+0x210>
  406a77:	48 81 fb 60 c3 60 00 	cmp    $0x60c360,%rbx
  406a7e:	0f 84 cc 00 00 00    	je     406b50 <MPI_Allreduce+0x210>
  406a84:	48 81 fb 40 a9 60 00 	cmp    $0x60a940,%rbx
  406a8b:	0f 84 bf 00 00 00    	je     406b50 <MPI_Allreduce+0x210>
  406a91:	48 81 fb 40 89 60 00 	cmp    $0x608940,%rbx
  406a98:	0f 84 b2 00 00 00    	je     406b50 <MPI_Allreduce+0x210>
  406a9e:	48 81 fb 40 95 60 00 	cmp    $0x609540,%rbx
  406aa5:	0f 84 a5 00 00 00    	je     406b50 <MPI_Allreduce+0x210>
  406aab:	48 81 fb 60 c5 60 00 	cmp    $0x60c560,%rbx
  406ab2:	0f 84 a8 00 00 00    	je     406b60 <MPI_Allreduce+0x220>
  406ab8:	48 81 fb 40 85 60 00 	cmp    $0x608540,%rbx
  406abf:	0f 84 9b 00 00 00    	je     406b60 <MPI_Allreduce+0x220>
  406ac5:	48 81 fb 40 ad 60 00 	cmp    $0x60ad40,%rbx
  406acc:	0f 84 8e 00 00 00    	je     406b60 <MPI_Allreduce+0x220>
  406ad2:	48 81 fb 60 cf 60 00 	cmp    $0x60cf60,%rbx
  406ad9:	0f 84 81 00 00 00    	je     406b60 <MPI_Allreduce+0x220>
  406adf:	48 81 fb 40 b3 60 00 	cmp    $0x60b340,%rbx
  406ae6:	0f 84 7c 00 00 00    	je     406b68 <MPI_Allreduce+0x228>
  406aec:	8b 15 4e ff 32 00    	mov    0x32ff4e(%rip),%edx        # 736a40 <rank_pmpi>
  406af2:	48 8b 3d 47 58 20 00 	mov    0x205847(%rip),%rdi        # 60c340 <stderr@@GLIBC_2.2.5>
  406af9:	89 d9                	mov    %ebx,%ecx
  406afb:	be 60 72 40 00       	mov    $0x407260,%esi
  406b00:	31 c0                	xor    %eax,%eax
  406b02:	31 ed                	xor    %ebp,%ebp
  406b04:	e8 27 ba ff ff       	callq  402530 <fprintf@plt>
  406b09:	0f 1f 80 00 00 00 00 	nopl   0x0(%rax)
  406b10:	48 8b 35 31 ff 32 00 	mov    0x32ff31(%rip),%rsi        # 736a48 <identity_gather_pmpi>
  406b17:	8b 3d 23 ff 32 00    	mov    0x32ff23(%rip),%edi        # 736a40 <rank_pmpi>
  406b1d:	4d 89 e8             	mov    %r13,%r8
  406b20:	4c 89 f1             	mov    %r14,%rcx
  406b23:	89 ea                	mov    %ebp,%edx
  406b25:	e8 f6 e0 ff ff       	callq  404c20 <PinMPI_Allreduce>
  406b2a:	44 89 f8             	mov    %r15d,%eax
  406b2d:	48 8b 5c 24 08       	mov    0x8(%rsp),%rbx
  406b32:	48 8b 6c 24 10       	mov    0x10(%rsp),%rbp
  406b37:	4c 8b 64 24 18       	mov    0x18(%rsp),%r12
  406b3c:	4c 8b 6c 24 20       	mov    0x20(%rsp),%r13
  406b41:	4c 8b 74 24 28       	mov    0x28(%rsp),%r14
  406b46:	4c 8b 7c 24 30       	mov    0x30(%rsp),%r15
  406b4b:	48 83 c4 38          	add    $0x38,%rsp
  406b4f:	c3                   	retq   
  406b50:	c1 e5 02             	shl    $0x2,%ebp
  406b53:	eb bb                	jmp    406b10 <MPI_Allreduce+0x1d0>
  406b55:	0f 1f 00             	nopl   (%rax)
  406b58:	01 ed                	add    %ebp,%ebp
  406b5a:	eb b4                	jmp    406b10 <MPI_Allreduce+0x1d0>
  406b5c:	0f 1f 40 00          	nopl   0x0(%rax)
  406b60:	c1 e5 03             	shl    $0x3,%ebp
  406b63:	eb ab                	jmp    406b10 <MPI_Allreduce+0x1d0>
  406b65:	0f 1f 00             	nopl   (%rax)
  406b68:	c1 e5 04             	shl    $0x4,%ebp
  406b6b:	0f 1f 44 00 00       	nopl   0x0(%rax,%rax,1)
  406b70:	eb 9e                	jmp    406b10 <MPI_Allreduce+0x1d0>
  406b72:	90                   	nop
  406b73:	90                   	nop
  406b74:	90                   	nop
  406b75:	90                   	nop
  406b76:	90                   	nop
  406b77:	90                   	nop
  406b78:	90                   	nop
  406b79:	90                   	nop
  406b7a:	90                   	nop
  406b7b:	90                   	nop
  406b7c:	90                   	nop
  406b7d:	90                   	nop
  406b7e:	90                   	nop
  406b7f:	90                   	nop

0000000000406b80 <__libc_csu_fini>:
  406b80:	f3 c3                	repz retq 
  406b82:	66 66 66 66 66 2e 0f 	data32 data32 data32 data32 nopw %cs:0x0(%rax,%rax,1)
  406b89:	1f 84 00 00 00 00 00 

0000000000406b90 <__libc_csu_init>:
  406b90:	48 89 6c 24 d8       	mov    %rbp,-0x28(%rsp)
  406b95:	4c 89 64 24 e0       	mov    %r12,-0x20(%rsp)
  406b9a:	48 8d 2d 4b 0d 20 00 	lea    0x200d4b(%rip),%rbp        # 6078ec <__init_array_end>
  406ba1:	4c 8d 25 44 0d 20 00 	lea    0x200d44(%rip),%r12        # 6078ec <__init_array_end>
  406ba8:	4c 89 6c 24 e8       	mov    %r13,-0x18(%rsp)
  406bad:	4c 89 74 24 f0       	mov    %r14,-0x10(%rsp)
  406bb2:	4c 89 7c 24 f8       	mov    %r15,-0x8(%rsp)
  406bb7:	48 89 5c 24 d0       	mov    %rbx,-0x30(%rsp)
  406bbc:	48 83 ec 38          	sub    $0x38,%rsp
  406bc0:	4c 29 e5             	sub    %r12,%rbp
  406bc3:	41 89 fd             	mov    %edi,%r13d
  406bc6:	49 89 f6             	mov    %rsi,%r14
  406bc9:	48 c1 fd 03          	sar    $0x3,%rbp
  406bcd:	49 89 d7             	mov    %rdx,%r15
  406bd0:	e8 a3 b7 ff ff       	callq  402378 <_init>
  406bd5:	48 85 ed             	test   %rbp,%rbp
  406bd8:	74 1c                	je     406bf6 <__libc_csu_init+0x66>
  406bda:	31 db                	xor    %ebx,%ebx
  406bdc:	0f 1f 40 00          	nopl   0x0(%rax)
  406be0:	4c 89 fa             	mov    %r15,%rdx
  406be3:	4c 89 f6             	mov    %r14,%rsi
  406be6:	44 89 ef             	mov    %r13d,%edi
  406be9:	41 ff 14 dc          	callq  *(%r12,%rbx,8)
  406bed:	48 83 c3 01          	add    $0x1,%rbx
  406bf1:	48 39 eb             	cmp    %rbp,%rbx
  406bf4:	72 ea                	jb     406be0 <__libc_csu_init+0x50>
  406bf6:	48 8b 5c 24 08       	mov    0x8(%rsp),%rbx
  406bfb:	48 8b 6c 24 10       	mov    0x10(%rsp),%rbp
  406c00:	4c 8b 64 24 18       	mov    0x18(%rsp),%r12
  406c05:	4c 8b 6c 24 20       	mov    0x20(%rsp),%r13
  406c0a:	4c 8b 74 24 28       	mov    0x28(%rsp),%r14
  406c0f:	4c 8b 7c 24 30       	mov    0x30(%rsp),%r15
  406c14:	48 83 c4 38          	add    $0x38,%rsp
  406c18:	c3                   	retq   
  406c19:	90                   	nop
  406c1a:	90                   	nop
  406c1b:	90                   	nop
  406c1c:	90                   	nop
  406c1d:	90                   	nop
  406c1e:	90                   	nop
  406c1f:	90                   	nop

0000000000406c20 <__do_global_ctors_aux>:
  406c20:	55                   	push   %rbp
  406c21:	48 89 e5             	mov    %rsp,%rbp
  406c24:	53                   	push   %rbx
  406c25:	48 83 ec 08          	sub    $0x8,%rsp
  406c29:	48 8b 05 c0 0c 20 00 	mov    0x200cc0(%rip),%rax        # 6078f0 <__CTOR_LIST__>
  406c30:	48 83 f8 ff          	cmp    $0xffffffffffffffff,%rax
  406c34:	74 19                	je     406c4f <__do_global_ctors_aux+0x2f>
  406c36:	bb f0 78 60 00       	mov    $0x6078f0,%ebx
  406c3b:	0f 1f 44 00 00       	nopl   0x0(%rax,%rax,1)
  406c40:	48 83 eb 08          	sub    $0x8,%rbx
  406c44:	ff d0                	callq  *%rax
  406c46:	48 8b 03             	mov    (%rbx),%rax
  406c49:	48 83 f8 ff          	cmp    $0xffffffffffffffff,%rax
  406c4d:	75 f1                	jne    406c40 <__do_global_ctors_aux+0x20>
  406c4f:	48 83 c4 08          	add    $0x8,%rsp
  406c53:	5b                   	pop    %rbx
  406c54:	c9                   	leaveq 
  406c55:	c3                   	retq   
  406c56:	90                   	nop
  406c57:	90                   	nop

Disassembly of section .fini:

0000000000406c58 <_fini>:
  406c58:	48 83 ec 08          	sub    $0x8,%rsp
  406c5c:	e8 4f b9 ff ff       	callq  4025b0 <__do_global_dtors_aux>
  406c61:	48 83 c4 08          	add    $0x8,%rsp
  406c65:	c3                   	retq   
